ARM GAS  C:\Users\ncer\AppData\Local\Temp\cct5ke7k.s 			page 1


   1              		.cpu cortex-m4
   2              		.eabi_attribute 27, 1
   3              		.eabi_attribute 28, 1
   4              		.eabi_attribute 20, 1
   5              		.eabi_attribute 21, 1
   6              		.eabi_attribute 23, 3
   7              		.eabi_attribute 24, 1
   8              		.eabi_attribute 25, 1
   9              		.eabi_attribute 26, 1
  10              		.eabi_attribute 30, 1
  11              		.eabi_attribute 34, 1
  12              		.eabi_attribute 18, 4
  13              		.file	"can.c"
  14              		.text
  15              	.Ltext0:
  16              		.cfi_sections	.debug_frame
  17              		.section	.text.MX_CAN1_Init,"ax",%progbits
  18              		.align	1
  19              		.global	MX_CAN1_Init
  20              		.arch armv7e-m
  21              		.syntax unified
  22              		.thumb
  23              		.thumb_func
  24              		.fpu fpv4-sp-d16
  26              	MX_CAN1_Init:
  27              	.LFB130:
  28              		.file 1 "Src/can.c"
   1:Src/can.c     **** /**
   2:Src/can.c     ****   ******************************************************************************
   3:Src/can.c     ****   * File Name          : CAN.c
   4:Src/can.c     ****   * Description        : This file provides code for the configuration
   5:Src/can.c     ****   *                      of the CAN instances.
   6:Src/can.c     ****   ******************************************************************************
   7:Src/can.c     ****   * @attention
   8:Src/can.c     ****   *
   9:Src/can.c     ****   * <h2><center>&copy; Copyright (c) 2020 STMicroelectronics.
  10:Src/can.c     ****   * All rights reserved.</center></h2>
  11:Src/can.c     ****   *
  12:Src/can.c     ****   * This software component is licensed by ST under BSD 3-Clause license,
  13:Src/can.c     ****   * the "License"; You may not use this file except in compliance with the
  14:Src/can.c     ****   * License. You may obtain a copy of the License at:
  15:Src/can.c     ****   *                        opensource.org/licenses/BSD-3-Clause
  16:Src/can.c     ****   *
  17:Src/can.c     ****   ******************************************************************************
  18:Src/can.c     ****   */
  19:Src/can.c     **** 
  20:Src/can.c     **** /* Includes ------------------------------------------------------------------*/
  21:Src/can.c     **** #include "can.h"
  22:Src/can.c     **** 
  23:Src/can.c     **** /* USER CODE BEGIN 0 */
  24:Src/can.c     **** 
  25:Src/can.c     **** /* USER CODE END 0 */
  26:Src/can.c     **** 
  27:Src/can.c     **** CAN_HandleTypeDef hcan1;
  28:Src/can.c     **** 
  29:Src/can.c     **** /* CAN1 init function */
  30:Src/can.c     **** void MX_CAN1_Init(void)
ARM GAS  C:\Users\ncer\AppData\Local\Temp\cct5ke7k.s 			page 2


  31:Src/can.c     **** {
  29              		.loc 1 31 1 view -0
  30              		.cfi_startproc
  31              		@ args = 0, pretend = 0, frame = 0
  32              		@ frame_needed = 0, uses_anonymous_args = 0
  33 0000 08B5     		push	{r3, lr}
  34              	.LCFI0:
  35              		.cfi_def_cfa_offset 8
  36              		.cfi_offset 3, -8
  37              		.cfi_offset 14, -4
  32:Src/can.c     **** 
  33:Src/can.c     ****   hcan1.Instance = CAN1;
  38              		.loc 1 33 3 view .LVU1
  39              		.loc 1 33 18 is_stmt 0 view .LVU2
  40 0002 0B48     		ldr	r0, .L5
  41 0004 0B4B     		ldr	r3, .L5+4
  42 0006 0360     		str	r3, [r0]
  34:Src/can.c     ****   hcan1.Init.Prescaler = 16;
  43              		.loc 1 34 3 is_stmt 1 view .LVU3
  44              		.loc 1 34 24 is_stmt 0 view .LVU4
  45 0008 1023     		movs	r3, #16
  46 000a 4360     		str	r3, [r0, #4]
  35:Src/can.c     ****   hcan1.Init.Mode = CAN_MODE_NORMAL;
  47              		.loc 1 35 3 is_stmt 1 view .LVU5
  48              		.loc 1 35 19 is_stmt 0 view .LVU6
  49 000c 0023     		movs	r3, #0
  50 000e 8360     		str	r3, [r0, #8]
  36:Src/can.c     ****   hcan1.Init.SyncJumpWidth = CAN_SJW_1TQ;
  51              		.loc 1 36 3 is_stmt 1 view .LVU7
  52              		.loc 1 36 28 is_stmt 0 view .LVU8
  53 0010 C360     		str	r3, [r0, #12]
  37:Src/can.c     ****   hcan1.Init.TimeSeg1 = CAN_BS1_1TQ;
  54              		.loc 1 37 3 is_stmt 1 view .LVU9
  55              		.loc 1 37 23 is_stmt 0 view .LVU10
  56 0012 0361     		str	r3, [r0, #16]
  38:Src/can.c     ****   hcan1.Init.TimeSeg2 = CAN_BS2_1TQ;
  57              		.loc 1 38 3 is_stmt 1 view .LVU11
  58              		.loc 1 38 23 is_stmt 0 view .LVU12
  59 0014 4361     		str	r3, [r0, #20]
  39:Src/can.c     ****   hcan1.Init.TimeTriggeredMode = DISABLE;
  60              		.loc 1 39 3 is_stmt 1 view .LVU13
  61              		.loc 1 39 32 is_stmt 0 view .LVU14
  62 0016 0376     		strb	r3, [r0, #24]
  40:Src/can.c     ****   hcan1.Init.AutoBusOff = DISABLE;
  63              		.loc 1 40 3 is_stmt 1 view .LVU15
  64              		.loc 1 40 25 is_stmt 0 view .LVU16
  65 0018 4376     		strb	r3, [r0, #25]
  41:Src/can.c     ****   hcan1.Init.AutoWakeUp = DISABLE;
  66              		.loc 1 41 3 is_stmt 1 view .LVU17
  67              		.loc 1 41 25 is_stmt 0 view .LVU18
  68 001a 8376     		strb	r3, [r0, #26]
  42:Src/can.c     ****   hcan1.Init.AutoRetransmission = DISABLE;
  69              		.loc 1 42 3 is_stmt 1 view .LVU19
  70              		.loc 1 42 33 is_stmt 0 view .LVU20
  71 001c C376     		strb	r3, [r0, #27]
  43:Src/can.c     ****   hcan1.Init.ReceiveFifoLocked = DISABLE;
  72              		.loc 1 43 3 is_stmt 1 view .LVU21
ARM GAS  C:\Users\ncer\AppData\Local\Temp\cct5ke7k.s 			page 3


  73              		.loc 1 43 32 is_stmt 0 view .LVU22
  74 001e 0377     		strb	r3, [r0, #28]
  44:Src/can.c     ****   hcan1.Init.TransmitFifoPriority = DISABLE;
  75              		.loc 1 44 3 is_stmt 1 view .LVU23
  76              		.loc 1 44 35 is_stmt 0 view .LVU24
  77 0020 4377     		strb	r3, [r0, #29]
  45:Src/can.c     ****   if (HAL_CAN_Init(&hcan1) != HAL_OK)
  78              		.loc 1 45 3 is_stmt 1 view .LVU25
  79              		.loc 1 45 7 is_stmt 0 view .LVU26
  80 0022 FFF7FEFF 		bl	HAL_CAN_Init
  81              	.LVL0:
  82              		.loc 1 45 6 view .LVU27
  83 0026 00B9     		cbnz	r0, .L4
  84              	.L1:
  46:Src/can.c     ****   {
  47:Src/can.c     ****     Error_Handler();
  48:Src/can.c     ****   }
  49:Src/can.c     **** 
  50:Src/can.c     **** }
  85              		.loc 1 50 1 view .LVU28
  86 0028 08BD     		pop	{r3, pc}
  87              	.L4:
  47:Src/can.c     ****   }
  88              		.loc 1 47 5 is_stmt 1 view .LVU29
  89 002a FFF7FEFF 		bl	Error_Handler
  90              	.LVL1:
  91              		.loc 1 50 1 is_stmt 0 view .LVU30
  92 002e FBE7     		b	.L1
  93              	.L6:
  94              		.align	2
  95              	.L5:
  96 0030 00000000 		.word	hcan1
  97 0034 00640040 		.word	1073767424
  98              		.cfi_endproc
  99              	.LFE130:
 101              		.section	.text.HAL_CAN_MspInit,"ax",%progbits
 102              		.align	1
 103              		.global	HAL_CAN_MspInit
 104              		.syntax unified
 105              		.thumb
 106              		.thumb_func
 107              		.fpu fpv4-sp-d16
 109              	HAL_CAN_MspInit:
 110              	.LVL2:
 111              	.LFB131:
  51:Src/can.c     **** 
  52:Src/can.c     **** void HAL_CAN_MspInit(CAN_HandleTypeDef* canHandle)
  53:Src/can.c     **** {
 112              		.loc 1 53 1 is_stmt 1 view -0
 113              		.cfi_startproc
 114              		@ args = 0, pretend = 0, frame = 32
 115              		@ frame_needed = 0, uses_anonymous_args = 0
 116              		.loc 1 53 1 is_stmt 0 view .LVU32
 117 0000 00B5     		push	{lr}
 118              	.LCFI1:
 119              		.cfi_def_cfa_offset 4
 120              		.cfi_offset 14, -4
ARM GAS  C:\Users\ncer\AppData\Local\Temp\cct5ke7k.s 			page 4


 121 0002 89B0     		sub	sp, sp, #36
 122              	.LCFI2:
 123              		.cfi_def_cfa_offset 40
  54:Src/can.c     **** 
  55:Src/can.c     ****   GPIO_InitTypeDef GPIO_InitStruct = {0};
 124              		.loc 1 55 3 is_stmt 1 view .LVU33
 125              		.loc 1 55 20 is_stmt 0 view .LVU34
 126 0004 0023     		movs	r3, #0
 127 0006 0393     		str	r3, [sp, #12]
 128 0008 0493     		str	r3, [sp, #16]
 129 000a 0593     		str	r3, [sp, #20]
 130 000c 0693     		str	r3, [sp, #24]
 131 000e 0793     		str	r3, [sp, #28]
  56:Src/can.c     ****   if(canHandle->Instance==CAN1)
 132              		.loc 1 56 3 is_stmt 1 view .LVU35
 133              		.loc 1 56 15 is_stmt 0 view .LVU36
 134 0010 0268     		ldr	r2, [r0]
 135              		.loc 1 56 5 view .LVU37
 136 0012 164B     		ldr	r3, .L11
 137 0014 9A42     		cmp	r2, r3
 138 0016 02D0     		beq	.L10
 139              	.LVL3:
 140              	.L7:
  57:Src/can.c     ****   {
  58:Src/can.c     ****   /* USER CODE BEGIN CAN1_MspInit 0 */
  59:Src/can.c     **** 
  60:Src/can.c     ****   /* USER CODE END CAN1_MspInit 0 */
  61:Src/can.c     ****     /* CAN1 clock enable */
  62:Src/can.c     ****     __HAL_RCC_CAN1_CLK_ENABLE();
  63:Src/can.c     ****   
  64:Src/can.c     ****     __HAL_RCC_GPIOB_CLK_ENABLE();
  65:Src/can.c     ****     /**CAN1 GPIO Configuration    
  66:Src/can.c     ****     PB8     ------> CAN1_RX
  67:Src/can.c     ****     PB9     ------> CAN1_TX 
  68:Src/can.c     ****     */
  69:Src/can.c     ****     GPIO_InitStruct.Pin = GPIO_PIN_8|GPIO_PIN_9;
  70:Src/can.c     ****     GPIO_InitStruct.Mode = GPIO_MODE_AF_PP;
  71:Src/can.c     ****     GPIO_InitStruct.Pull = GPIO_NOPULL;
  72:Src/can.c     ****     GPIO_InitStruct.Speed = GPIO_SPEED_FREQ_VERY_HIGH;
  73:Src/can.c     ****     GPIO_InitStruct.Alternate = GPIO_AF9_CAN1;
  74:Src/can.c     ****     HAL_GPIO_Init(GPIOB, &GPIO_InitStruct);
  75:Src/can.c     **** 
  76:Src/can.c     ****   /* USER CODE BEGIN CAN1_MspInit 1 */
  77:Src/can.c     **** 
  78:Src/can.c     ****   /* USER CODE END CAN1_MspInit 1 */
  79:Src/can.c     ****   }
  80:Src/can.c     **** }
 141              		.loc 1 80 1 view .LVU38
 142 0018 09B0     		add	sp, sp, #36
 143              	.LCFI3:
 144              		.cfi_remember_state
 145              		.cfi_def_cfa_offset 4
 146              		@ sp needed
 147 001a 5DF804FB 		ldr	pc, [sp], #4
 148              	.LVL4:
 149              	.L10:
 150              	.LCFI4:
ARM GAS  C:\Users\ncer\AppData\Local\Temp\cct5ke7k.s 			page 5


 151              		.cfi_restore_state
  62:Src/can.c     ****   
 152              		.loc 1 62 5 is_stmt 1 view .LVU39
 153              	.LBB2:
  62:Src/can.c     ****   
 154              		.loc 1 62 5 view .LVU40
 155 001e 0022     		movs	r2, #0
 156 0020 0192     		str	r2, [sp, #4]
  62:Src/can.c     ****   
 157              		.loc 1 62 5 view .LVU41
 158 0022 03F5EA33 		add	r3, r3, #119808
 159 0026 196C     		ldr	r1, [r3, #64]
 160 0028 41F00071 		orr	r1, r1, #33554432
 161 002c 1964     		str	r1, [r3, #64]
  62:Src/can.c     ****   
 162              		.loc 1 62 5 view .LVU42
 163 002e 196C     		ldr	r1, [r3, #64]
 164 0030 01F00071 		and	r1, r1, #33554432
 165 0034 0191     		str	r1, [sp, #4]
  62:Src/can.c     ****   
 166              		.loc 1 62 5 view .LVU43
 167 0036 0199     		ldr	r1, [sp, #4]
 168              	.LBE2:
  62:Src/can.c     ****   
 169              		.loc 1 62 5 view .LVU44
  64:Src/can.c     ****     /**CAN1 GPIO Configuration    
 170              		.loc 1 64 5 view .LVU45
 171              	.LBB3:
  64:Src/can.c     ****     /**CAN1 GPIO Configuration    
 172              		.loc 1 64 5 view .LVU46
 173 0038 0292     		str	r2, [sp, #8]
  64:Src/can.c     ****     /**CAN1 GPIO Configuration    
 174              		.loc 1 64 5 view .LVU47
 175 003a 196B     		ldr	r1, [r3, #48]
 176 003c 41F00201 		orr	r1, r1, #2
 177 0040 1963     		str	r1, [r3, #48]
  64:Src/can.c     ****     /**CAN1 GPIO Configuration    
 178              		.loc 1 64 5 view .LVU48
 179 0042 1B6B     		ldr	r3, [r3, #48]
 180 0044 03F00203 		and	r3, r3, #2
 181 0048 0293     		str	r3, [sp, #8]
  64:Src/can.c     ****     /**CAN1 GPIO Configuration    
 182              		.loc 1 64 5 view .LVU49
 183 004a 029B     		ldr	r3, [sp, #8]
 184              	.LBE3:
  64:Src/can.c     ****     /**CAN1 GPIO Configuration    
 185              		.loc 1 64 5 view .LVU50
  69:Src/can.c     ****     GPIO_InitStruct.Mode = GPIO_MODE_AF_PP;
 186              		.loc 1 69 5 view .LVU51
  69:Src/can.c     ****     GPIO_InitStruct.Mode = GPIO_MODE_AF_PP;
 187              		.loc 1 69 25 is_stmt 0 view .LVU52
 188 004c 4FF44073 		mov	r3, #768
 189 0050 0393     		str	r3, [sp, #12]
  70:Src/can.c     ****     GPIO_InitStruct.Pull = GPIO_NOPULL;
 190              		.loc 1 70 5 is_stmt 1 view .LVU53
  70:Src/can.c     ****     GPIO_InitStruct.Pull = GPIO_NOPULL;
 191              		.loc 1 70 26 is_stmt 0 view .LVU54
ARM GAS  C:\Users\ncer\AppData\Local\Temp\cct5ke7k.s 			page 6


 192 0052 0223     		movs	r3, #2
 193 0054 0493     		str	r3, [sp, #16]
  71:Src/can.c     ****     GPIO_InitStruct.Speed = GPIO_SPEED_FREQ_VERY_HIGH;
 194              		.loc 1 71 5 is_stmt 1 view .LVU55
  71:Src/can.c     ****     GPIO_InitStruct.Speed = GPIO_SPEED_FREQ_VERY_HIGH;
 195              		.loc 1 71 26 is_stmt 0 view .LVU56
 196 0056 0592     		str	r2, [sp, #20]
  72:Src/can.c     ****     GPIO_InitStruct.Alternate = GPIO_AF9_CAN1;
 197              		.loc 1 72 5 is_stmt 1 view .LVU57
  72:Src/can.c     ****     GPIO_InitStruct.Alternate = GPIO_AF9_CAN1;
 198              		.loc 1 72 27 is_stmt 0 view .LVU58
 199 0058 0323     		movs	r3, #3
 200 005a 0693     		str	r3, [sp, #24]
  73:Src/can.c     ****     HAL_GPIO_Init(GPIOB, &GPIO_InitStruct);
 201              		.loc 1 73 5 is_stmt 1 view .LVU59
  73:Src/can.c     ****     HAL_GPIO_Init(GPIOB, &GPIO_InitStruct);
 202              		.loc 1 73 31 is_stmt 0 view .LVU60
 203 005c 0923     		movs	r3, #9
 204 005e 0793     		str	r3, [sp, #28]
  74:Src/can.c     **** 
 205              		.loc 1 74 5 is_stmt 1 view .LVU61
 206 0060 03A9     		add	r1, sp, #12
 207 0062 0348     		ldr	r0, .L11+4
 208              	.LVL5:
  74:Src/can.c     **** 
 209              		.loc 1 74 5 is_stmt 0 view .LVU62
 210 0064 FFF7FEFF 		bl	HAL_GPIO_Init
 211              	.LVL6:
 212              		.loc 1 80 1 view .LVU63
 213 0068 D6E7     		b	.L7
 214              	.L12:
 215 006a 00BF     		.align	2
 216              	.L11:
 217 006c 00640040 		.word	1073767424
 218 0070 00040240 		.word	1073873920
 219              		.cfi_endproc
 220              	.LFE131:
 222              		.section	.text.HAL_CAN_MspDeInit,"ax",%progbits
 223              		.align	1
 224              		.global	HAL_CAN_MspDeInit
 225              		.syntax unified
 226              		.thumb
 227              		.thumb_func
 228              		.fpu fpv4-sp-d16
 230              	HAL_CAN_MspDeInit:
 231              	.LVL7:
 232              	.LFB132:
  81:Src/can.c     **** 
  82:Src/can.c     **** void HAL_CAN_MspDeInit(CAN_HandleTypeDef* canHandle)
  83:Src/can.c     **** {
 233              		.loc 1 83 1 is_stmt 1 view -0
 234              		.cfi_startproc
 235              		@ args = 0, pretend = 0, frame = 0
 236              		@ frame_needed = 0, uses_anonymous_args = 0
 237              		.loc 1 83 1 is_stmt 0 view .LVU65
 238 0000 08B5     		push	{r3, lr}
 239              	.LCFI5:
ARM GAS  C:\Users\ncer\AppData\Local\Temp\cct5ke7k.s 			page 7


 240              		.cfi_def_cfa_offset 8
 241              		.cfi_offset 3, -8
 242              		.cfi_offset 14, -4
  84:Src/can.c     **** 
  85:Src/can.c     ****   if(canHandle->Instance==CAN1)
 243              		.loc 1 85 3 is_stmt 1 view .LVU66
 244              		.loc 1 85 15 is_stmt 0 view .LVU67
 245 0002 0268     		ldr	r2, [r0]
 246              		.loc 1 85 5 view .LVU68
 247 0004 074B     		ldr	r3, .L17
 248 0006 9A42     		cmp	r2, r3
 249 0008 00D0     		beq	.L16
 250              	.LVL8:
 251              	.L13:
  86:Src/can.c     ****   {
  87:Src/can.c     ****   /* USER CODE BEGIN CAN1_MspDeInit 0 */
  88:Src/can.c     **** 
  89:Src/can.c     ****   /* USER CODE END CAN1_MspDeInit 0 */
  90:Src/can.c     ****     /* Peripheral clock disable */
  91:Src/can.c     ****     __HAL_RCC_CAN1_CLK_DISABLE();
  92:Src/can.c     ****   
  93:Src/can.c     ****     /**CAN1 GPIO Configuration    
  94:Src/can.c     ****     PB8     ------> CAN1_RX
  95:Src/can.c     ****     PB9     ------> CAN1_TX 
  96:Src/can.c     ****     */
  97:Src/can.c     ****     HAL_GPIO_DeInit(GPIOB, GPIO_PIN_8|GPIO_PIN_9);
  98:Src/can.c     **** 
  99:Src/can.c     ****   /* USER CODE BEGIN CAN1_MspDeInit 1 */
 100:Src/can.c     **** 
 101:Src/can.c     ****   /* USER CODE END CAN1_MspDeInit 1 */
 102:Src/can.c     ****   }
 103:Src/can.c     **** } 
 252              		.loc 1 103 1 view .LVU69
 253 000a 08BD     		pop	{r3, pc}
 254              	.LVL9:
 255              	.L16:
  91:Src/can.c     ****   
 256              		.loc 1 91 5 is_stmt 1 view .LVU70
 257 000c 064A     		ldr	r2, .L17+4
 258 000e 136C     		ldr	r3, [r2, #64]
 259 0010 23F00073 		bic	r3, r3, #33554432
 260 0014 1364     		str	r3, [r2, #64]
  97:Src/can.c     **** 
 261              		.loc 1 97 5 view .LVU71
 262 0016 4FF44071 		mov	r1, #768
 263 001a 0448     		ldr	r0, .L17+8
 264              	.LVL10:
  97:Src/can.c     **** 
 265              		.loc 1 97 5 is_stmt 0 view .LVU72
 266 001c FFF7FEFF 		bl	HAL_GPIO_DeInit
 267              	.LVL11:
 268              		.loc 1 103 1 view .LVU73
 269 0020 F3E7     		b	.L13
 270              	.L18:
 271 0022 00BF     		.align	2
 272              	.L17:
 273 0024 00640040 		.word	1073767424
ARM GAS  C:\Users\ncer\AppData\Local\Temp\cct5ke7k.s 			page 8


 274 0028 00380240 		.word	1073887232
 275 002c 00040240 		.word	1073873920
 276              		.cfi_endproc
 277              	.LFE132:
 279              		.comm	hcan1,40,4
 280              		.text
 281              	.Letext0:
 282              		.file 2 "c:\\arm_gcc\\arm-none-eabi\\include\\machine\\_default_types.h"
 283              		.file 3 "c:\\arm_gcc\\arm-none-eabi\\include\\sys\\_stdint.h"
 284              		.file 4 "Drivers/CMSIS/Include/core_cm4.h"
 285              		.file 5 "Drivers/CMSIS/Device/ST/STM32F4xx/Include/system_stm32f4xx.h"
 286              		.file 6 "Drivers/CMSIS/Device/ST/STM32F4xx/Include/stm32f405xx.h"
 287              		.file 7 "Drivers/CMSIS/Device/ST/STM32F4xx/Include/stm32f4xx.h"
 288              		.file 8 "Drivers/STM32F4xx_HAL_Driver/Inc/stm32f4xx_hal_def.h"
 289              		.file 9 "Drivers/STM32F4xx_HAL_Driver/Inc/stm32f4xx_hal_gpio.h"
 290              		.file 10 "Drivers/STM32F4xx_HAL_Driver/Inc/stm32f4xx_hal_can.h"
 291              		.file 11 "Drivers/STM32F4xx_HAL_Driver/Inc/stm32f4xx_hal.h"
 292              		.file 12 "Inc/can.h"
 293              		.file 13 "Inc/main.h"
ARM GAS  C:\Users\ncer\AppData\Local\Temp\cct5ke7k.s 			page 9

