ARM GAS  C:\Users\ncer\AppData\Local\Temp\cc11xOim.s 			page 1


   1              		.cpu cortex-m4
   2              		.eabi_attribute 27, 1
   3              		.eabi_attribute 28, 1
   4              		.eabi_attribute 20, 1
   5              		.eabi_attribute 21, 1
   6              		.eabi_attribute 23, 3
   7              		.eabi_attribute 24, 1
   8              		.eabi_attribute 25, 1
   9              		.eabi_attribute 26, 1
  10              		.eabi_attribute 30, 1
  11              		.eabi_attribute 34, 1
  12              		.eabi_attribute 18, 4
  13              		.file	"cmd_fun.c"
  14              		.text
  15              	.Ltext0:
  16              		.cfi_sections	.debug_frame
  17              		.section	.rodata.wave.str1.4,"aMS",%progbits,1
  18              		.align	2
  19              	.LC0:
  20 0000 4F4B202C 		.ascii	"OK ,wave = %d\015\012\000"
  20      77617665 
  20      203D2025 
  20      640D0A00 
  21              		.section	.text.wave,"ax",%progbits
  22              		.align	1
  23              		.global	wave
  24              		.arch armv7e-m
  25              		.syntax unified
  26              		.thumb
  27              		.thumb_func
  28              		.fpu fpv4-sp-d16
  30              	wave:
  31              	.LVL0:
  32              	.LFB140:
  33              		.file 1 "Src/cmd_fun.c"
   1:Src/cmd_fun.c **** #include "cmd_fun.h"
   2:Src/cmd_fun.c **** #include "command.h"
   3:Src/cmd_fun.c **** #include "uart_ext.h"
   4:Src/cmd_fun.c **** #include "foc.h"
   5:Src/cmd_fun.c **** #include "pid.h"
   6:Src/cmd_fun.c **** 
   7:Src/cmd_fun.c **** #define ERROR_PARAGRAM()      uprintf("error arg_num!\r\n"); return 
   8:Src/cmd_fun.c **** 
   9:Src/cmd_fun.c **** typedef struct{
  10:Src/cmd_fun.c ****   char * var_name;
  11:Src/cmd_fun.c ****   void * value_ptr;
  12:Src/cmd_fun.c **** }Var_Edit_Struct;
  13:Src/cmd_fun.c **** 
  14:Src/cmd_fun.c **** Var_Edit_Struct Var_List[]={
  15:Src/cmd_fun.c ****   //{"first",&First_Time_Check}
  16:Src/cmd_fun.c ****   {"id",&Id_Set},
  17:Src/cmd_fun.c ****   {"iq",&Iq_Set},
  18:Src/cmd_fun.c ****   {"sp",&Speed_Set},
  19:Src/cmd_fun.c ****   {"pos",&Position_Degree_Set},
  20:Src/cmd_fun.c ****   {"base_sp",&Base_Speed},
  21:Src/cmd_fun.c ****   {"sp_a",&Speed_Attitude},
  22:Src/cmd_fun.c ****   {"duty",&Base_Duty},
ARM GAS  C:\Users\ncer\AppData\Local\Temp\cc11xOim.s 			page 2


  23:Src/cmd_fun.c ****   {"duty_amp",&Duty_Amp},
  24:Src/cmd_fun.c ****   {"phi",&Phi},
  25:Src/cmd_fun.c ****   {"pos_off",&Position_Offset},
  26:Src/cmd_fun.c ****   #ifdef CAMERA_SUPPORT
  27:Src/cmd_fun.c ****   {"camera",&Camera_Catch_Angle}
  28:Src/cmd_fun.c ****   #endif
  29:Src/cmd_fun.c **** };
  30:Src/cmd_fun.c **** 
  31:Src/cmd_fun.c **** #define  STR(x) #x
  32:Src/cmd_fun.c **** 
  33:Src/cmd_fun.c **** volatile char * test_s = STR(Var_List);
  34:Src/cmd_fun.c **** volatile char * test_s2 = STR(test_s);
  35:Src/cmd_fun.c **** 
  36:Src/cmd_fun.c **** static void test(int arg_num,char **string_prams,float * arg){
  37:Src/cmd_fun.c ****   int i;
  38:Src/cmd_fun.c ****   uprintf("this is testkk\r\n");
  39:Src/cmd_fun.c ****   uprintf("i get %d args\r\n",arg_num);
  40:Src/cmd_fun.c ****   for(i=0;i<(arg_num&0xFF);++i){
  41:Src/cmd_fun.c ****     uprintf("one is %f\r\n",arg[i]);
  42:Src/cmd_fun.c ****   }
  43:Src/cmd_fun.c ****   for(i=0;i<(arg_num>>8);++i){
  44:Src/cmd_fun.c ****     uprintf("string_prams is %s\r\n",string_prams[i]);
  45:Src/cmd_fun.c ****   }
  46:Src/cmd_fun.c ****   uprintf("%s",test_s);
  47:Src/cmd_fun.c ****     uprintf("%s",test_s2);
  48:Src/cmd_fun.c **** }
  49:Src/cmd_fun.c **** 
  50:Src/cmd_fun.c **** void set_val(int arg_num,char ** s,float * args){
  51:Src/cmd_fun.c ****   void * edit_value;
  52:Src/cmd_fun.c ****   if(arg_num!=0x0201){
  53:Src/cmd_fun.c ****     uprintf("error arg_num!\r\n");
  54:Src/cmd_fun.c ****     return ;
  55:Src/cmd_fun.c ****   }
  56:Src/cmd_fun.c **** 
  57:Src/cmd_fun.c ****   for(int i=0;i<sizeof(Var_List)/sizeof(Var_Edit_Struct);++i){
  58:Src/cmd_fun.c ****     if(compare_string(Var_List[i].var_name,s[0])){
  59:Src/cmd_fun.c ****       edit_value=Var_List[i].value_ptr;
  60:Src/cmd_fun.c ****       break;
  61:Src/cmd_fun.c ****     }
  62:Src/cmd_fun.c ****   }
  63:Src/cmd_fun.c ****   
  64:Src/cmd_fun.c ****   if(compare_string(s[1],"u8")){
  65:Src/cmd_fun.c ****     *(uint8_t *)edit_value=(uint8_t)args[0];
  66:Src/cmd_fun.c ****     uprintf("ok set %s = %d\r\n",s[0],*(uint8_t *)edit_value);  
  67:Src/cmd_fun.c ****   }else if(compare_string(s[1],"int")){
  68:Src/cmd_fun.c ****     *(int16_t *)edit_value=(int16_t)args[0];
  69:Src/cmd_fun.c ****     uprintf("ok set %s = %d\r\n",s[0],*(int16_t *)edit_value);
  70:Src/cmd_fun.c ****   }else if(compare_string(s[1],"f")){
  71:Src/cmd_fun.c ****     *(float *)edit_value=args[0];
  72:Src/cmd_fun.c ****     uprintf("ok set %s = %f\r\n",s[0],*(float *)edit_value);
  73:Src/cmd_fun.c ****   }
  74:Src/cmd_fun.c **** }
  75:Src/cmd_fun.c **** 
  76:Src/cmd_fun.c **** 
  77:Src/cmd_fun.c **** 
  78:Src/cmd_fun.c **** 
  79:Src/cmd_fun.c **** /*
ARM GAS  C:\Users\ncer\AppData\Local\Temp\cc11xOim.s 			page 3


  80:Src/cmd_fun.c **** 下面定义用户需要的函数
  81:Src/cmd_fun.c **** */
  82:Src/cmd_fun.c **** 
  83:Src/cmd_fun.c **** 
  84:Src/cmd_fun.c **** 
  85:Src/cmd_fun.c **** extern void Set_to_Un(uint8_t t,Uvect_Mos target,float duty);
  86:Src/cmd_fun.c **** extern Uvect_Mos U4;
  87:Src/cmd_fun.c **** extern float Position_Degree;
  88:Src/cmd_fun.c **** #ifdef USE_GYRO
  89:Src/cmd_fun.c ****   extern PID_S Angle_PID;
  90:Src/cmd_fun.c **** #endif
  91:Src/cmd_fun.c **** 
  92:Src/cmd_fun.c **** void set_to_u4(int arg_num,char ** s,float * args){
  93:Src/cmd_fun.c ****   uint8_t temp_t;
  94:Src/cmd_fun.c ****   if(arg_num!=0x0001){
  95:Src/cmd_fun.c ****     return ;
  96:Src/cmd_fun.c ****   }
  97:Src/cmd_fun.c ****   temp_t=(uint8_t)args[0];
  98:Src/cmd_fun.c ****   Set_to_Un(temp_t,U4,0.5);
  99:Src/cmd_fun.c ****   HAL_Delay(5);
 100:Src/cmd_fun.c ****   uprintf_polling("OK set to us and keep %d ms\r\n",temp_t);
 101:Src/cmd_fun.c ****   uprintf_polling("the position is %f\r\n",Position_Degree);
 102:Src/cmd_fun.c **** }
 103:Src/cmd_fun.c **** extern void Test_Direction();
 104:Src/cmd_fun.c **** void test_direction(int arg_num,char **s,float * args){
 105:Src/cmd_fun.c ****   uprintf_polling("start to test direction!\r\n");
 106:Src/cmd_fun.c ****   Test_Direction();
 107:Src/cmd_fun.c **** 
 108:Src/cmd_fun.c **** }
 109:Src/cmd_fun.c **** 
 110:Src/cmd_fun.c **** extern void Detect_Encoder();
 111:Src/cmd_fun.c **** void detect(int arg_num,char **s,float *args){
 112:Src/cmd_fun.c ****   uprintf_polling("start to detect encoder!\r\n");
 113:Src/cmd_fun.c ****   Detect_Encoder();
 114:Src/cmd_fun.c **** }
 115:Src/cmd_fun.c **** 
 116:Src/cmd_fun.c **** extern uint8_t FOC_Flag;
 117:Src/cmd_fun.c **** void start(int arg_num,char **s,float *args){
 118:Src/cmd_fun.c ****   if(arg_num!=0x0001){
 119:Src/cmd_fun.c ****     Iq_PID.i=0;
 120:Src/cmd_fun.c ****     Id_PID.i=0;
 121:Src/cmd_fun.c ****     Speed_PID.i=0;
 122:Src/cmd_fun.c ****     Position_PID.i=0;
 123:Src/cmd_fun.c ****     #ifdef USE_GYRO
 124:Src/cmd_fun.c ****     Angle_PID.i=0;
 125:Src/cmd_fun.c ****     #endif
 126:Src/cmd_fun.c ****     FOC_Flag = !FOC_Flag;
 127:Src/cmd_fun.c ****     uprintf_polling("OK! flag=%d\r\n",FOC_Flag);
 128:Src/cmd_fun.c ****     return ;
 129:Src/cmd_fun.c ****   }
 130:Src/cmd_fun.c ****   if(args[0]>0){
 131:Src/cmd_fun.c ****     FOC_Flag=1;
 132:Src/cmd_fun.c ****   }else{
 133:Src/cmd_fun.c ****     FOC_Flag=0;
 134:Src/cmd_fun.c ****     Set_Vector(U0,0.1f);
 135:Src/cmd_fun.c ****   }
 136:Src/cmd_fun.c ****   uprintf_polling("OK! flag=%d\r\n",FOC_Flag);
ARM GAS  C:\Users\ncer\AppData\Local\Temp\cc11xOim.s 			page 4


 137:Src/cmd_fun.c **** }
 138:Src/cmd_fun.c **** 
 139:Src/cmd_fun.c **** /*
 140:Src/cmd_fun.c **** extern uint8_t Song_Start;
 141:Src/cmd_fun.c **** void song(int arg_num,char **s,float *args){
 142:Src/cmd_fun.c ****   Song_Start = !Song_Start;
 143:Src/cmd_fun.c ****   uprintf_polling("OK,song = %d\r\n",Song_Start);
 144:Src/cmd_fun.c **** }
 145:Src/cmd_fun.c **** */
 146:Src/cmd_fun.c **** 
 147:Src/cmd_fun.c **** #include "parameter.h"
 148:Src/cmd_fun.c **** void wrtie_param(int arg_num,char **s,float *args){
 149:Src/cmd_fun.c ****   Write_Parameter();
 150:Src/cmd_fun.c ****   uprintf("OK,Save Params\r\n");
 151:Src/cmd_fun.c **** }
 152:Src/cmd_fun.c **** 
 153:Src/cmd_fun.c **** #include "debug_utils.h"
 154:Src/cmd_fun.c **** void wave(int arg_num,char **s,float * args){
  34              		.loc 1 154 45 view -0
  35              		.cfi_startproc
  36              		@ args = 0, pretend = 0, frame = 0
  37              		@ frame_needed = 0, uses_anonymous_args = 0
  38              		.loc 1 154 45 is_stmt 0 view .LVU1
  39 0000 08B5     		push	{r3, lr}
  40              	.LCFI0:
  41              		.cfi_def_cfa_offset 8
  42              		.cfi_offset 3, -8
  43              		.cfi_offset 14, -4
 155:Src/cmd_fun.c ****   if(arg_num == 0x0000){
  44              		.loc 1 155 3 is_stmt 1 view .LVU2
  45              		.loc 1 155 5 is_stmt 0 view .LVU3
  46 0002 58B9     		cbnz	r0, .L2
 156:Src/cmd_fun.c ****     Wave_Flag = !Wave_Flag;
  47              		.loc 1 156 5 is_stmt 1 view .LVU4
  48              		.loc 1 156 17 is_stmt 0 view .LVU5
  49 0004 0B4A     		ldr	r2, .L5
  50              	.LVL1:
  51              		.loc 1 156 17 view .LVU6
  52 0006 1378     		ldrb	r3, [r2]	@ zero_extendqisi2
  53 0008 B3FA83F3 		clz	r3, r3
  54 000c 5B09     		lsrs	r3, r3, #5
  55              		.loc 1 156 15 view .LVU7
  56 000e 1370     		strb	r3, [r2]
  57              	.L3:
 157:Src/cmd_fun.c ****   }else if(arg_num==0x0001){
 158:Src/cmd_fun.c ****     Wave_ID = args[0];
 159:Src/cmd_fun.c ****   }
 160:Src/cmd_fun.c ****   uprintf("OK ,wave = %d\r\n",Wave_ID);
  58              		.loc 1 160 3 is_stmt 1 view .LVU8
  59 0010 094B     		ldr	r3, .L5+4
  60 0012 1978     		ldrb	r1, [r3]	@ zero_extendqisi2
  61              	.LVL2:
  62              		.loc 1 160 3 is_stmt 0 view .LVU9
  63 0014 0948     		ldr	r0, .L5+8
  64              	.LVL3:
  65              		.loc 1 160 3 view .LVU10
  66 0016 FFF7FEFF 		bl	uprintf
ARM GAS  C:\Users\ncer\AppData\Local\Temp\cc11xOim.s 			page 5


  67              	.LVL4:
 161:Src/cmd_fun.c **** }
  68              		.loc 1 161 1 view .LVU11
  69 001a 08BD     		pop	{r3, pc}
  70              	.LVL5:
  71              	.L2:
 157:Src/cmd_fun.c ****   }else if(arg_num==0x0001){
  72              		.loc 1 157 9 is_stmt 1 view .LVU12
 157:Src/cmd_fun.c ****   }else if(arg_num==0x0001){
  73              		.loc 1 157 11 is_stmt 0 view .LVU13
  74 001c 0128     		cmp	r0, #1
  75 001e F7D1     		bne	.L3
 158:Src/cmd_fun.c ****   }
  76              		.loc 1 158 5 is_stmt 1 view .LVU14
 158:Src/cmd_fun.c ****   }
  77              		.loc 1 158 19 is_stmt 0 view .LVU15
  78 0020 D2ED007A 		vldr.32	s15, [r2]
 158:Src/cmd_fun.c ****   }
  79              		.loc 1 158 13 view .LVU16
  80 0024 FCEEE77A 		vcvt.u32.f32	s15, s15
  81 0028 17EE903A 		vmov	r3, s15	@ int
  82 002c 024A     		ldr	r2, .L5+4
  83              	.LVL6:
 158:Src/cmd_fun.c ****   }
  84              		.loc 1 158 13 view .LVU17
  85 002e 1370     		strb	r3, [r2]
  86 0030 EEE7     		b	.L3
  87              	.L6:
  88 0032 00BF     		.align	2
  89              	.L5:
  90 0034 00000000 		.word	Wave_Flag
  91 0038 00000000 		.word	Wave_ID
  92 003c 00000000 		.word	.LC0
  93              		.cfi_endproc
  94              	.LFE140:
  96              		.global	__aeabi_f2d
  97              		.section	.rodata.position.str1.4,"aMS",%progbits,1
  98              		.align	2
  99              	.LC1:
 100 0000 706F7369 		.ascii	"position = %f\015\012\000"
 100      74696F6E 
 100      203D2025 
 100      660D0A00 
 101              		.section	.text.position,"ax",%progbits
 102              		.align	1
 103              		.global	position
 104              		.syntax unified
 105              		.thumb
 106              		.thumb_func
 107              		.fpu fpv4-sp-d16
 109              	position:
 110              	.LVL7:
 111              	.LFB142:
 162:Src/cmd_fun.c **** 
 163:Src/cmd_fun.c **** 
 164:Src/cmd_fun.c **** void set_PID(int arg_num,char ** s,float * args){
 165:Src/cmd_fun.c ****   PID_S * pid_s=0;
ARM GAS  C:\Users\ncer\AppData\Local\Temp\cc11xOim.s 			page 6


 166:Src/cmd_fun.c ****   float * kpkdki=0;
 167:Src/cmd_fun.c ****   if(arg_num!=0x0201){
 168:Src/cmd_fun.c ****       ERROR_PARAGRAM();
 169:Src/cmd_fun.c ****   }
 170:Src/cmd_fun.c ****   if(compare_string(s[0],"d")){
 171:Src/cmd_fun.c ****     pid_s=&Id_PID;
 172:Src/cmd_fun.c ****   }else if(compare_string(s[0],"q")){
 173:Src/cmd_fun.c ****     pid_s=&Iq_PID;
 174:Src/cmd_fun.c ****   }else if(compare_string(s[0],"sp")){
 175:Src/cmd_fun.c ****     pid_s=&Speed_PID;
 176:Src/cmd_fun.c ****   }else if(compare_string(s[0],"pos")){
 177:Src/cmd_fun.c ****     pid_s=&Position_PID;
 178:Src/cmd_fun.c ****   }
 179:Src/cmd_fun.c ****   #ifdef USE_GYRO
 180:Src/cmd_fun.c ****   else if(compare_string(s[0],"a")){
 181:Src/cmd_fun.c ****     pid_s= &Angle_PID;
 182:Src/cmd_fun.c ****   }
 183:Src/cmd_fun.c ****   #endif
 184:Src/cmd_fun.c **** 
 185:Src/cmd_fun.c **** 
 186:Src/cmd_fun.c ****   pid_s->i=0;
 187:Src/cmd_fun.c ****   if(compare_string(s[1],"p")){
 188:Src/cmd_fun.c ****     kpkdki=&(pid_s->KP);
 189:Src/cmd_fun.c ****   }else if(compare_string(s[1],"d")){
 190:Src/cmd_fun.c ****     kpkdki=&(pid_s->KD);
 191:Src/cmd_fun.c ****   }else if(compare_string(s[1],"i")){
 192:Src/cmd_fun.c ****     kpkdki=&(pid_s->KI);
 193:Src/cmd_fun.c ****   }
 194:Src/cmd_fun.c ****   *kpkdki=args[0];
 195:Src/cmd_fun.c ****   uprintf("ok set %s 's %s = %f\r\n",s[0],s[1],args[0]);
 196:Src/cmd_fun.c **** }
 197:Src/cmd_fun.c **** 
 198:Src/cmd_fun.c ****  #ifdef CAMERA_SUPPORT
 199:Src/cmd_fun.c **** void camera(int arg_num,char **s,float * args){
 200:Src/cmd_fun.c ****   CAMERA_Open = !CAMERA_Open;
 201:Src/cmd_fun.c **** }
 202:Src/cmd_fun.c **** #endif
 203:Src/cmd_fun.c **** 
 204:Src/cmd_fun.c **** void position(int arg_num,char **s,float *args){
 112              		.loc 1 204 48 is_stmt 1 view -0
 113              		.cfi_startproc
 114              		@ args = 0, pretend = 0, frame = 0
 115              		@ frame_needed = 0, uses_anonymous_args = 0
 116              		.loc 1 204 48 is_stmt 0 view .LVU19
 117 0000 08B5     		push	{r3, lr}
 118              	.LCFI1:
 119              		.cfi_def_cfa_offset 8
 120              		.cfi_offset 3, -8
 121              		.cfi_offset 14, -4
 205:Src/cmd_fun.c ****  uprintf("position = %f\r\n",Position_Degree);
 122              		.loc 1 205 2 is_stmt 1 view .LVU20
 123 0002 054B     		ldr	r3, .L9
 124 0004 1868     		ldr	r0, [r3]	@ float
 125              	.LVL8:
 126              		.loc 1 205 2 is_stmt 0 view .LVU21
 127 0006 FFF7FEFF 		bl	__aeabi_f2d
 128              	.LVL9:
ARM GAS  C:\Users\ncer\AppData\Local\Temp\cc11xOim.s 			page 7


 129              		.loc 1 205 2 view .LVU22
 130 000a 0246     		mov	r2, r0
 131 000c 0B46     		mov	r3, r1
 132 000e 0348     		ldr	r0, .L9+4
 133 0010 FFF7FEFF 		bl	uprintf
 134              	.LVL10:
 206:Src/cmd_fun.c **** }
 135              		.loc 1 206 1 view .LVU23
 136 0014 08BD     		pop	{r3, pc}
 137              	.L10:
 138 0016 00BF     		.align	2
 139              	.L9:
 140 0018 00000000 		.word	Position_Degree
 141 001c 00000000 		.word	.LC1
 142              		.cfi_endproc
 143              	.LFE142:
 145              		.section	.rodata.set_mode.str1.4,"aMS",%progbits,1
 146              		.align	2
 147              	.LC2:
 148 0000 6572726F 		.ascii	"error arg_num!\015\012\000"
 148      72206172 
 148      675F6E75 
 148      6D210D0A 
 148      00
 149 0011 000000   		.align	2
 150              	.LC3:
 151 0014 4F4B2073 		.ascii	"OK set board mode = %d\015\012\000"
 151      65742062 
 151      6F617264 
 151      206D6F64 
 151      65203D20 
 152              		.section	.text.set_mode,"ax",%progbits
 153              		.align	1
 154              		.global	set_mode
 155              		.syntax unified
 156              		.thumb
 157              		.thumb_func
 158              		.fpu fpv4-sp-d16
 160              	set_mode:
 161              	.LVL11:
 162              	.LFB143:
 207:Src/cmd_fun.c **** 
 208:Src/cmd_fun.c **** void set_mode(int arg_num,char **s,float *args){
 163              		.loc 1 208 48 is_stmt 1 view -0
 164              		.cfi_startproc
 165              		@ args = 0, pretend = 0, frame = 8
 166              		@ frame_needed = 0, uses_anonymous_args = 0
 167              		.loc 1 208 48 is_stmt 0 view .LVU25
 168 0000 00B5     		push	{lr}
 169              	.LCFI2:
 170              		.cfi_def_cfa_offset 4
 171              		.cfi_offset 14, -4
 172 0002 83B0     		sub	sp, sp, #12
 173              	.LCFI3:
 174              		.cfi_def_cfa_offset 16
 209:Src/cmd_fun.c ****   if(arg_num!=0x0001){
 175              		.loc 1 209 3 is_stmt 1 view .LVU26
ARM GAS  C:\Users\ncer\AppData\Local\Temp\cc11xOim.s 			page 8


 176              		.loc 1 209 5 is_stmt 0 view .LVU27
 177 0004 0128     		cmp	r0, #1
 178 0006 11D1     		bne	.L16
 210:Src/cmd_fun.c ****     ERROR_PARAGRAM();
 211:Src/cmd_fun.c ****   }
 212:Src/cmd_fun.c ****   uint8_t temp = (uint8_t)args[0];
 179              		.loc 1 212 3 is_stmt 1 view .LVU28
 180              		.loc 1 212 31 is_stmt 0 view .LVU29
 181 0008 D2ED007A 		vldr.32	s15, [r2]
 182              		.loc 1 212 11 view .LVU30
 183 000c FCEEE77A 		vcvt.u32.f32	s15, s15
 184 0010 CDED017A 		vstr.32	s15, [sp, #4]	@ int
 185 0014 9DF80410 		ldrb	r1, [sp, #4]	@ zero_extendqisi2
 186              	.LVL12:
 213:Src/cmd_fun.c ****   if(temp>=LAST_MODE){
 187              		.loc 1 213 3 is_stmt 1 view .LVU31
 188              		.loc 1 213 5 is_stmt 0 view .LVU32
 189 0018 0629     		cmp	r1, #6
 190 001a 0BD8     		bhi	.L17
 214:Src/cmd_fun.c ****     ERROR_PARAGRAM();
 215:Src/cmd_fun.c ****   }else{
 216:Src/cmd_fun.c ****     Board_Mode= temp;
 191              		.loc 1 216 5 is_stmt 1 view .LVU33
 192              		.loc 1 216 15 is_stmt 0 view .LVU34
 193 001c 074B     		ldr	r3, .L18
 194 001e 1970     		strb	r1, [r3]
 217:Src/cmd_fun.c ****     uprintf("OK set board mode = %d\r\n",Board_Mode);
 195              		.loc 1 217 5 is_stmt 1 view .LVU35
 196 0020 0748     		ldr	r0, .L18+4
 197              	.LVL13:
 198              		.loc 1 217 5 is_stmt 0 view .LVU36
 199 0022 FFF7FEFF 		bl	uprintf
 200              	.LVL14:
 201              	.L11:
 218:Src/cmd_fun.c ****   }
 219:Src/cmd_fun.c **** }
 202              		.loc 1 219 1 view .LVU37
 203 0026 03B0     		add	sp, sp, #12
 204              	.LCFI4:
 205              		.cfi_remember_state
 206              		.cfi_def_cfa_offset 4
 207              		@ sp needed
 208 0028 5DF804FB 		ldr	pc, [sp], #4
 209              	.LVL15:
 210              	.L16:
 211              	.LCFI5:
 212              		.cfi_restore_state
 210:Src/cmd_fun.c ****   }
 213              		.loc 1 210 5 is_stmt 1 view .LVU38
 214 002c 0548     		ldr	r0, .L18+8
 215              	.LVL16:
 210:Src/cmd_fun.c ****   }
 216              		.loc 1 210 5 is_stmt 0 view .LVU39
 217 002e FFF7FEFF 		bl	uprintf
 218              	.LVL17:
 210:Src/cmd_fun.c ****   }
 219              		.loc 1 210 5 is_stmt 1 view .LVU40
ARM GAS  C:\Users\ncer\AppData\Local\Temp\cc11xOim.s 			page 9


 220 0032 F8E7     		b	.L11
 221              	.LVL18:
 222              	.L17:
 214:Src/cmd_fun.c ****   }else{
 223              		.loc 1 214 5 view .LVU41
 224 0034 0348     		ldr	r0, .L18+8
 225              	.LVL19:
 214:Src/cmd_fun.c ****   }else{
 226              		.loc 1 214 5 is_stmt 0 view .LVU42
 227 0036 FFF7FEFF 		bl	uprintf
 228              	.LVL20:
 214:Src/cmd_fun.c ****   }else{
 229              		.loc 1 214 5 is_stmt 1 view .LVU43
 230 003a F4E7     		b	.L11
 231              	.L19:
 232              		.align	2
 233              	.L18:
 234 003c 00000000 		.word	Board_Mode
 235 0040 14000000 		.word	.LC3
 236 0044 00000000 		.word	.LC2
 237              		.cfi_endproc
 238              	.LFE143:
 240              		.section	.rodata.test.str1.4,"aMS",%progbits,1
 241              		.align	2
 242              	.LC4:
 243 0000 74686973 		.ascii	"this is testkk\015\012\000"
 243      20697320 
 243      74657374 
 243      6B6B0D0A 
 243      00
 244 0011 000000   		.align	2
 245              	.LC5:
 246 0014 69206765 		.ascii	"i get %d args\015\012\000"
 246      74202564 
 246      20617267 
 246      730D0A00 
 247              		.align	2
 248              	.LC6:
 249 0024 6F6E6520 		.ascii	"one is %f\015\012\000"
 249      69732025 
 249      660D0A00 
 250              		.align	2
 251              	.LC7:
 252 0030 73747269 		.ascii	"string_prams is %s\015\012\000"
 252      6E675F70 
 252      72616D73 
 252      20697320 
 252      25730D0A 
 253 0045 000000   		.align	2
 254              	.LC8:
 255 0048 257300   		.ascii	"%s\000"
 256              		.section	.text.test,"ax",%progbits
 257              		.align	1
 258              		.syntax unified
 259              		.thumb
 260              		.thumb_func
 261              		.fpu fpv4-sp-d16
ARM GAS  C:\Users\ncer\AppData\Local\Temp\cc11xOim.s 			page 10


 263              	test:
 264              	.LVL21:
 265              	.LFB133:
  36:Src/cmd_fun.c ****   int i;
 266              		.loc 1 36 62 view -0
 267              		.cfi_startproc
 268              		@ args = 0, pretend = 0, frame = 0
 269              		@ frame_needed = 0, uses_anonymous_args = 0
  36:Src/cmd_fun.c ****   int i;
 270              		.loc 1 36 62 is_stmt 0 view .LVU45
 271 0000 F8B5     		push	{r3, r4, r5, r6, r7, lr}
 272              	.LCFI6:
 273              		.cfi_def_cfa_offset 24
 274              		.cfi_offset 3, -24
 275              		.cfi_offset 4, -20
 276              		.cfi_offset 5, -16
 277              		.cfi_offset 6, -12
 278              		.cfi_offset 7, -8
 279              		.cfi_offset 14, -4
 280 0002 0546     		mov	r5, r0
 281 0004 0E46     		mov	r6, r1
 282 0006 1746     		mov	r7, r2
  37:Src/cmd_fun.c ****   uprintf("this is testkk\r\n");
 283              		.loc 1 37 3 is_stmt 1 view .LVU46
  38:Src/cmd_fun.c ****   uprintf("i get %d args\r\n",arg_num);
 284              		.loc 1 38 3 view .LVU47
 285 0008 1648     		ldr	r0, .L27
 286              	.LVL22:
  38:Src/cmd_fun.c ****   uprintf("i get %d args\r\n",arg_num);
 287              		.loc 1 38 3 is_stmt 0 view .LVU48
 288 000a FFF7FEFF 		bl	uprintf
 289              	.LVL23:
  39:Src/cmd_fun.c ****   for(i=0;i<(arg_num&0xFF);++i){
 290              		.loc 1 39 3 is_stmt 1 view .LVU49
 291 000e 2946     		mov	r1, r5
 292 0010 1548     		ldr	r0, .L27+4
 293 0012 FFF7FEFF 		bl	uprintf
 294              	.LVL24:
  40:Src/cmd_fun.c ****     uprintf("one is %f\r\n",arg[i]);
 295              		.loc 1 40 3 view .LVU50
  40:Src/cmd_fun.c ****     uprintf("one is %f\r\n",arg[i]);
 296              		.loc 1 40 8 is_stmt 0 view .LVU51
 297 0016 0024     		movs	r4, #0
 298              	.LVL25:
 299              	.L21:
  40:Src/cmd_fun.c ****     uprintf("one is %f\r\n",arg[i]);
 300              		.loc 1 40 11 is_stmt 1 discriminator 1 view .LVU52
  40:Src/cmd_fun.c ****     uprintf("one is %f\r\n",arg[i]);
 301              		.loc 1 40 21 is_stmt 0 discriminator 1 view .LVU53
 302 0018 EBB2     		uxtb	r3, r5
  40:Src/cmd_fun.c ****     uprintf("one is %f\r\n",arg[i]);
 303              		.loc 1 40 3 discriminator 1 view .LVU54
 304 001a A342     		cmp	r3, r4
 305 001c 0BDD     		ble	.L26
  41:Src/cmd_fun.c ****   }
 306              		.loc 1 41 5 is_stmt 1 discriminator 3 view .LVU55
  41:Src/cmd_fun.c ****   }
ARM GAS  C:\Users\ncer\AppData\Local\Temp\cc11xOim.s 			page 11


 307              		.loc 1 41 32 is_stmt 0 discriminator 3 view .LVU56
 308 001e 07EB8403 		add	r3, r7, r4, lsl #2
  41:Src/cmd_fun.c ****   }
 309              		.loc 1 41 5 discriminator 3 view .LVU57
 310 0022 1868     		ldr	r0, [r3]	@ float
 311 0024 FFF7FEFF 		bl	__aeabi_f2d
 312              	.LVL26:
 313 0028 0246     		mov	r2, r0
 314 002a 0B46     		mov	r3, r1
 315 002c 0F48     		ldr	r0, .L27+8
 316 002e FFF7FEFF 		bl	uprintf
 317              	.LVL27:
  40:Src/cmd_fun.c ****     uprintf("one is %f\r\n",arg[i]);
 318              		.loc 1 40 28 is_stmt 1 discriminator 3 view .LVU58
 319 0032 0134     		adds	r4, r4, #1
 320              	.LVL28:
  40:Src/cmd_fun.c ****     uprintf("one is %f\r\n",arg[i]);
 321              		.loc 1 40 28 is_stmt 0 discriminator 3 view .LVU59
 322 0034 F0E7     		b	.L21
 323              	.L26:
  43:Src/cmd_fun.c ****     uprintf("string_prams is %s\r\n",string_prams[i]);
 324              		.loc 1 43 8 view .LVU60
 325 0036 0024     		movs	r4, #0
 326              	.LVL29:
  43:Src/cmd_fun.c ****     uprintf("string_prams is %s\r\n",string_prams[i]);
 327              		.loc 1 43 8 view .LVU61
 328 0038 05E0     		b	.L23
 329              	.LVL30:
 330              	.L24:
  44:Src/cmd_fun.c ****   }
 331              		.loc 1 44 5 is_stmt 1 discriminator 3 view .LVU62
 332 003a 56F82410 		ldr	r1, [r6, r4, lsl #2]
 333 003e 0C48     		ldr	r0, .L27+12
 334 0040 FFF7FEFF 		bl	uprintf
 335              	.LVL31:
  43:Src/cmd_fun.c ****     uprintf("string_prams is %s\r\n",string_prams[i]);
 336              		.loc 1 43 26 discriminator 3 view .LVU63
 337 0044 0134     		adds	r4, r4, #1
 338              	.LVL32:
 339              	.L23:
  43:Src/cmd_fun.c ****     uprintf("string_prams is %s\r\n",string_prams[i]);
 340              		.loc 1 43 11 discriminator 1 view .LVU64
  43:Src/cmd_fun.c ****     uprintf("string_prams is %s\r\n",string_prams[i]);
 341              		.loc 1 43 3 is_stmt 0 discriminator 1 view .LVU65
 342 0046 B4EB252F 		cmp	r4, r5, asr #8
 343 004a F6DB     		blt	.L24
  46:Src/cmd_fun.c ****     uprintf("%s",test_s2);
 344              		.loc 1 46 3 is_stmt 1 view .LVU66
 345 004c 094C     		ldr	r4, .L27+16
 346              	.LVL33:
  46:Src/cmd_fun.c ****     uprintf("%s",test_s2);
 347              		.loc 1 46 3 is_stmt 0 view .LVU67
 348 004e 0A4B     		ldr	r3, .L27+20
 349 0050 1968     		ldr	r1, [r3]
 350 0052 2046     		mov	r0, r4
 351 0054 FFF7FEFF 		bl	uprintf
 352              	.LVL34:
ARM GAS  C:\Users\ncer\AppData\Local\Temp\cc11xOim.s 			page 12


  47:Src/cmd_fun.c **** }
 353              		.loc 1 47 5 is_stmt 1 view .LVU68
 354 0058 084B     		ldr	r3, .L27+24
 355 005a 1968     		ldr	r1, [r3]
 356 005c 2046     		mov	r0, r4
 357 005e FFF7FEFF 		bl	uprintf
 358              	.LVL35:
  48:Src/cmd_fun.c **** 
 359              		.loc 1 48 1 is_stmt 0 view .LVU69
 360 0062 F8BD     		pop	{r3, r4, r5, r6, r7, pc}
 361              	.LVL36:
 362              	.L28:
  48:Src/cmd_fun.c **** 
 363              		.loc 1 48 1 view .LVU70
 364              		.align	2
 365              	.L27:
 366 0064 00000000 		.word	.LC4
 367 0068 14000000 		.word	.LC5
 368 006c 24000000 		.word	.LC6
 369 0070 30000000 		.word	.LC7
 370 0074 48000000 		.word	.LC8
 371 0078 00000000 		.word	.LANCHOR0
 372 007c 00000000 		.word	.LANCHOR1
 373              		.cfi_endproc
 374              	.LFE133:
 376              		.section	.rodata.set_val.str1.4,"aMS",%progbits,1
 377              		.align	2
 378              	.LC9:
 379 0000 753800   		.ascii	"u8\000"
 380 0003 00       		.align	2
 381              	.LC10:
 382 0004 6F6B2073 		.ascii	"ok set %s = %d\015\012\000"
 382      65742025 
 382      73203D20 
 382      25640D0A 
 382      00
 383 0015 000000   		.align	2
 384              	.LC11:
 385 0018 696E7400 		.ascii	"int\000"
 386              		.align	2
 387              	.LC12:
 388 001c 6600     		.ascii	"f\000"
 389 001e 0000     		.align	2
 390              	.LC13:
 391 0020 6F6B2073 		.ascii	"ok set %s = %f\015\012\000"
 391      65742025 
 391      73203D20 
 391      25660D0A 
 391      00
 392              		.section	.text.set_val,"ax",%progbits
 393              		.align	1
 394              		.global	set_val
 395              		.syntax unified
 396              		.thumb
 397              		.thumb_func
 398              		.fpu fpv4-sp-d16
 400              	set_val:
ARM GAS  C:\Users\ncer\AppData\Local\Temp\cc11xOim.s 			page 13


 401              	.LVL37:
 402              	.LFB134:
  50:Src/cmd_fun.c ****   void * edit_value;
 403              		.loc 1 50 49 is_stmt 1 view -0
 404              		.cfi_startproc
 405              		@ args = 0, pretend = 0, frame = 8
 406              		@ frame_needed = 0, uses_anonymous_args = 0
  50:Src/cmd_fun.c ****   void * edit_value;
 407              		.loc 1 50 49 is_stmt 0 view .LVU72
 408 0000 F0B5     		push	{r4, r5, r6, r7, lr}
 409              	.LCFI7:
 410              		.cfi_def_cfa_offset 20
 411              		.cfi_offset 4, -20
 412              		.cfi_offset 5, -16
 413              		.cfi_offset 6, -12
 414              		.cfi_offset 7, -8
 415              		.cfi_offset 14, -4
 416 0002 83B0     		sub	sp, sp, #12
 417              	.LCFI8:
 418              		.cfi_def_cfa_offset 32
  51:Src/cmd_fun.c ****   if(arg_num!=0x0201){
 419              		.loc 1 51 3 is_stmt 1 view .LVU73
  52:Src/cmd_fun.c ****     uprintf("error arg_num!\r\n");
 420              		.loc 1 52 3 view .LVU74
  52:Src/cmd_fun.c ****     uprintf("error arg_num!\r\n");
 421              		.loc 1 52 5 is_stmt 0 view .LVU75
 422 0004 40F20123 		movw	r3, #513
 423 0008 9842     		cmp	r0, r3
 424 000a 0DD1     		bne	.L39
 425 000c 0D46     		mov	r5, r1
 426 000e 1746     		mov	r7, r2
 427              	.LBB2:
  57:Src/cmd_fun.c ****     if(compare_string(Var_List[i].var_name,s[0])){
 428              		.loc 1 57 11 view .LVU76
 429 0010 0024     		movs	r4, #0
 430              	.LVL38:
 431              	.L30:
  57:Src/cmd_fun.c ****     if(compare_string(Var_List[i].var_name,s[0])){
 432              		.loc 1 57 15 is_stmt 1 discriminator 1 view .LVU77
  57:Src/cmd_fun.c ****     if(compare_string(Var_List[i].var_name,s[0])){
 433              		.loc 1 57 3 is_stmt 0 discriminator 1 view .LVU78
 434 0012 092C     		cmp	r4, #9
 435 0014 10D8     		bhi	.L33
  58:Src/cmd_fun.c ****       edit_value=Var_List[i].value_ptr;
 436              		.loc 1 58 5 is_stmt 1 view .LVU79
  58:Src/cmd_fun.c ****       edit_value=Var_List[i].value_ptr;
 437              		.loc 1 58 8 is_stmt 0 view .LVU80
 438 0016 2968     		ldr	r1, [r5]
 439 0018 234B     		ldr	r3, .L41
 440 001a 53F83400 		ldr	r0, [r3, r4, lsl #3]
 441 001e FFF7FEFF 		bl	compare_string
 442              	.LVL39:
  58:Src/cmd_fun.c ****       edit_value=Var_List[i].value_ptr;
 443              		.loc 1 58 7 view .LVU81
 444 0022 28B9     		cbnz	r0, .L40
  57:Src/cmd_fun.c ****     if(compare_string(Var_List[i].var_name,s[0])){
 445              		.loc 1 57 58 is_stmt 1 discriminator 2 view .LVU82
ARM GAS  C:\Users\ncer\AppData\Local\Temp\cc11xOim.s 			page 14


 446 0024 0134     		adds	r4, r4, #1
 447              	.LVL40:
  57:Src/cmd_fun.c ****     if(compare_string(Var_List[i].var_name,s[0])){
 448              		.loc 1 57 58 is_stmt 0 discriminator 2 view .LVU83
 449 0026 F4E7     		b	.L30
 450              	.LVL41:
 451              	.L39:
  57:Src/cmd_fun.c ****     if(compare_string(Var_List[i].var_name,s[0])){
 452              		.loc 1 57 58 discriminator 2 view .LVU84
 453              	.LBE2:
  53:Src/cmd_fun.c ****     return ;
 454              		.loc 1 53 5 is_stmt 1 view .LVU85
 455 0028 2048     		ldr	r0, .L41+4
 456              	.LVL42:
  53:Src/cmd_fun.c ****     return ;
 457              		.loc 1 53 5 is_stmt 0 view .LVU86
 458 002a FFF7FEFF 		bl	uprintf
 459              	.LVL43:
  54:Src/cmd_fun.c ****   }
 460              		.loc 1 54 5 is_stmt 1 view .LVU87
 461 002e 15E0     		b	.L29
 462              	.LVL44:
 463              	.L40:
 464              	.LBB3:
  59:Src/cmd_fun.c ****       break;
 465              		.loc 1 59 7 view .LVU88
  59:Src/cmd_fun.c ****       break;
 466              		.loc 1 59 17 is_stmt 0 view .LVU89
 467 0030 1D4B     		ldr	r3, .L41
 468 0032 03EBC404 		add	r4, r3, r4, lsl #3
 469              	.LVL45:
  59:Src/cmd_fun.c ****       break;
 470              		.loc 1 59 17 view .LVU90
 471 0036 6668     		ldr	r6, [r4, #4]
 472              	.LVL46:
  60:Src/cmd_fun.c ****     }
 473              		.loc 1 60 7 is_stmt 1 view .LVU91
 474              	.L33:
  60:Src/cmd_fun.c ****     }
 475              		.loc 1 60 7 is_stmt 0 view .LVU92
 476              	.LBE3:
  64:Src/cmd_fun.c ****     *(uint8_t *)edit_value=(uint8_t)args[0];
 477              		.loc 1 64 3 is_stmt 1 view .LVU93
  64:Src/cmd_fun.c ****     *(uint8_t *)edit_value=(uint8_t)args[0];
 478              		.loc 1 64 6 is_stmt 0 view .LVU94
 479 0038 1D49     		ldr	r1, .L41+8
 480 003a 6868     		ldr	r0, [r5, #4]
 481 003c FFF7FEFF 		bl	compare_string
 482              	.LVL47:
  64:Src/cmd_fun.c ****     *(uint8_t *)edit_value=(uint8_t)args[0];
 483              		.loc 1 64 5 view .LVU95
 484 0040 70B1     		cbz	r0, .L35
  65:Src/cmd_fun.c ****     uprintf("ok set %s = %d\r\n",s[0],*(uint8_t *)edit_value);  
 485              		.loc 1 65 5 is_stmt 1 view .LVU96
  65:Src/cmd_fun.c ****     uprintf("ok set %s = %d\r\n",s[0],*(uint8_t *)edit_value);  
 486              		.loc 1 65 41 is_stmt 0 view .LVU97
 487 0042 D7ED007A 		vldr.32	s15, [r7]
ARM GAS  C:\Users\ncer\AppData\Local\Temp\cc11xOim.s 			page 15


  65:Src/cmd_fun.c ****     uprintf("ok set %s = %d\r\n",s[0],*(uint8_t *)edit_value);  
 488              		.loc 1 65 28 view .LVU98
 489 0046 FCEEE77A 		vcvt.u32.f32	s15, s15
 490 004a CDED017A 		vstr.32	s15, [sp, #4]	@ int
 491 004e 9DF80420 		ldrb	r2, [sp, #4]	@ zero_extendqisi2
  65:Src/cmd_fun.c ****     uprintf("ok set %s = %d\r\n",s[0],*(uint8_t *)edit_value);  
 492              		.loc 1 65 27 view .LVU99
 493 0052 3270     		strb	r2, [r6]
  66:Src/cmd_fun.c ****   }else if(compare_string(s[1],"int")){
 494              		.loc 1 66 5 is_stmt 1 view .LVU100
 495 0054 2968     		ldr	r1, [r5]
 496 0056 1748     		ldr	r0, .L41+12
 497 0058 FFF7FEFF 		bl	uprintf
 498              	.LVL48:
 499              	.L29:
  74:Src/cmd_fun.c **** 
 500              		.loc 1 74 1 is_stmt 0 view .LVU101
 501 005c 03B0     		add	sp, sp, #12
 502              	.LCFI9:
 503              		.cfi_remember_state
 504              		.cfi_def_cfa_offset 20
 505              		@ sp needed
 506 005e F0BD     		pop	{r4, r5, r6, r7, pc}
 507              	.LVL49:
 508              	.L35:
 509              	.LCFI10:
 510              		.cfi_restore_state
  67:Src/cmd_fun.c ****     *(int16_t *)edit_value=(int16_t)args[0];
 511              		.loc 1 67 9 is_stmt 1 view .LVU102
  67:Src/cmd_fun.c ****     *(int16_t *)edit_value=(int16_t)args[0];
 512              		.loc 1 67 12 is_stmt 0 view .LVU103
 513 0060 1549     		ldr	r1, .L41+16
 514 0062 6868     		ldr	r0, [r5, #4]
 515 0064 FFF7FEFF 		bl	compare_string
 516              	.LVL50:
  67:Src/cmd_fun.c ****     *(int16_t *)edit_value=(int16_t)args[0];
 517              		.loc 1 67 11 view .LVU104
 518 0068 60B1     		cbz	r0, .L36
  68:Src/cmd_fun.c ****     uprintf("ok set %s = %d\r\n",s[0],*(int16_t *)edit_value);
 519              		.loc 1 68 5 is_stmt 1 view .LVU105
  68:Src/cmd_fun.c ****     uprintf("ok set %s = %d\r\n",s[0],*(int16_t *)edit_value);
 520              		.loc 1 68 41 is_stmt 0 view .LVU106
 521 006a D7ED007A 		vldr.32	s15, [r7]
  68:Src/cmd_fun.c ****     uprintf("ok set %s = %d\r\n",s[0],*(int16_t *)edit_value);
 522              		.loc 1 68 28 view .LVU107
 523 006e FDEEE77A 		vcvt.s32.f32	s15, s15
 524 0072 17EE903A 		vmov	r3, s15	@ int
 525 0076 1AB2     		sxth	r2, r3
  68:Src/cmd_fun.c ****     uprintf("ok set %s = %d\r\n",s[0],*(int16_t *)edit_value);
 526              		.loc 1 68 27 view .LVU108
 527 0078 3280     		strh	r2, [r6]	@ movhi
  69:Src/cmd_fun.c ****   }else if(compare_string(s[1],"f")){
 528              		.loc 1 69 5 is_stmt 1 view .LVU109
 529 007a 2968     		ldr	r1, [r5]
 530 007c 0D48     		ldr	r0, .L41+12
 531 007e FFF7FEFF 		bl	uprintf
 532              	.LVL51:
ARM GAS  C:\Users\ncer\AppData\Local\Temp\cc11xOim.s 			page 16


 533 0082 EBE7     		b	.L29
 534              	.L36:
  70:Src/cmd_fun.c ****     *(float *)edit_value=args[0];
 535              		.loc 1 70 9 view .LVU110
  70:Src/cmd_fun.c ****     *(float *)edit_value=args[0];
 536              		.loc 1 70 12 is_stmt 0 view .LVU111
 537 0084 0D49     		ldr	r1, .L41+20
 538 0086 6868     		ldr	r0, [r5, #4]
 539 0088 FFF7FEFF 		bl	compare_string
 540              	.LVL52:
  70:Src/cmd_fun.c ****     *(float *)edit_value=args[0];
 541              		.loc 1 70 11 view .LVU112
 542 008c 0028     		cmp	r0, #0
 543 008e E5D0     		beq	.L29
  71:Src/cmd_fun.c ****     uprintf("ok set %s = %f\r\n",s[0],*(float *)edit_value);
 544              		.loc 1 71 5 is_stmt 1 view .LVU113
  71:Src/cmd_fun.c ****     uprintf("ok set %s = %f\r\n",s[0],*(float *)edit_value);
 545              		.loc 1 71 30 is_stmt 0 view .LVU114
 546 0090 3868     		ldr	r0, [r7]	@ float
  71:Src/cmd_fun.c ****     uprintf("ok set %s = %f\r\n",s[0],*(float *)edit_value);
 547              		.loc 1 71 25 view .LVU115
 548 0092 3060     		str	r0, [r6]	@ float
  72:Src/cmd_fun.c ****   }
 549              		.loc 1 72 5 is_stmt 1 view .LVU116
 550 0094 FFF7FEFF 		bl	__aeabi_f2d
 551              	.LVL53:
 552 0098 0246     		mov	r2, r0
 553 009a 0B46     		mov	r3, r1
 554 009c 2968     		ldr	r1, [r5]
 555 009e 0848     		ldr	r0, .L41+24
 556 00a0 FFF7FEFF 		bl	uprintf
 557              	.LVL54:
 558 00a4 DAE7     		b	.L29
 559              	.L42:
 560 00a6 00BF     		.align	2
 561              	.L41:
 562 00a8 00000000 		.word	.LANCHOR2
 563 00ac 00000000 		.word	.LC2
 564 00b0 00000000 		.word	.LC9
 565 00b4 04000000 		.word	.LC10
 566 00b8 18000000 		.word	.LC11
 567 00bc 1C000000 		.word	.LC12
 568 00c0 20000000 		.word	.LC13
 569              		.cfi_endproc
 570              	.LFE134:
 572              		.section	.rodata.set_PID.str1.4,"aMS",%progbits,1
 573              		.align	2
 574              	.LC14:
 575 0000 6400     		.ascii	"d\000"
 576 0002 0000     		.align	2
 577              	.LC15:
 578 0004 7100     		.ascii	"q\000"
 579 0006 0000     		.align	2
 580              	.LC16:
 581 0008 737000   		.ascii	"sp\000"
 582 000b 00       		.align	2
 583              	.LC17:
ARM GAS  C:\Users\ncer\AppData\Local\Temp\cc11xOim.s 			page 17


 584 000c 706F7300 		.ascii	"pos\000"
 585              		.align	2
 586              	.LC18:
 587 0010 7000     		.ascii	"p\000"
 588 0012 0000     		.align	2
 589              	.LC19:
 590 0014 6900     		.ascii	"i\000"
 591 0016 0000     		.align	2
 592              	.LC20:
 593 0018 6F6B2073 		.ascii	"ok set %s 's %s = %f\015\012\000"
 593      65742025 
 593      73202773 
 593      20257320 
 593      3D202566 
 594              		.section	.text.set_PID,"ax",%progbits
 595              		.align	1
 596              		.global	set_PID
 597              		.syntax unified
 598              		.thumb
 599              		.thumb_func
 600              		.fpu fpv4-sp-d16
 602              	set_PID:
 603              	.LVL55:
 604              	.LFB141:
 164:Src/cmd_fun.c ****   PID_S * pid_s=0;
 605              		.loc 1 164 49 view -0
 606              		.cfi_startproc
 607              		@ args = 0, pretend = 0, frame = 0
 608              		@ frame_needed = 0, uses_anonymous_args = 0
 164:Src/cmd_fun.c ****   PID_S * pid_s=0;
 609              		.loc 1 164 49 is_stmt 0 view .LVU118
 610 0000 70B5     		push	{r4, r5, r6, lr}
 611              	.LCFI11:
 612              		.cfi_def_cfa_offset 16
 613              		.cfi_offset 4, -16
 614              		.cfi_offset 5, -12
 615              		.cfi_offset 6, -8
 616              		.cfi_offset 14, -4
 617 0002 82B0     		sub	sp, sp, #8
 618              	.LCFI12:
 619              		.cfi_def_cfa_offset 24
 165:Src/cmd_fun.c ****   float * kpkdki=0;
 620              		.loc 1 165 3 is_stmt 1 view .LVU119
 621              	.LVL56:
 166:Src/cmd_fun.c ****   if(arg_num!=0x0201){
 622              		.loc 1 166 3 view .LVU120
 167:Src/cmd_fun.c ****       ERROR_PARAGRAM();
 623              		.loc 1 167 3 view .LVU121
 167:Src/cmd_fun.c ****       ERROR_PARAGRAM();
 624              		.loc 1 167 5 is_stmt 0 view .LVU122
 625 0004 40F20123 		movw	r3, #513
 626 0008 9842     		cmp	r0, r3
 627 000a 04D0     		beq	.L44
 168:Src/cmd_fun.c ****   }
 628              		.loc 1 168 7 is_stmt 1 view .LVU123
 629 000c 2448     		ldr	r0, .L60
 630              	.LVL57:
ARM GAS  C:\Users\ncer\AppData\Local\Temp\cc11xOim.s 			page 18


 168:Src/cmd_fun.c ****   }
 631              		.loc 1 168 7 is_stmt 0 view .LVU124
 632 000e FFF7FEFF 		bl	uprintf
 633              	.LVL58:
 168:Src/cmd_fun.c ****   }
 634              		.loc 1 168 7 is_stmt 1 view .LVU125
 635              	.L43:
 196:Src/cmd_fun.c **** 
 636              		.loc 1 196 1 is_stmt 0 view .LVU126
 637 0012 02B0     		add	sp, sp, #8
 638              	.LCFI13:
 639              		.cfi_remember_state
 640              		.cfi_def_cfa_offset 16
 641              		@ sp needed
 642 0014 70BD     		pop	{r4, r5, r6, pc}
 643              	.LVL59:
 644              	.L44:
 645              	.LCFI14:
 646              		.cfi_restore_state
 196:Src/cmd_fun.c **** 
 647              		.loc 1 196 1 view .LVU127
 648 0016 0C46     		mov	r4, r1
 649 0018 1646     		mov	r6, r2
 170:Src/cmd_fun.c ****     pid_s=&Id_PID;
 650              		.loc 1 170 3 is_stmt 1 view .LVU128
 170:Src/cmd_fun.c ****     pid_s=&Id_PID;
 651              		.loc 1 170 6 is_stmt 0 view .LVU129
 652 001a 2249     		ldr	r1, .L60+4
 653              	.LVL60:
 170:Src/cmd_fun.c ****     pid_s=&Id_PID;
 654              		.loc 1 170 6 view .LVU130
 655 001c 2068     		ldr	r0, [r4]
 656              	.LVL61:
 170:Src/cmd_fun.c ****     pid_s=&Id_PID;
 657              		.loc 1 170 6 view .LVU131
 658 001e FFF7FEFF 		bl	compare_string
 659              	.LVL62:
 170:Src/cmd_fun.c ****     pid_s=&Id_PID;
 660              		.loc 1 170 5 view .LVU132
 661 0022 A8B1     		cbz	r0, .L56
 171:Src/cmd_fun.c ****   }else if(compare_string(s[0],"q")){
 662              		.loc 1 171 10 view .LVU133
 663 0024 204D     		ldr	r5, .L60+8
 664              	.L46:
 665              	.LVL63:
 186:Src/cmd_fun.c ****   if(compare_string(s[1],"p")){
 666              		.loc 1 186 3 is_stmt 1 view .LVU134
 186:Src/cmd_fun.c ****   if(compare_string(s[1],"p")){
 667              		.loc 1 186 11 is_stmt 0 view .LVU135
 668 0026 0023     		movs	r3, #0
 669 0028 EB60     		str	r3, [r5, #12]	@ float
 187:Src/cmd_fun.c ****     kpkdki=&(pid_s->KP);
 670              		.loc 1 187 3 is_stmt 1 view .LVU136
 187:Src/cmd_fun.c ****     kpkdki=&(pid_s->KP);
 671              		.loc 1 187 6 is_stmt 0 view .LVU137
 672 002a 2049     		ldr	r1, .L60+12
 673 002c 6068     		ldr	r0, [r4, #4]
ARM GAS  C:\Users\ncer\AppData\Local\Temp\cc11xOim.s 			page 19


 674 002e FFF7FEFF 		bl	compare_string
 675              	.LVL64:
 187:Src/cmd_fun.c ****     kpkdki=&(pid_s->KP);
 676              		.loc 1 187 5 view .LVU138
 677 0032 20B3     		cbz	r0, .L57
 678              	.LVL65:
 679              	.L48:
 194:Src/cmd_fun.c ****   uprintf("ok set %s 's %s = %f\r\n",s[0],s[1],args[0]);
 680              		.loc 1 194 3 is_stmt 1 view .LVU139
 194:Src/cmd_fun.c ****   uprintf("ok set %s 's %s = %f\r\n",s[0],s[1],args[0]);
 681              		.loc 1 194 15 is_stmt 0 view .LVU140
 682 0034 3068     		ldr	r0, [r6]	@ float
 194:Src/cmd_fun.c ****   uprintf("ok set %s 's %s = %f\r\n",s[0],s[1],args[0]);
 683              		.loc 1 194 10 view .LVU141
 684 0036 2860     		str	r0, [r5]	@ float
 195:Src/cmd_fun.c **** }
 685              		.loc 1 195 3 is_stmt 1 view .LVU142
 686 0038 6568     		ldr	r5, [r4, #4]
 687              	.LVL66:
 195:Src/cmd_fun.c **** }
 688              		.loc 1 195 3 is_stmt 0 view .LVU143
 689 003a 2468     		ldr	r4, [r4]
 690              	.LVL67:
 195:Src/cmd_fun.c **** }
 691              		.loc 1 195 3 view .LVU144
 692 003c FFF7FEFF 		bl	__aeabi_f2d
 693              	.LVL68:
 694 0040 CDE90001 		strd	r0, [sp]
 695 0044 2A46     		mov	r2, r5
 696 0046 2146     		mov	r1, r4
 697 0048 1948     		ldr	r0, .L60+16
 698 004a FFF7FEFF 		bl	uprintf
 699              	.LVL69:
 700 004e E0E7     		b	.L43
 701              	.LVL70:
 702              	.L56:
 172:Src/cmd_fun.c ****     pid_s=&Iq_PID;
 703              		.loc 1 172 9 is_stmt 1 view .LVU145
 172:Src/cmd_fun.c ****     pid_s=&Iq_PID;
 704              		.loc 1 172 12 is_stmt 0 view .LVU146
 705 0050 1849     		ldr	r1, .L60+20
 706 0052 2068     		ldr	r0, [r4]
 707 0054 FFF7FEFF 		bl	compare_string
 708              	.LVL71:
 172:Src/cmd_fun.c ****     pid_s=&Iq_PID;
 709              		.loc 1 172 11 view .LVU147
 710 0058 08B1     		cbz	r0, .L58
 173:Src/cmd_fun.c ****   }else if(compare_string(s[0],"sp")){
 711              		.loc 1 173 10 view .LVU148
 712 005a 174D     		ldr	r5, .L60+24
 713 005c E3E7     		b	.L46
 714              	.L58:
 174:Src/cmd_fun.c ****     pid_s=&Speed_PID;
 715              		.loc 1 174 9 is_stmt 1 view .LVU149
 174:Src/cmd_fun.c ****     pid_s=&Speed_PID;
 716              		.loc 1 174 12 is_stmt 0 view .LVU150
 717 005e 1749     		ldr	r1, .L60+28
ARM GAS  C:\Users\ncer\AppData\Local\Temp\cc11xOim.s 			page 20


 718 0060 2068     		ldr	r0, [r4]
 719 0062 FFF7FEFF 		bl	compare_string
 720              	.LVL72:
 174:Src/cmd_fun.c ****     pid_s=&Speed_PID;
 721              		.loc 1 174 11 view .LVU151
 722 0066 08B1     		cbz	r0, .L59
 175:Src/cmd_fun.c ****   }else if(compare_string(s[0],"pos")){
 723              		.loc 1 175 10 view .LVU152
 724 0068 154D     		ldr	r5, .L60+32
 725 006a DCE7     		b	.L46
 726              	.L59:
 176:Src/cmd_fun.c ****     pid_s=&Position_PID;
 727              		.loc 1 176 9 is_stmt 1 view .LVU153
 176:Src/cmd_fun.c ****     pid_s=&Position_PID;
 728              		.loc 1 176 12 is_stmt 0 view .LVU154
 729 006c 1549     		ldr	r1, .L60+36
 730 006e 2068     		ldr	r0, [r4]
 731 0070 FFF7FEFF 		bl	compare_string
 732              	.LVL73:
 176:Src/cmd_fun.c ****     pid_s=&Position_PID;
 733              		.loc 1 176 11 view .LVU155
 734 0074 08B9     		cbnz	r0, .L53
 165:Src/cmd_fun.c ****   float * kpkdki=0;
 735              		.loc 1 165 11 view .LVU156
 736 0076 0025     		movs	r5, #0
 737 0078 D5E7     		b	.L46
 738              	.L53:
 177:Src/cmd_fun.c ****   }
 739              		.loc 1 177 10 view .LVU157
 740 007a 134D     		ldr	r5, .L60+40
 741 007c D3E7     		b	.L46
 742              	.LVL74:
 743              	.L57:
 189:Src/cmd_fun.c ****     kpkdki=&(pid_s->KD);
 744              		.loc 1 189 9 is_stmt 1 view .LVU158
 189:Src/cmd_fun.c ****     kpkdki=&(pid_s->KD);
 745              		.loc 1 189 12 is_stmt 0 view .LVU159
 746 007e 0949     		ldr	r1, .L60+4
 747 0080 6068     		ldr	r0, [r4, #4]
 748 0082 FFF7FEFF 		bl	compare_string
 749              	.LVL75:
 189:Src/cmd_fun.c ****     kpkdki=&(pid_s->KD);
 750              		.loc 1 189 11 view .LVU160
 751 0086 08B1     		cbz	r0, .L49
 190:Src/cmd_fun.c ****   }else if(compare_string(s[1],"i")){
 752              		.loc 1 190 5 is_stmt 1 view .LVU161
 190:Src/cmd_fun.c ****   }else if(compare_string(s[1],"i")){
 753              		.loc 1 190 11 is_stmt 0 view .LVU162
 754 0088 0435     		adds	r5, r5, #4
 755              	.LVL76:
 190:Src/cmd_fun.c ****   }else if(compare_string(s[1],"i")){
 756              		.loc 1 190 11 view .LVU163
 757 008a D3E7     		b	.L48
 758              	.LVL77:
 759              	.L49:
 191:Src/cmd_fun.c ****     kpkdki=&(pid_s->KI);
 760              		.loc 1 191 9 is_stmt 1 view .LVU164
ARM GAS  C:\Users\ncer\AppData\Local\Temp\cc11xOim.s 			page 21


 191:Src/cmd_fun.c ****     kpkdki=&(pid_s->KI);
 761              		.loc 1 191 12 is_stmt 0 view .LVU165
 762 008c 0F49     		ldr	r1, .L60+44
 763 008e 6068     		ldr	r0, [r4, #4]
 764 0090 FFF7FEFF 		bl	compare_string
 765              	.LVL78:
 191:Src/cmd_fun.c ****     kpkdki=&(pid_s->KI);
 766              		.loc 1 191 11 view .LVU166
 767 0094 08B1     		cbz	r0, .L54
 192:Src/cmd_fun.c ****   }
 768              		.loc 1 192 5 is_stmt 1 view .LVU167
 192:Src/cmd_fun.c ****   }
 769              		.loc 1 192 11 is_stmt 0 view .LVU168
 770 0096 0835     		adds	r5, r5, #8
 771              	.LVL79:
 192:Src/cmd_fun.c ****   }
 772              		.loc 1 192 11 view .LVU169
 773 0098 CCE7     		b	.L48
 774              	.LVL80:
 775              	.L54:
 166:Src/cmd_fun.c ****   if(arg_num!=0x0201){
 776              		.loc 1 166 11 view .LVU170
 777 009a 0025     		movs	r5, #0
 778              	.LVL81:
 166:Src/cmd_fun.c ****   if(arg_num!=0x0201){
 779              		.loc 1 166 11 view .LVU171
 780 009c CAE7     		b	.L48
 781              	.L61:
 782 009e 00BF     		.align	2
 783              	.L60:
 784 00a0 00000000 		.word	.LC2
 785 00a4 00000000 		.word	.LC14
 786 00a8 00000000 		.word	Id_PID
 787 00ac 10000000 		.word	.LC18
 788 00b0 18000000 		.word	.LC20
 789 00b4 04000000 		.word	.LC15
 790 00b8 00000000 		.word	Iq_PID
 791 00bc 08000000 		.word	.LC16
 792 00c0 00000000 		.word	Speed_PID
 793 00c4 0C000000 		.word	.LC17
 794 00c8 00000000 		.word	Position_PID
 795 00cc 14000000 		.word	.LC19
 796              		.cfi_endproc
 797              	.LFE141:
 799              		.section	.rodata.set_to_u4.str1.4,"aMS",%progbits,1
 800              		.align	2
 801              	.LC21:
 802 0000 4F4B2073 		.ascii	"OK set to us and keep %d ms\015\012\000"
 802      65742074 
 802      6F207573 
 802      20616E64 
 802      206B6565 
 803 001e 0000     		.align	2
 804              	.LC22:
 805 0020 74686520 		.ascii	"the position is %f\015\012\000"
 805      706F7369 
 805      74696F6E 
ARM GAS  C:\Users\ncer\AppData\Local\Temp\cc11xOim.s 			page 22


 805      20697320 
 805      25660D0A 
 806              		.section	.text.set_to_u4,"ax",%progbits
 807              		.align	1
 808              		.global	set_to_u4
 809              		.syntax unified
 810              		.thumb
 811              		.thumb_func
 812              		.fpu fpv4-sp-d16
 814              	set_to_u4:
 815              	.LVL82:
 816              	.LFB135:
  92:Src/cmd_fun.c ****   uint8_t temp_t;
 817              		.loc 1 92 51 is_stmt 1 view -0
 818              		.cfi_startproc
 819              		@ args = 0, pretend = 0, frame = 8
 820              		@ frame_needed = 0, uses_anonymous_args = 0
  93:Src/cmd_fun.c ****   if(arg_num!=0x0001){
 821              		.loc 1 93 3 view .LVU173
  94:Src/cmd_fun.c ****     return ;
 822              		.loc 1 94 3 view .LVU174
  94:Src/cmd_fun.c ****     return ;
 823              		.loc 1 94 5 is_stmt 0 view .LVU175
 824 0000 0128     		cmp	r0, #1
 825 0002 00D0     		beq	.L68
 826 0004 7047     		bx	lr
 827              	.L68:
  92:Src/cmd_fun.c ****   uint8_t temp_t;
 828              		.loc 1 92 51 view .LVU176
 829 0006 10B5     		push	{r4, lr}
 830              	.LCFI15:
 831              		.cfi_def_cfa_offset 8
 832              		.cfi_offset 4, -8
 833              		.cfi_offset 14, -4
 834 0008 84B0     		sub	sp, sp, #16
 835              	.LCFI16:
 836              		.cfi_def_cfa_offset 24
  97:Src/cmd_fun.c ****   Set_to_Un(temp_t,U4,0.5);
 837              		.loc 1 97 3 is_stmt 1 view .LVU177
  97:Src/cmd_fun.c ****   Set_to_Un(temp_t,U4,0.5);
 838              		.loc 1 97 23 is_stmt 0 view .LVU178
 839 000a D2ED007A 		vldr.32	s15, [r2]
  97:Src/cmd_fun.c ****   Set_to_Un(temp_t,U4,0.5);
 840              		.loc 1 97 9 view .LVU179
 841 000e FCEEE77A 		vcvt.u32.f32	s15, s15
 842 0012 CDED037A 		vstr.32	s15, [sp, #12]	@ int
 843 0016 9DF80C40 		ldrb	r4, [sp, #12]	@ zero_extendqisi2
 844              	.LVL83:
  98:Src/cmd_fun.c ****   HAL_Delay(5);
 845              		.loc 1 98 3 is_stmt 1 view .LVU180
 846 001a 0D4B     		ldr	r3, .L69
 847 001c DA68     		ldr	r2, [r3, #12]
 848              	.LVL84:
  98:Src/cmd_fun.c ****   HAL_Delay(5);
 849              		.loc 1 98 3 is_stmt 0 view .LVU181
 850 001e 0092     		str	r2, [sp]
 851 0020 0ECB     		ldm	r3, {r1, r2, r3}
ARM GAS  C:\Users\ncer\AppData\Local\Temp\cc11xOim.s 			page 23


 852              	.LVL85:
  98:Src/cmd_fun.c ****   HAL_Delay(5);
 853              		.loc 1 98 3 view .LVU182
 854 0022 B6EE000A 		vmov.f32	s0, #5.0e-1
 855 0026 2046     		mov	r0, r4
 856              	.LVL86:
  98:Src/cmd_fun.c ****   HAL_Delay(5);
 857              		.loc 1 98 3 view .LVU183
 858 0028 FFF7FEFF 		bl	Set_to_Un
 859              	.LVL87:
  99:Src/cmd_fun.c ****   uprintf_polling("OK set to us and keep %d ms\r\n",temp_t);
 860              		.loc 1 99 3 is_stmt 1 view .LVU184
 861 002c 0520     		movs	r0, #5
 862 002e FFF7FEFF 		bl	HAL_Delay
 863              	.LVL88:
 100:Src/cmd_fun.c ****   uprintf_polling("the position is %f\r\n",Position_Degree);
 864              		.loc 1 100 3 view .LVU185
 865 0032 2146     		mov	r1, r4
 866 0034 0748     		ldr	r0, .L69+4
 867 0036 FFF7FEFF 		bl	uprintf_polling
 868              	.LVL89:
 101:Src/cmd_fun.c **** }
 869              		.loc 1 101 3 view .LVU186
 870 003a 074B     		ldr	r3, .L69+8
 871 003c 1868     		ldr	r0, [r3]	@ float
 872 003e FFF7FEFF 		bl	__aeabi_f2d
 873              	.LVL90:
 874 0042 0246     		mov	r2, r0
 875 0044 0B46     		mov	r3, r1
 876 0046 0548     		ldr	r0, .L69+12
 877 0048 FFF7FEFF 		bl	uprintf_polling
 878              	.LVL91:
 102:Src/cmd_fun.c **** extern void Test_Direction();
 879              		.loc 1 102 1 is_stmt 0 view .LVU187
 880 004c 04B0     		add	sp, sp, #16
 881              	.LCFI17:
 882              		.cfi_def_cfa_offset 8
 883              		@ sp needed
 884 004e 10BD     		pop	{r4, pc}
 885              	.LVL92:
 886              	.L70:
 102:Src/cmd_fun.c **** extern void Test_Direction();
 887              		.loc 1 102 1 view .LVU188
 888              		.align	2
 889              	.L69:
 890 0050 00000000 		.word	U4
 891 0054 00000000 		.word	.LC21
 892 0058 00000000 		.word	Position_Degree
 893 005c 20000000 		.word	.LC22
 894              		.cfi_endproc
 895              	.LFE135:
 897              		.section	.rodata.test_direction.str1.4,"aMS",%progbits,1
 898              		.align	2
 899              	.LC23:
 900 0000 73746172 		.ascii	"start to test direction!\015\012\000"
 900      7420746F 
 900      20746573 
ARM GAS  C:\Users\ncer\AppData\Local\Temp\cc11xOim.s 			page 24


 900      74206469 
 900      72656374 
 901              		.section	.text.test_direction,"ax",%progbits
 902              		.align	1
 903              		.global	test_direction
 904              		.syntax unified
 905              		.thumb
 906              		.thumb_func
 907              		.fpu fpv4-sp-d16
 909              	test_direction:
 910              	.LVL93:
 911              	.LFB136:
 104:Src/cmd_fun.c ****   uprintf_polling("start to test direction!\r\n");
 912              		.loc 1 104 55 is_stmt 1 view -0
 913              		.cfi_startproc
 914              		@ args = 0, pretend = 0, frame = 0
 915              		@ frame_needed = 0, uses_anonymous_args = 0
 104:Src/cmd_fun.c ****   uprintf_polling("start to test direction!\r\n");
 916              		.loc 1 104 55 is_stmt 0 view .LVU190
 917 0000 08B5     		push	{r3, lr}
 918              	.LCFI18:
 919              		.cfi_def_cfa_offset 8
 920              		.cfi_offset 3, -8
 921              		.cfi_offset 14, -4
 105:Src/cmd_fun.c ****   Test_Direction();
 922              		.loc 1 105 3 is_stmt 1 view .LVU191
 923 0002 0348     		ldr	r0, .L73
 924              	.LVL94:
 105:Src/cmd_fun.c ****   Test_Direction();
 925              		.loc 1 105 3 is_stmt 0 view .LVU192
 926 0004 FFF7FEFF 		bl	uprintf_polling
 927              	.LVL95:
 106:Src/cmd_fun.c **** 
 928              		.loc 1 106 3 is_stmt 1 view .LVU193
 929 0008 FFF7FEFF 		bl	Test_Direction
 930              	.LVL96:
 108:Src/cmd_fun.c **** 
 931              		.loc 1 108 1 is_stmt 0 view .LVU194
 932 000c 08BD     		pop	{r3, pc}
 933              	.L74:
 934 000e 00BF     		.align	2
 935              	.L73:
 936 0010 00000000 		.word	.LC23
 937              		.cfi_endproc
 938              	.LFE136:
 940              		.section	.rodata.detect.str1.4,"aMS",%progbits,1
 941              		.align	2
 942              	.LC24:
 943 0000 73746172 		.ascii	"start to detect encoder!\015\012\000"
 943      7420746F 
 943      20646574 
 943      65637420 
 943      656E636F 
 944              		.section	.text.detect,"ax",%progbits
 945              		.align	1
 946              		.global	detect
 947              		.syntax unified
ARM GAS  C:\Users\ncer\AppData\Local\Temp\cc11xOim.s 			page 25


 948              		.thumb
 949              		.thumb_func
 950              		.fpu fpv4-sp-d16
 952              	detect:
 953              	.LVL97:
 954              	.LFB137:
 111:Src/cmd_fun.c ****   uprintf_polling("start to detect encoder!\r\n");
 955              		.loc 1 111 46 is_stmt 1 view -0
 956              		.cfi_startproc
 957              		@ args = 0, pretend = 0, frame = 0
 958              		@ frame_needed = 0, uses_anonymous_args = 0
 111:Src/cmd_fun.c ****   uprintf_polling("start to detect encoder!\r\n");
 959              		.loc 1 111 46 is_stmt 0 view .LVU196
 960 0000 08B5     		push	{r3, lr}
 961              	.LCFI19:
 962              		.cfi_def_cfa_offset 8
 963              		.cfi_offset 3, -8
 964              		.cfi_offset 14, -4
 112:Src/cmd_fun.c ****   Detect_Encoder();
 965              		.loc 1 112 3 is_stmt 1 view .LVU197
 966 0002 0348     		ldr	r0, .L77
 967              	.LVL98:
 112:Src/cmd_fun.c ****   Detect_Encoder();
 968              		.loc 1 112 3 is_stmt 0 view .LVU198
 969 0004 FFF7FEFF 		bl	uprintf_polling
 970              	.LVL99:
 113:Src/cmd_fun.c **** }
 971              		.loc 1 113 3 is_stmt 1 view .LVU199
 972 0008 FFF7FEFF 		bl	Detect_Encoder
 973              	.LVL100:
 114:Src/cmd_fun.c **** 
 974              		.loc 1 114 1 is_stmt 0 view .LVU200
 975 000c 08BD     		pop	{r3, pc}
 976              	.L78:
 977 000e 00BF     		.align	2
 978              	.L77:
 979 0010 00000000 		.word	.LC24
 980              		.cfi_endproc
 981              	.LFE137:
 983              		.section	.rodata.start.str1.4,"aMS",%progbits,1
 984              		.align	2
 985              	.LC25:
 986 0000 4F4B2120 		.ascii	"OK! flag=%d\015\012\000"
 986      666C6167 
 986      3D25640D 
 986      0A00
 987              		.section	.text.start,"ax",%progbits
 988              		.align	1
 989              		.global	start
 990              		.syntax unified
 991              		.thumb
 992              		.thumb_func
 993              		.fpu fpv4-sp-d16
 995              	start:
 996              	.LVL101:
 997              	.LFB138:
 117:Src/cmd_fun.c ****   if(arg_num!=0x0001){
ARM GAS  C:\Users\ncer\AppData\Local\Temp\cc11xOim.s 			page 26


 998              		.loc 1 117 45 is_stmt 1 view -0
 999              		.cfi_startproc
 1000              		@ args = 0, pretend = 0, frame = 0
 1001              		@ frame_needed = 0, uses_anonymous_args = 0
 117:Src/cmd_fun.c ****   if(arg_num!=0x0001){
 1002              		.loc 1 117 45 is_stmt 0 view .LVU202
 1003 0000 08B5     		push	{r3, lr}
 1004              	.LCFI20:
 1005              		.cfi_def_cfa_offset 8
 1006              		.cfi_offset 3, -8
 1007              		.cfi_offset 14, -4
 118:Src/cmd_fun.c ****     Iq_PID.i=0;
 1008              		.loc 1 118 3 is_stmt 1 view .LVU203
 118:Src/cmd_fun.c ****     Iq_PID.i=0;
 1009              		.loc 1 118 5 is_stmt 0 view .LVU204
 1010 0002 0128     		cmp	r0, #1
 1011 0004 0FD1     		bne	.L88
 130:Src/cmd_fun.c ****     FOC_Flag=1;
 1012              		.loc 1 130 3 is_stmt 1 view .LVU205
 130:Src/cmd_fun.c ****     FOC_Flag=1;
 1013              		.loc 1 130 10 is_stmt 0 view .LVU206
 1014 0006 D2ED007A 		vldr.32	s15, [r2]
 130:Src/cmd_fun.c ****     FOC_Flag=1;
 1015              		.loc 1 130 5 view .LVU207
 1016 000a F5EEC07A 		vcmpe.f32	s15, #0
 1017 000e F1EE10FA 		vmrs	APSR_nzcv, FPSCR
 1018 0012 1BDD     		ble	.L86
 131:Src/cmd_fun.c ****   }else{
 1019              		.loc 1 131 5 is_stmt 1 view .LVU208
 131:Src/cmd_fun.c ****   }else{
 1020              		.loc 1 131 13 is_stmt 0 view .LVU209
 1021 0014 124B     		ldr	r3, .L89
 1022 0016 0122     		movs	r2, #1
 1023              	.LVL102:
 131:Src/cmd_fun.c ****   }else{
 1024              		.loc 1 131 13 view .LVU210
 1025 0018 1A70     		strb	r2, [r3]
 1026              	.LVL103:
 1027              	.L84:
 136:Src/cmd_fun.c **** }
 1028              		.loc 1 136 3 is_stmt 1 view .LVU211
 1029 001a 114B     		ldr	r3, .L89
 1030 001c 1978     		ldrb	r1, [r3]	@ zero_extendqisi2
 1031 001e 1148     		ldr	r0, .L89+4
 1032 0020 FFF7FEFF 		bl	uprintf_polling
 1033              	.LVL104:
 1034              	.L79:
 137:Src/cmd_fun.c **** 
 1035              		.loc 1 137 1 is_stmt 0 view .LVU212
 1036 0024 08BD     		pop	{r3, pc}
 1037              	.LVL105:
 1038              	.L88:
 119:Src/cmd_fun.c ****     Id_PID.i=0;
 1039              		.loc 1 119 5 is_stmt 1 view .LVU213
 119:Src/cmd_fun.c ****     Id_PID.i=0;
 1040              		.loc 1 119 13 is_stmt 0 view .LVU214
 1041 0026 0023     		movs	r3, #0
ARM GAS  C:\Users\ncer\AppData\Local\Temp\cc11xOim.s 			page 27


 1042 0028 0F4A     		ldr	r2, .L89+8
 1043              	.LVL106:
 119:Src/cmd_fun.c ****     Id_PID.i=0;
 1044              		.loc 1 119 13 view .LVU215
 1045 002a D360     		str	r3, [r2, #12]	@ float
 120:Src/cmd_fun.c ****     Speed_PID.i=0;
 1046              		.loc 1 120 5 is_stmt 1 view .LVU216
 120:Src/cmd_fun.c ****     Speed_PID.i=0;
 1047              		.loc 1 120 13 is_stmt 0 view .LVU217
 1048 002c 0F4A     		ldr	r2, .L89+12
 1049 002e D360     		str	r3, [r2, #12]	@ float
 121:Src/cmd_fun.c ****     Position_PID.i=0;
 1050              		.loc 1 121 5 is_stmt 1 view .LVU218
 121:Src/cmd_fun.c ****     Position_PID.i=0;
 1051              		.loc 1 121 16 is_stmt 0 view .LVU219
 1052 0030 0F4A     		ldr	r2, .L89+16
 1053 0032 D360     		str	r3, [r2, #12]	@ float
 122:Src/cmd_fun.c ****     #ifdef USE_GYRO
 1054              		.loc 1 122 5 is_stmt 1 view .LVU220
 122:Src/cmd_fun.c ****     #ifdef USE_GYRO
 1055              		.loc 1 122 19 is_stmt 0 view .LVU221
 1056 0034 0F4A     		ldr	r2, .L89+20
 1057 0036 D360     		str	r3, [r2, #12]	@ float
 126:Src/cmd_fun.c ****     uprintf_polling("OK! flag=%d\r\n",FOC_Flag);
 1058              		.loc 1 126 5 is_stmt 1 view .LVU222
 126:Src/cmd_fun.c ****     uprintf_polling("OK! flag=%d\r\n",FOC_Flag);
 1059              		.loc 1 126 16 is_stmt 0 view .LVU223
 1060 0038 094B     		ldr	r3, .L89
 1061 003a 1978     		ldrb	r1, [r3]	@ zero_extendqisi2
 1062              	.LVL107:
 126:Src/cmd_fun.c ****     uprintf_polling("OK! flag=%d\r\n",FOC_Flag);
 1063              		.loc 1 126 16 view .LVU224
 1064 003c B1FA81F1 		clz	r1, r1
 1065 0040 4909     		lsrs	r1, r1, #5
 126:Src/cmd_fun.c ****     uprintf_polling("OK! flag=%d\r\n",FOC_Flag);
 1066              		.loc 1 126 14 view .LVU225
 1067 0042 1970     		strb	r1, [r3]
 127:Src/cmd_fun.c ****     return ;
 1068              		.loc 1 127 5 is_stmt 1 view .LVU226
 1069 0044 0748     		ldr	r0, .L89+4
 1070              	.LVL108:
 127:Src/cmd_fun.c ****     return ;
 1071              		.loc 1 127 5 is_stmt 0 view .LVU227
 1072 0046 FFF7FEFF 		bl	uprintf_polling
 1073              	.LVL109:
 128:Src/cmd_fun.c ****   }
 1074              		.loc 1 128 5 is_stmt 1 view .LVU228
 1075 004a EBE7     		b	.L79
 1076              	.LVL110:
 1077              	.L86:
 133:Src/cmd_fun.c ****     Set_Vector(U0,0.1f);
 1078              		.loc 1 133 5 view .LVU229
 133:Src/cmd_fun.c ****     Set_Vector(U0,0.1f);
 1079              		.loc 1 133 13 is_stmt 0 view .LVU230
 1080 004c 044B     		ldr	r3, .L89
 1081 004e 0022     		movs	r2, #0
 1082              	.LVL111:
ARM GAS  C:\Users\ncer\AppData\Local\Temp\cc11xOim.s 			page 28


 133:Src/cmd_fun.c ****     Set_Vector(U0,0.1f);
 1083              		.loc 1 133 13 view .LVU231
 1084 0050 1A70     		strb	r2, [r3]
 134:Src/cmd_fun.c ****   }
 1085              		.loc 1 134 5 is_stmt 1 view .LVU232
 1086 0052 094B     		ldr	r3, .L89+24
 1087 0054 9FED090A 		vldr.32	s0, .L89+28
 1088 0058 0FCB     		ldm	r3, {r0, r1, r2, r3}
 1089              	.LVL112:
 134:Src/cmd_fun.c ****   }
 1090              		.loc 1 134 5 is_stmt 0 view .LVU233
 1091 005a FFF7FEFF 		bl	Set_Vector
 1092              	.LVL113:
 1093 005e DCE7     		b	.L84
 1094              	.L90:
 1095              		.align	2
 1096              	.L89:
 1097 0060 00000000 		.word	FOC_Flag
 1098 0064 00000000 		.word	.LC25
 1099 0068 00000000 		.word	Iq_PID
 1100 006c 00000000 		.word	Id_PID
 1101 0070 00000000 		.word	Speed_PID
 1102 0074 00000000 		.word	Position_PID
 1103 0078 00000000 		.word	U0
 1104 007c CDCCCC3D 		.word	1036831949
 1105              		.cfi_endproc
 1106              	.LFE138:
 1108              		.section	.rodata.wrtie_param.str1.4,"aMS",%progbits,1
 1109              		.align	2
 1110              	.LC26:
 1111 0000 4F4B2C53 		.ascii	"OK,Save Params\015\012\000"
 1111      61766520 
 1111      50617261 
 1111      6D730D0A 
 1111      00
 1112              		.section	.text.wrtie_param,"ax",%progbits
 1113              		.align	1
 1114              		.global	wrtie_param
 1115              		.syntax unified
 1116              		.thumb
 1117              		.thumb_func
 1118              		.fpu fpv4-sp-d16
 1120              	wrtie_param:
 1121              	.LVL114:
 1122              	.LFB139:
 148:Src/cmd_fun.c ****   Write_Parameter();
 1123              		.loc 1 148 51 is_stmt 1 view -0
 1124              		.cfi_startproc
 1125              		@ args = 0, pretend = 0, frame = 0
 1126              		@ frame_needed = 0, uses_anonymous_args = 0
 148:Src/cmd_fun.c ****   Write_Parameter();
 1127              		.loc 1 148 51 is_stmt 0 view .LVU235
 1128 0000 08B5     		push	{r3, lr}
 1129              	.LCFI21:
 1130              		.cfi_def_cfa_offset 8
 1131              		.cfi_offset 3, -8
 1132              		.cfi_offset 14, -4
ARM GAS  C:\Users\ncer\AppData\Local\Temp\cc11xOim.s 			page 29


 149:Src/cmd_fun.c ****   uprintf("OK,Save Params\r\n");
 1133              		.loc 1 149 3 is_stmt 1 view .LVU236
 1134 0002 FFF7FEFF 		bl	Write_Parameter
 1135              	.LVL115:
 150:Src/cmd_fun.c **** }
 1136              		.loc 1 150 3 view .LVU237
 1137 0006 0248     		ldr	r0, .L93
 1138 0008 FFF7FEFF 		bl	uprintf
 1139              	.LVL116:
 151:Src/cmd_fun.c **** 
 1140              		.loc 1 151 1 is_stmt 0 view .LVU238
 1141 000c 08BD     		pop	{r3, pc}
 1142              	.L94:
 1143 000e 00BF     		.align	2
 1144              	.L93:
 1145 0010 00000000 		.word	.LC26
 1146              		.cfi_endproc
 1147              	.LFE139:
 1149              		.section	.rodata.command_init.str1.4,"aMS",%progbits,1
 1150              		.align	2
 1151              	.LC27:
 1152 0000 74657374 		.ascii	"test\000"
 1152      00
 1153 0005 000000   		.align	2
 1154              	.LC28:
 1155 0008 73657400 		.ascii	"set\000"
 1156              		.align	2
 1157              	.LC29:
 1158 000c 7365745F 		.ascii	"set_u4\000"
 1158      753400
 1159 0013 00       		.align	2
 1160              	.LC30:
 1161 0014 74657374 		.ascii	"test_direction\000"
 1161      5F646972 
 1161      65637469 
 1161      6F6E00
 1162 0023 00       		.align	2
 1163              	.LC31:
 1164 0024 64657465 		.ascii	"detect\000"
 1164      637400
 1165 002b 00       		.align	2
 1166              	.LC32:
 1167 002c 73746172 		.ascii	"start\000"
 1167      7400
 1168 0032 0000     		.align	2
 1169              	.LC33:
 1170 0034 7365745F 		.ascii	"set_pid\000"
 1170      70696400 
 1171              		.align	2
 1172              	.LC34:
 1173 003c 77726974 		.ascii	"write\000"
 1173      6500
 1174 0042 0000     		.align	2
 1175              	.LC35:
 1176 0044 77617665 		.ascii	"wave\000"
 1176      00
 1177 0049 000000   		.align	2
ARM GAS  C:\Users\ncer\AppData\Local\Temp\cc11xOim.s 			page 30


 1178              	.LC36:
 1179 004c 7365745F 		.ascii	"set_mode\000"
 1179      6D6F6465 
 1179      00
 1180              		.section	.text.command_init,"ax",%progbits
 1181              		.align	1
 1182              		.global	command_init
 1183              		.syntax unified
 1184              		.thumb
 1185              		.thumb_func
 1186              		.fpu fpv4-sp-d16
 1188              	command_init:
 1189              	.LFB144:
 220:Src/cmd_fun.c **** 
 221:Src/cmd_fun.c **** /*
 222:Src/cmd_fun.c **** 将要增加的命令与函数写在这里
 223:Src/cmd_fun.c **** */
 224:Src/cmd_fun.c **** void command_init(void){
 1190              		.loc 1 224 24 is_stmt 1 view -0
 1191              		.cfi_startproc
 1192              		@ args = 0, pretend = 0, frame = 0
 1193              		@ frame_needed = 0, uses_anonymous_args = 0
 1194 0000 08B5     		push	{r3, lr}
 1195              	.LCFI22:
 1196              		.cfi_def_cfa_offset 8
 1197              		.cfi_offset 3, -8
 1198              		.cfi_offset 14, -4
 225:Src/cmd_fun.c ****   add_cmd("test",test); 
 1199              		.loc 1 225 3 view .LVU240
 1200 0002 1649     		ldr	r1, .L97
 1201 0004 1648     		ldr	r0, .L97+4
 1202 0006 FFF7FEFF 		bl	add_cmd
 1203              	.LVL117:
 226:Src/cmd_fun.c ****   add_cmd("set",set_val);
 1204              		.loc 1 226 3 view .LVU241
 1205 000a 1649     		ldr	r1, .L97+8
 1206 000c 1648     		ldr	r0, .L97+12
 1207 000e FFF7FEFF 		bl	add_cmd
 1208              	.LVL118:
 227:Src/cmd_fun.c ****   add_cmd("set_u4",set_to_u4);
 1209              		.loc 1 227 3 view .LVU242
 1210 0012 1649     		ldr	r1, .L97+16
 1211 0014 1648     		ldr	r0, .L97+20
 1212 0016 FFF7FEFF 		bl	add_cmd
 1213              	.LVL119:
 228:Src/cmd_fun.c ****   add_cmd("test_direction",test_direction);
 1214              		.loc 1 228 3 view .LVU243
 1215 001a 1649     		ldr	r1, .L97+24
 1216 001c 1648     		ldr	r0, .L97+28
 1217 001e FFF7FEFF 		bl	add_cmd
 1218              	.LVL120:
 229:Src/cmd_fun.c ****   add_cmd("detect",detect);
 1219              		.loc 1 229 3 view .LVU244
 1220 0022 1649     		ldr	r1, .L97+32
 1221 0024 1648     		ldr	r0, .L97+36
 1222 0026 FFF7FEFF 		bl	add_cmd
 1223              	.LVL121:
ARM GAS  C:\Users\ncer\AppData\Local\Temp\cc11xOim.s 			page 31


 230:Src/cmd_fun.c ****   add_cmd("start",start);
 1224              		.loc 1 230 3 view .LVU245
 1225 002a 1649     		ldr	r1, .L97+40
 1226 002c 1648     		ldr	r0, .L97+44
 1227 002e FFF7FEFF 		bl	add_cmd
 1228              	.LVL122:
 231:Src/cmd_fun.c ****   add_cmd("set_pid",set_PID);
 1229              		.loc 1 231 3 view .LVU246
 1230 0032 1649     		ldr	r1, .L97+48
 1231 0034 1648     		ldr	r0, .L97+52
 1232 0036 FFF7FEFF 		bl	add_cmd
 1233              	.LVL123:
 232:Src/cmd_fun.c ****   add_cmd("write",wrtie_param);
 1234              		.loc 1 232 3 view .LVU247
 1235 003a 1649     		ldr	r1, .L97+56
 1236 003c 1648     		ldr	r0, .L97+60
 1237 003e FFF7FEFF 		bl	add_cmd
 1238              	.LVL124:
 233:Src/cmd_fun.c ****   add_cmd("wave",wave);
 1239              		.loc 1 233 3 view .LVU248
 1240 0042 1649     		ldr	r1, .L97+64
 1241 0044 1648     		ldr	r0, .L97+68
 1242 0046 FFF7FEFF 		bl	add_cmd
 1243              	.LVL125:
 234:Src/cmd_fun.c ****   #ifdef CAMERA_SUPPORT
 235:Src/cmd_fun.c ****   add_cmd("camera",camera);
 236:Src/cmd_fun.c ****   #endif
 237:Src/cmd_fun.c ****   add_cmd("pos",position);
 1244              		.loc 1 237 3 view .LVU249
 1245 004a 1649     		ldr	r1, .L97+72
 1246 004c 1648     		ldr	r0, .L97+76
 1247 004e FFF7FEFF 		bl	add_cmd
 1248              	.LVL126:
 238:Src/cmd_fun.c ****   add_cmd("set_mode",set_mode);
 1249              		.loc 1 238 3 view .LVU250
 1250 0052 1649     		ldr	r1, .L97+80
 1251 0054 1648     		ldr	r0, .L97+84
 1252 0056 FFF7FEFF 		bl	add_cmd
 1253              	.LVL127:
 239:Src/cmd_fun.c ****   //add_cmd("song",song);
 240:Src/cmd_fun.c **** }
 1254              		.loc 1 240 1 is_stmt 0 view .LVU251
 1255 005a 08BD     		pop	{r3, pc}
 1256              	.L98:
 1257              		.align	2
 1258              	.L97:
 1259 005c 00000000 		.word	test
 1260 0060 00000000 		.word	.LC27
 1261 0064 00000000 		.word	set_val
 1262 0068 08000000 		.word	.LC28
 1263 006c 00000000 		.word	set_to_u4
 1264 0070 0C000000 		.word	.LC29
 1265 0074 00000000 		.word	test_direction
 1266 0078 14000000 		.word	.LC30
 1267 007c 00000000 		.word	detect
 1268 0080 24000000 		.word	.LC31
 1269 0084 00000000 		.word	start
ARM GAS  C:\Users\ncer\AppData\Local\Temp\cc11xOim.s 			page 32


 1270 0088 2C000000 		.word	.LC32
 1271 008c 00000000 		.word	set_PID
 1272 0090 34000000 		.word	.LC33
 1273 0094 00000000 		.word	wrtie_param
 1274 0098 3C000000 		.word	.LC34
 1275 009c 00000000 		.word	wave
 1276 00a0 44000000 		.word	.LC35
 1277 00a4 00000000 		.word	position
 1278 00a8 0C000000 		.word	.LC17
 1279 00ac 00000000 		.word	set_mode
 1280 00b0 4C000000 		.word	.LC36
 1281              		.cfi_endproc
 1282              	.LFE144:
 1284              		.global	test_s2
 1285              		.section	.rodata.str1.4,"aMS",%progbits,1
 1286              		.align	2
 1287              	.LC37:
 1288 0000 74657374 		.ascii	"test_s\000"
 1288      5F7300
 1289              		.global	test_s
 1290 0007 00       		.align	2
 1291              	.LC38:
 1292 0008 5661725F 		.ascii	"Var_List\000"
 1292      4C697374 
 1292      00
 1293              		.global	Var_List
 1294 0011 000000   		.align	2
 1295              	.LC39:
 1296 0014 696400   		.ascii	"id\000"
 1297 0017 00       		.align	2
 1298              	.LC40:
 1299 0018 697100   		.ascii	"iq\000"
 1300 001b 00       		.align	2
 1301              	.LC41:
 1302 001c 62617365 		.ascii	"base_sp\000"
 1302      5F737000 
 1303              		.align	2
 1304              	.LC42:
 1305 0024 73705F61 		.ascii	"sp_a\000"
 1305      00
 1306 0029 000000   		.align	2
 1307              	.LC43:
 1308 002c 64757479 		.ascii	"duty\000"
 1308      00
 1309 0031 000000   		.align	2
 1310              	.LC44:
 1311 0034 64757479 		.ascii	"duty_amp\000"
 1311      5F616D70 
 1311      00
 1312 003d 000000   		.align	2
 1313              	.LC45:
 1314 0040 70686900 		.ascii	"phi\000"
 1315              		.align	2
 1316              	.LC46:
 1317 0044 706F735F 		.ascii	"pos_off\000"
 1317      6F666600 
 1318              		.section	.data.Var_List,"aw"
ARM GAS  C:\Users\ncer\AppData\Local\Temp\cc11xOim.s 			page 33


 1319              		.align	2
 1320              		.set	.LANCHOR2,. + 0
 1323              	Var_List:
 1324 0000 14000000 		.word	.LC39
 1325 0004 00000000 		.word	Id_Set
 1326 0008 18000000 		.word	.LC40
 1327 000c 00000000 		.word	Iq_Set
 1328 0010 08000000 		.word	.LC16
 1329 0014 00000000 		.word	Speed_Set
 1330 0018 0C000000 		.word	.LC17
 1331 001c 00000000 		.word	Position_Degree_Set
 1332 0020 1C000000 		.word	.LC41
 1333 0024 00000000 		.word	Base_Speed
 1334 0028 24000000 		.word	.LC42
 1335 002c 00000000 		.word	Speed_Attitude
 1336 0030 2C000000 		.word	.LC43
 1337 0034 00000000 		.word	Base_Duty
 1338 0038 34000000 		.word	.LC44
 1339 003c 00000000 		.word	Duty_Amp
 1340 0040 40000000 		.word	.LC45
 1341 0044 00000000 		.word	Phi
 1342 0048 44000000 		.word	.LC46
 1343 004c 00000000 		.word	Position_Offset
 1344              		.section	.data.test_s,"aw"
 1345              		.align	2
 1346              		.set	.LANCHOR0,. + 0
 1349              	test_s:
 1350 0000 08000000 		.word	.LC38
 1351              		.section	.data.test_s2,"aw"
 1352              		.align	2
 1353              		.set	.LANCHOR1,. + 0
 1356              	test_s2:
 1357 0000 00000000 		.word	.LC37
 1358              		.text
 1359              	.Letext0:
 1360              		.file 2 "c:\\arm_gcc\\arm-none-eabi\\include\\machine\\_default_types.h"
 1361              		.file 3 "c:\\arm_gcc\\arm-none-eabi\\include\\sys\\_stdint.h"
 1362              		.file 4 "c:\\arm_gcc\\arm-none-eabi\\include\\sys\\lock.h"
 1363              		.file 5 "c:\\arm_gcc\\arm-none-eabi\\include\\sys\\_types.h"
 1364              		.file 6 "c:\\arm_gcc\\lib\\gcc\\arm-none-eabi\\9.2.1\\include\\stddef.h"
 1365              		.file 7 "c:\\arm_gcc\\arm-none-eabi\\include\\sys\\reent.h"
 1366              		.file 8 "c:\\arm_gcc\\arm-none-eabi\\include\\stdlib.h"
 1367              		.file 9 "Drivers/CMSIS/Include/core_cm4.h"
 1368              		.file 10 "Drivers/CMSIS/Device/ST/STM32F4xx/Include/system_stm32f4xx.h"
 1369              		.file 11 "Drivers/CMSIS/Device/ST/STM32F4xx/Include/stm32f405xx.h"
 1370              		.file 12 "Drivers/STM32F4xx_HAL_Driver/Inc/stm32f4xx_hal_def.h"
 1371              		.file 13 "Drivers/STM32F4xx_HAL_Driver/Inc/stm32f4xx_hal_dma.h"
 1372              		.file 14 "Drivers/STM32F4xx_HAL_Driver/Inc/stm32f4xx_hal_tim.h"
 1373              		.file 15 "Drivers/STM32F4xx_HAL_Driver/Inc/stm32f4xx_hal.h"
 1374              		.file 16 "mylib/uart_ext.h"
 1375              		.file 17 "Inc/tim.h"
 1376              		.file 18 "Src/SVPWM.h"
 1377              		.file 19 "mylib/pid.h"
 1378              		.file 20 "Src/foc.h"
 1379              		.file 21 "mylib/debug_utils.h"
 1380              		.file 22 "mylib/command.h"
 1381              		.file 23 "Src/parameter.h"
ARM GAS  C:\Users\ncer\AppData\Local\Temp\cc11xOim.s 			page 34


ARM GAS  C:\Users\ncer\AppData\Local\Temp\cc11xOim.s 			page 35

