ARM GAS  C:\Users\ncer\AppData\Local\Temp\ccaaSNnd.s 			page 1


   1              		.cpu cortex-m4
   2              		.eabi_attribute 27, 1
   3              		.eabi_attribute 28, 1
   4              		.eabi_attribute 20, 1
   5              		.eabi_attribute 21, 1
   6              		.eabi_attribute 23, 3
   7              		.eabi_attribute 24, 1
   8              		.eabi_attribute 25, 1
   9              		.eabi_attribute 26, 1
  10              		.eabi_attribute 30, 1
  11              		.eabi_attribute 34, 1
  12              		.eabi_attribute 18, 4
  13              		.file	"dac.c"
  14              		.text
  15              	.Ltext0:
  16              		.cfi_sections	.debug_frame
  17              		.section	.text.MX_DAC_Init,"ax",%progbits
  18              		.align	1
  19              		.global	MX_DAC_Init
  20              		.arch armv7e-m
  21              		.syntax unified
  22              		.thumb
  23              		.thumb_func
  24              		.fpu fpv4-sp-d16
  26              	MX_DAC_Init:
  27              	.LFB130:
  28              		.file 1 "Src/dac.c"
   1:Src/dac.c     **** /**
   2:Src/dac.c     ****   ******************************************************************************
   3:Src/dac.c     ****   * File Name          : DAC.c
   4:Src/dac.c     ****   * Description        : This file provides code for the configuration
   5:Src/dac.c     ****   *                      of the DAC instances.
   6:Src/dac.c     ****   ******************************************************************************
   7:Src/dac.c     ****   * @attention
   8:Src/dac.c     ****   *
   9:Src/dac.c     ****   * <h2><center>&copy; Copyright (c) 2020 STMicroelectronics.
  10:Src/dac.c     ****   * All rights reserved.</center></h2>
  11:Src/dac.c     ****   *
  12:Src/dac.c     ****   * This software component is licensed by ST under BSD 3-Clause license,
  13:Src/dac.c     ****   * the "License"; You may not use this file except in compliance with the
  14:Src/dac.c     ****   * License. You may obtain a copy of the License at:
  15:Src/dac.c     ****   *                        opensource.org/licenses/BSD-3-Clause
  16:Src/dac.c     ****   *
  17:Src/dac.c     ****   ******************************************************************************
  18:Src/dac.c     ****   */
  19:Src/dac.c     **** 
  20:Src/dac.c     **** /* Includes ------------------------------------------------------------------*/
  21:Src/dac.c     **** #include "dac.h"
  22:Src/dac.c     **** 
  23:Src/dac.c     **** /* USER CODE BEGIN 0 */
  24:Src/dac.c     **** 
  25:Src/dac.c     **** /* USER CODE END 0 */
  26:Src/dac.c     **** 
  27:Src/dac.c     **** DAC_HandleTypeDef hdac;
  28:Src/dac.c     **** 
  29:Src/dac.c     **** /* DAC init function */
  30:Src/dac.c     **** void MX_DAC_Init(void)
ARM GAS  C:\Users\ncer\AppData\Local\Temp\ccaaSNnd.s 			page 2


  31:Src/dac.c     **** {
  29              		.loc 1 31 1 view -0
  30              		.cfi_startproc
  31              		@ args = 0, pretend = 0, frame = 8
  32              		@ frame_needed = 0, uses_anonymous_args = 0
  33 0000 10B5     		push	{r4, lr}
  34              	.LCFI0:
  35              		.cfi_def_cfa_offset 8
  36              		.cfi_offset 4, -8
  37              		.cfi_offset 14, -4
  38 0002 82B0     		sub	sp, sp, #8
  39              	.LCFI1:
  40              		.cfi_def_cfa_offset 16
  32:Src/dac.c     ****   DAC_ChannelConfTypeDef sConfig = {0};
  41              		.loc 1 32 3 view .LVU1
  42              		.loc 1 32 26 is_stmt 0 view .LVU2
  43 0004 0023     		movs	r3, #0
  44 0006 0093     		str	r3, [sp]
  45 0008 0193     		str	r3, [sp, #4]
  33:Src/dac.c     **** 
  34:Src/dac.c     ****   /** DAC Initialization 
  35:Src/dac.c     ****   */
  36:Src/dac.c     ****   hdac.Instance = DAC;
  46              		.loc 1 36 3 is_stmt 1 view .LVU3
  47              		.loc 1 36 17 is_stmt 0 view .LVU4
  48 000a 1148     		ldr	r0, .L7
  49 000c 114B     		ldr	r3, .L7+4
  50 000e 0360     		str	r3, [r0]
  37:Src/dac.c     ****   if (HAL_DAC_Init(&hdac) != HAL_OK)
  51              		.loc 1 37 3 is_stmt 1 view .LVU5
  52              		.loc 1 37 7 is_stmt 0 view .LVU6
  53 0010 FFF7FEFF 		bl	HAL_DAC_Init
  54              	.LVL0:
  55              		.loc 1 37 6 view .LVU7
  56 0014 B0B9     		cbnz	r0, .L5
  57              	.L2:
  38:Src/dac.c     ****   {
  39:Src/dac.c     ****     Error_Handler();
  40:Src/dac.c     ****   }
  41:Src/dac.c     ****   /** DAC channel OUT1 config 
  42:Src/dac.c     ****   */
  43:Src/dac.c     ****   sConfig.DAC_Trigger = DAC_TRIGGER_SOFTWARE;
  58              		.loc 1 43 3 is_stmt 1 view .LVU8
  59              		.loc 1 43 23 is_stmt 0 view .LVU9
  60 0016 3C23     		movs	r3, #60
  61 0018 0093     		str	r3, [sp]
  44:Src/dac.c     ****   sConfig.DAC_OutputBuffer = DAC_OUTPUTBUFFER_ENABLE;
  62              		.loc 1 44 3 is_stmt 1 view .LVU10
  63              		.loc 1 44 28 is_stmt 0 view .LVU11
  64 001a 0022     		movs	r2, #0
  65 001c 0192     		str	r2, [sp, #4]
  45:Src/dac.c     ****   if (HAL_DAC_ConfigChannel(&hdac, &sConfig, DAC_CHANNEL_1) != HAL_OK)
  66              		.loc 1 45 3 is_stmt 1 view .LVU12
  67              		.loc 1 45 7 is_stmt 0 view .LVU13
  68 001e 6946     		mov	r1, sp
  69 0020 0B48     		ldr	r0, .L7
  70 0022 FFF7FEFF 		bl	HAL_DAC_ConfigChannel
ARM GAS  C:\Users\ncer\AppData\Local\Temp\ccaaSNnd.s 			page 3


  71              	.LVL1:
  72              		.loc 1 45 6 view .LVU14
  73 0026 80B9     		cbnz	r0, .L6
  74              	.L3:
  46:Src/dac.c     ****   {
  47:Src/dac.c     ****     Error_Handler();
  48:Src/dac.c     ****   }
  49:Src/dac.c     **** 
  50:Src/dac.c     ****   HAL_DAC_SetValue(&hdac,DAC_CHANNEL_1,DAC_ALIGN_12B_R,2048);
  75              		.loc 1 50 3 is_stmt 1 view .LVU15
  76 0028 094C     		ldr	r4, .L7
  77 002a 4FF40063 		mov	r3, #2048
  78 002e 0022     		movs	r2, #0
  79 0030 1146     		mov	r1, r2
  80 0032 2046     		mov	r0, r4
  81 0034 FFF7FEFF 		bl	HAL_DAC_SetValue
  82              	.LVL2:
  51:Src/dac.c     ****   HAL_DAC_Start(&hdac,DAC_CHANNEL_1);
  83              		.loc 1 51 3 view .LVU16
  84 0038 0021     		movs	r1, #0
  85 003a 2046     		mov	r0, r4
  86 003c FFF7FEFF 		bl	HAL_DAC_Start
  87              	.LVL3:
  52:Src/dac.c     **** }
  88              		.loc 1 52 1 is_stmt 0 view .LVU17
  89 0040 02B0     		add	sp, sp, #8
  90              	.LCFI2:
  91              		.cfi_remember_state
  92              		.cfi_def_cfa_offset 8
  93              		@ sp needed
  94 0042 10BD     		pop	{r4, pc}
  95              	.L5:
  96              	.LCFI3:
  97              		.cfi_restore_state
  39:Src/dac.c     ****   }
  98              		.loc 1 39 5 is_stmt 1 view .LVU18
  99 0044 FFF7FEFF 		bl	Error_Handler
 100              	.LVL4:
 101 0048 E5E7     		b	.L2
 102              	.L6:
  47:Src/dac.c     ****   }
 103              		.loc 1 47 5 view .LVU19
 104 004a FFF7FEFF 		bl	Error_Handler
 105              	.LVL5:
 106 004e EBE7     		b	.L3
 107              	.L8:
 108              		.align	2
 109              	.L7:
 110 0050 00000000 		.word	hdac
 111 0054 00740040 		.word	1073771520
 112              		.cfi_endproc
 113              	.LFE130:
 115              		.section	.text.HAL_DAC_MspInit,"ax",%progbits
 116              		.align	1
 117              		.global	HAL_DAC_MspInit
 118              		.syntax unified
 119              		.thumb
ARM GAS  C:\Users\ncer\AppData\Local\Temp\ccaaSNnd.s 			page 4


 120              		.thumb_func
 121              		.fpu fpv4-sp-d16
 123              	HAL_DAC_MspInit:
 124              	.LVL6:
 125              	.LFB131:
  53:Src/dac.c     **** 
  54:Src/dac.c     **** void HAL_DAC_MspInit(DAC_HandleTypeDef* dacHandle)
  55:Src/dac.c     **** {
 126              		.loc 1 55 1 view -0
 127              		.cfi_startproc
 128              		@ args = 0, pretend = 0, frame = 32
 129              		@ frame_needed = 0, uses_anonymous_args = 0
 130              		.loc 1 55 1 is_stmt 0 view .LVU21
 131 0000 10B5     		push	{r4, lr}
 132              	.LCFI4:
 133              		.cfi_def_cfa_offset 8
 134              		.cfi_offset 4, -8
 135              		.cfi_offset 14, -4
 136 0002 88B0     		sub	sp, sp, #32
 137              	.LCFI5:
 138              		.cfi_def_cfa_offset 40
  56:Src/dac.c     **** 
  57:Src/dac.c     ****   GPIO_InitTypeDef GPIO_InitStruct = {0};
 139              		.loc 1 57 3 is_stmt 1 view .LVU22
 140              		.loc 1 57 20 is_stmt 0 view .LVU23
 141 0004 0023     		movs	r3, #0
 142 0006 0393     		str	r3, [sp, #12]
 143 0008 0493     		str	r3, [sp, #16]
 144 000a 0593     		str	r3, [sp, #20]
 145 000c 0693     		str	r3, [sp, #24]
 146 000e 0793     		str	r3, [sp, #28]
  58:Src/dac.c     ****   if(dacHandle->Instance==DAC)
 147              		.loc 1 58 3 is_stmt 1 view .LVU24
 148              		.loc 1 58 15 is_stmt 0 view .LVU25
 149 0010 0268     		ldr	r2, [r0]
 150              		.loc 1 58 5 view .LVU26
 151 0012 174B     		ldr	r3, .L13
 152 0014 9A42     		cmp	r2, r3
 153 0016 01D0     		beq	.L12
 154              	.LVL7:
 155              	.L9:
  59:Src/dac.c     ****   {
  60:Src/dac.c     ****   /* USER CODE BEGIN DAC_MspInit 0 */
  61:Src/dac.c     **** 
  62:Src/dac.c     ****   /* USER CODE END DAC_MspInit 0 */
  63:Src/dac.c     ****     /* DAC clock enable */
  64:Src/dac.c     ****     __HAL_RCC_DAC_CLK_ENABLE();
  65:Src/dac.c     ****   
  66:Src/dac.c     ****     __HAL_RCC_GPIOA_CLK_ENABLE();
  67:Src/dac.c     ****     /**DAC GPIO Configuration    
  68:Src/dac.c     ****     PA4     ------> DAC_OUT1 
  69:Src/dac.c     ****     */
  70:Src/dac.c     ****     GPIO_InitStruct.Pin = GPIO_PIN_4;
  71:Src/dac.c     ****     GPIO_InitStruct.Mode = GPIO_MODE_ANALOG;
  72:Src/dac.c     ****     GPIO_InitStruct.Pull = GPIO_NOPULL;
  73:Src/dac.c     ****     HAL_GPIO_Init(GPIOA, &GPIO_InitStruct);
  74:Src/dac.c     **** 
ARM GAS  C:\Users\ncer\AppData\Local\Temp\ccaaSNnd.s 			page 5


  75:Src/dac.c     ****     /* DAC interrupt Init */
  76:Src/dac.c     ****     HAL_NVIC_SetPriority(TIM6_DAC_IRQn, 0, 0);
  77:Src/dac.c     ****     HAL_NVIC_EnableIRQ(TIM6_DAC_IRQn);
  78:Src/dac.c     ****   /* USER CODE BEGIN DAC_MspInit 1 */
  79:Src/dac.c     **** 
  80:Src/dac.c     ****   /* USER CODE END DAC_MspInit 1 */
  81:Src/dac.c     ****   }
  82:Src/dac.c     **** }
 156              		.loc 1 82 1 view .LVU27
 157 0018 08B0     		add	sp, sp, #32
 158              	.LCFI6:
 159              		.cfi_remember_state
 160              		.cfi_def_cfa_offset 8
 161              		@ sp needed
 162 001a 10BD     		pop	{r4, pc}
 163              	.LVL8:
 164              	.L12:
 165              	.LCFI7:
 166              		.cfi_restore_state
  64:Src/dac.c     ****   
 167              		.loc 1 64 5 is_stmt 1 view .LVU28
 168              	.LBB2:
  64:Src/dac.c     ****   
 169              		.loc 1 64 5 view .LVU29
 170 001c 0024     		movs	r4, #0
 171 001e 0194     		str	r4, [sp, #4]
  64:Src/dac.c     ****   
 172              		.loc 1 64 5 view .LVU30
 173 0020 03F5E233 		add	r3, r3, #115712
 174 0024 1A6C     		ldr	r2, [r3, #64]
 175 0026 42F00052 		orr	r2, r2, #536870912
 176 002a 1A64     		str	r2, [r3, #64]
  64:Src/dac.c     ****   
 177              		.loc 1 64 5 view .LVU31
 178 002c 1A6C     		ldr	r2, [r3, #64]
 179 002e 02F00052 		and	r2, r2, #536870912
 180 0032 0192     		str	r2, [sp, #4]
  64:Src/dac.c     ****   
 181              		.loc 1 64 5 view .LVU32
 182 0034 019A     		ldr	r2, [sp, #4]
 183              	.LBE2:
  64:Src/dac.c     ****   
 184              		.loc 1 64 5 view .LVU33
  66:Src/dac.c     ****     /**DAC GPIO Configuration    
 185              		.loc 1 66 5 view .LVU34
 186              	.LBB3:
  66:Src/dac.c     ****     /**DAC GPIO Configuration    
 187              		.loc 1 66 5 view .LVU35
 188 0036 0294     		str	r4, [sp, #8]
  66:Src/dac.c     ****     /**DAC GPIO Configuration    
 189              		.loc 1 66 5 view .LVU36
 190 0038 1A6B     		ldr	r2, [r3, #48]
 191 003a 42F00102 		orr	r2, r2, #1
 192 003e 1A63     		str	r2, [r3, #48]
  66:Src/dac.c     ****     /**DAC GPIO Configuration    
 193              		.loc 1 66 5 view .LVU37
 194 0040 1B6B     		ldr	r3, [r3, #48]
ARM GAS  C:\Users\ncer\AppData\Local\Temp\ccaaSNnd.s 			page 6


 195 0042 03F00103 		and	r3, r3, #1
 196 0046 0293     		str	r3, [sp, #8]
  66:Src/dac.c     ****     /**DAC GPIO Configuration    
 197              		.loc 1 66 5 view .LVU38
 198 0048 029B     		ldr	r3, [sp, #8]
 199              	.LBE3:
  66:Src/dac.c     ****     /**DAC GPIO Configuration    
 200              		.loc 1 66 5 view .LVU39
  70:Src/dac.c     ****     GPIO_InitStruct.Mode = GPIO_MODE_ANALOG;
 201              		.loc 1 70 5 view .LVU40
  70:Src/dac.c     ****     GPIO_InitStruct.Mode = GPIO_MODE_ANALOG;
 202              		.loc 1 70 25 is_stmt 0 view .LVU41
 203 004a 1023     		movs	r3, #16
 204 004c 0393     		str	r3, [sp, #12]
  71:Src/dac.c     ****     GPIO_InitStruct.Pull = GPIO_NOPULL;
 205              		.loc 1 71 5 is_stmt 1 view .LVU42
  71:Src/dac.c     ****     GPIO_InitStruct.Pull = GPIO_NOPULL;
 206              		.loc 1 71 26 is_stmt 0 view .LVU43
 207 004e 0323     		movs	r3, #3
 208 0050 0493     		str	r3, [sp, #16]
  72:Src/dac.c     ****     HAL_GPIO_Init(GPIOA, &GPIO_InitStruct);
 209              		.loc 1 72 5 is_stmt 1 view .LVU44
  72:Src/dac.c     ****     HAL_GPIO_Init(GPIOA, &GPIO_InitStruct);
 210              		.loc 1 72 26 is_stmt 0 view .LVU45
 211 0052 0594     		str	r4, [sp, #20]
  73:Src/dac.c     **** 
 212              		.loc 1 73 5 is_stmt 1 view .LVU46
 213 0054 03A9     		add	r1, sp, #12
 214 0056 0748     		ldr	r0, .L13+4
 215              	.LVL9:
  73:Src/dac.c     **** 
 216              		.loc 1 73 5 is_stmt 0 view .LVU47
 217 0058 FFF7FEFF 		bl	HAL_GPIO_Init
 218              	.LVL10:
  76:Src/dac.c     ****     HAL_NVIC_EnableIRQ(TIM6_DAC_IRQn);
 219              		.loc 1 76 5 is_stmt 1 view .LVU48
 220 005c 2246     		mov	r2, r4
 221 005e 2146     		mov	r1, r4
 222 0060 3620     		movs	r0, #54
 223 0062 FFF7FEFF 		bl	HAL_NVIC_SetPriority
 224              	.LVL11:
  77:Src/dac.c     ****   /* USER CODE BEGIN DAC_MspInit 1 */
 225              		.loc 1 77 5 view .LVU49
 226 0066 3620     		movs	r0, #54
 227 0068 FFF7FEFF 		bl	HAL_NVIC_EnableIRQ
 228              	.LVL12:
 229              		.loc 1 82 1 is_stmt 0 view .LVU50
 230 006c D4E7     		b	.L9
 231              	.L14:
 232 006e 00BF     		.align	2
 233              	.L13:
 234 0070 00740040 		.word	1073771520
 235 0074 00000240 		.word	1073872896
 236              		.cfi_endproc
 237              	.LFE131:
 239              		.section	.text.HAL_DAC_MspDeInit,"ax",%progbits
 240              		.align	1
ARM GAS  C:\Users\ncer\AppData\Local\Temp\ccaaSNnd.s 			page 7


 241              		.global	HAL_DAC_MspDeInit
 242              		.syntax unified
 243              		.thumb
 244              		.thumb_func
 245              		.fpu fpv4-sp-d16
 247              	HAL_DAC_MspDeInit:
 248              	.LVL13:
 249              	.LFB132:
  83:Src/dac.c     **** 
  84:Src/dac.c     **** void HAL_DAC_MspDeInit(DAC_HandleTypeDef* dacHandle)
  85:Src/dac.c     **** {
 250              		.loc 1 85 1 is_stmt 1 view -0
 251              		.cfi_startproc
 252              		@ args = 0, pretend = 0, frame = 0
 253              		@ frame_needed = 0, uses_anonymous_args = 0
 254              		.loc 1 85 1 is_stmt 0 view .LVU52
 255 0000 08B5     		push	{r3, lr}
 256              	.LCFI8:
 257              		.cfi_def_cfa_offset 8
 258              		.cfi_offset 3, -8
 259              		.cfi_offset 14, -4
  86:Src/dac.c     **** 
  87:Src/dac.c     ****   if(dacHandle->Instance==DAC)
 260              		.loc 1 87 3 is_stmt 1 view .LVU53
 261              		.loc 1 87 15 is_stmt 0 view .LVU54
 262 0002 0268     		ldr	r2, [r0]
 263              		.loc 1 87 5 view .LVU55
 264 0004 064B     		ldr	r3, .L19
 265 0006 9A42     		cmp	r2, r3
 266 0008 00D0     		beq	.L18
 267              	.LVL14:
 268              	.L15:
  88:Src/dac.c     ****   {
  89:Src/dac.c     ****   /* USER CODE BEGIN DAC_MspDeInit 0 */
  90:Src/dac.c     **** 
  91:Src/dac.c     ****   /* USER CODE END DAC_MspDeInit 0 */
  92:Src/dac.c     ****     /* Peripheral clock disable */
  93:Src/dac.c     ****     __HAL_RCC_DAC_CLK_DISABLE();
  94:Src/dac.c     ****   
  95:Src/dac.c     ****     /**DAC GPIO Configuration    
  96:Src/dac.c     ****     PA4     ------> DAC_OUT1 
  97:Src/dac.c     ****     */
  98:Src/dac.c     ****     HAL_GPIO_DeInit(GPIOA, GPIO_PIN_4);
  99:Src/dac.c     **** 
 100:Src/dac.c     ****     /* DAC interrupt Deinit */
 101:Src/dac.c     ****   /* USER CODE BEGIN DAC:TIM6_DAC_IRQn disable */
 102:Src/dac.c     ****     /**
 103:Src/dac.c     ****     * Uncomment the line below to disable the "TIM6_DAC_IRQn" interrupt
 104:Src/dac.c     ****     * Be aware, disabling shared interrupt may affect other IPs
 105:Src/dac.c     ****     */
 106:Src/dac.c     ****     /* HAL_NVIC_DisableIRQ(TIM6_DAC_IRQn); */
 107:Src/dac.c     ****   /* USER CODE END DAC:TIM6_DAC_IRQn disable */
 108:Src/dac.c     **** 
 109:Src/dac.c     ****   /* USER CODE BEGIN DAC_MspDeInit 1 */
 110:Src/dac.c     **** 
 111:Src/dac.c     ****   /* USER CODE END DAC_MspDeInit 1 */
 112:Src/dac.c     ****   }
ARM GAS  C:\Users\ncer\AppData\Local\Temp\ccaaSNnd.s 			page 8


 113:Src/dac.c     **** } 
 269              		.loc 1 113 1 view .LVU56
 270 000a 08BD     		pop	{r3, pc}
 271              	.LVL15:
 272              	.L18:
  93:Src/dac.c     ****   
 273              		.loc 1 93 5 is_stmt 1 view .LVU57
 274 000c 054A     		ldr	r2, .L19+4
 275 000e 136C     		ldr	r3, [r2, #64]
 276 0010 23F00053 		bic	r3, r3, #536870912
 277 0014 1364     		str	r3, [r2, #64]
  98:Src/dac.c     **** 
 278              		.loc 1 98 5 view .LVU58
 279 0016 1021     		movs	r1, #16
 280 0018 0348     		ldr	r0, .L19+8
 281              	.LVL16:
  98:Src/dac.c     **** 
 282              		.loc 1 98 5 is_stmt 0 view .LVU59
 283 001a FFF7FEFF 		bl	HAL_GPIO_DeInit
 284              	.LVL17:
 285              		.loc 1 113 1 view .LVU60
 286 001e F4E7     		b	.L15
 287              	.L20:
 288              		.align	2
 289              	.L19:
 290 0020 00740040 		.word	1073771520
 291 0024 00380240 		.word	1073887232
 292 0028 00000240 		.word	1073872896
 293              		.cfi_endproc
 294              	.LFE132:
 296              		.comm	hdac,20,4
 297              		.text
 298              	.Letext0:
 299              		.file 2 "c:\\arm_gcc\\arm-none-eabi\\include\\machine\\_default_types.h"
 300              		.file 3 "c:\\arm_gcc\\arm-none-eabi\\include\\sys\\_stdint.h"
 301              		.file 4 "Drivers/CMSIS/Include/core_cm4.h"
 302              		.file 5 "Drivers/CMSIS/Device/ST/STM32F4xx/Include/system_stm32f4xx.h"
 303              		.file 6 "Drivers/CMSIS/Device/ST/STM32F4xx/Include/stm32f405xx.h"
 304              		.file 7 "Drivers/STM32F4xx_HAL_Driver/Inc/stm32f4xx_hal_def.h"
 305              		.file 8 "Drivers/STM32F4xx_HAL_Driver/Inc/stm32f4xx_hal_gpio.h"
 306              		.file 9 "Drivers/STM32F4xx_HAL_Driver/Inc/stm32f4xx_hal_dma.h"
 307              		.file 10 "Drivers/STM32F4xx_HAL_Driver/Inc/stm32f4xx_hal_dac.h"
 308              		.file 11 "Drivers/STM32F4xx_HAL_Driver/Inc/stm32f4xx_hal.h"
 309              		.file 12 "Inc/dac.h"
 310              		.file 13 "Drivers/STM32F4xx_HAL_Driver/Inc/stm32f4xx_hal_cortex.h"
 311              		.file 14 "Inc/main.h"
ARM GAS  C:\Users\ncer\AppData\Local\Temp\ccaaSNnd.s 			page 9

