Archive member included to satisfy reference by file (symbol)

c:/arm_gcc/bin/../lib/gcc/arm-none-eabi/9.2.1/../../../../arm-none-eabi/lib/thumb/v7e-m+fp/hard\libc_nano.a(lib_a-atof.o)
                              build_my/command.o (atof)
c:/arm_gcc/bin/../lib/gcc/arm-none-eabi/9.2.1/../../../../arm-none-eabi/lib/thumb/v7e-m+fp/hard\libc_nano.a(lib_a-ctype_.o)
                              build_my/command.o (_ctype_)
c:/arm_gcc/bin/../lib/gcc/arm-none-eabi/9.2.1/../../../../arm-none-eabi/lib/thumb/v7e-m+fp/hard\libc_nano.a(lib_a-exit.o)
                              c:/arm_gcc/bin/../lib/gcc/arm-none-eabi/9.2.1/../../../../arm-none-eabi/lib/thumb/v7e-m+fp/hard/crt0.o (exit)
c:/arm_gcc/bin/../lib/gcc/arm-none-eabi/9.2.1/../../../../arm-none-eabi/lib/thumb/v7e-m+fp/hard\libc_nano.a(lib_a-impure.o)
                              c:/arm_gcc/bin/../lib/gcc/arm-none-eabi/9.2.1/../../../../arm-none-eabi/lib/thumb/v7e-m+fp/hard\libc_nano.a(lib_a-exit.o) (_global_impure_ptr)
c:/arm_gcc/bin/../lib/gcc/arm-none-eabi/9.2.1/../../../../arm-none-eabi/lib/thumb/v7e-m+fp/hard\libc_nano.a(lib_a-init.o)
                              c:/arm_gcc/bin/../lib/gcc/arm-none-eabi/9.2.1/../../../../arm-none-eabi/lib/thumb/v7e-m+fp/hard/crt0.o (__libc_init_array)
c:/arm_gcc/bin/../lib/gcc/arm-none-eabi/9.2.1/../../../../arm-none-eabi/lib/thumb/v7e-m+fp/hard\libc_nano.a(lib_a-malloc.o)
                              build_my/command.o (malloc)
c:/arm_gcc/bin/../lib/gcc/arm-none-eabi/9.2.1/../../../../arm-none-eabi/lib/thumb/v7e-m+fp/hard\libc_nano.a(lib_a-memcpy-stub.o)
                              build_my/soft_i2c.o (memcpy)
c:/arm_gcc/bin/../lib/gcc/arm-none-eabi/9.2.1/../../../../arm-none-eabi/lib/thumb/v7e-m+fp/hard\libc_nano.a(lib_a-memset.o)
                              c:/arm_gcc/bin/../lib/gcc/arm-none-eabi/9.2.1/../../../../arm-none-eabi/lib/thumb/v7e-m+fp/hard/crt0.o (memset)
c:/arm_gcc/bin/../lib/gcc/arm-none-eabi/9.2.1/../../../../arm-none-eabi/lib/thumb/v7e-m+fp/hard\libc_nano.a(lib_a-nano-freer.o)
                              c:/arm_gcc/bin/../lib/gcc/arm-none-eabi/9.2.1/../../../../arm-none-eabi/lib/thumb/v7e-m+fp/hard\libc_nano.a(lib_a-malloc.o) (_free_r)
c:/arm_gcc/bin/../lib/gcc/arm-none-eabi/9.2.1/../../../../arm-none-eabi/lib/thumb/v7e-m+fp/hard\libc_nano.a(lib_a-nano-mallocr.o)
                              c:/arm_gcc/bin/../lib/gcc/arm-none-eabi/9.2.1/../../../../arm-none-eabi/lib/thumb/v7e-m+fp/hard\libc_nano.a(lib_a-malloc.o) (_malloc_r)
c:/arm_gcc/bin/../lib/gcc/arm-none-eabi/9.2.1/../../../../arm-none-eabi/lib/thumb/v7e-m+fp/hard\libc_nano.a(lib_a-nano-vfprintf_float.o)
                              (_printf_float)
c:/arm_gcc/bin/../lib/gcc/arm-none-eabi/9.2.1/../../../../arm-none-eabi/lib/thumb/v7e-m+fp/hard\libc_nano.a(lib_a-nano-vfprintf_i.o)
                              c:/arm_gcc/bin/../lib/gcc/arm-none-eabi/9.2.1/../../../../arm-none-eabi/lib/thumb/v7e-m+fp/hard\libc_nano.a(lib_a-nano-vfprintf_float.o) (_printf_common)
c:/arm_gcc/bin/../lib/gcc/arm-none-eabi/9.2.1/../../../../arm-none-eabi/lib/thumb/v7e-m+fp/hard\libc_nano.a(lib_a-sbrkr.o)
                              c:/arm_gcc/bin/../lib/gcc/arm-none-eabi/9.2.1/../../../../arm-none-eabi/lib/thumb/v7e-m+fp/hard\libc_nano.a(lib_a-nano-mallocr.o) (_sbrk_r)
c:/arm_gcc/bin/../lib/gcc/arm-none-eabi/9.2.1/../../../../arm-none-eabi/lib/thumb/v7e-m+fp/hard\libc_nano.a(lib_a-strlen.o)
                              c:/arm_gcc/bin/../lib/gcc/arm-none-eabi/9.2.1/../../../../arm-none-eabi/lib/thumb/v7e-m+fp/hard\libc_nano.a(lib_a-nano-vfprintf_float.o) (strlen)
c:/arm_gcc/bin/../lib/gcc/arm-none-eabi/9.2.1/../../../../arm-none-eabi/lib/thumb/v7e-m+fp/hard\libc_nano.a(lib_a-strtod.o)
                              c:/arm_gcc/bin/../lib/gcc/arm-none-eabi/9.2.1/../../../../arm-none-eabi/lib/thumb/v7e-m+fp/hard\libc_nano.a(lib_a-atof.o) (strtod)
c:/arm_gcc/bin/../lib/gcc/arm-none-eabi/9.2.1/../../../../arm-none-eabi/lib/thumb/v7e-m+fp/hard\libc_nano.a(lib_a-vsnprintf.o)
                              build_my/uart_ext.o (vsnprintf)
c:/arm_gcc/bin/../lib/gcc/arm-none-eabi/9.2.1/../../../../arm-none-eabi/lib/thumb/v7e-m+fp/hard\libc_nano.a(lib_a-dtoa.o)
                              c:/arm_gcc/bin/../lib/gcc/arm-none-eabi/9.2.1/../../../../arm-none-eabi/lib/thumb/v7e-m+fp/hard\libc_nano.a(lib_a-nano-vfprintf_float.o) (_dtoa_r)
c:/arm_gcc/bin/../lib/gcc/arm-none-eabi/9.2.1/../../../../arm-none-eabi/lib/thumb/v7e-m+fp/hard\libc_nano.a(lib_a-gdtoa-gethex.o)
                              c:/arm_gcc/bin/../lib/gcc/arm-none-eabi/9.2.1/../../../../arm-none-eabi/lib/thumb/v7e-m+fp/hard\libc_nano.a(lib_a-strtod.o) (__gethex)
c:/arm_gcc/bin/../lib/gcc/arm-none-eabi/9.2.1/../../../../arm-none-eabi/lib/thumb/v7e-m+fp/hard\libc_nano.a(lib_a-gdtoa-hexnan.o)
                              c:/arm_gcc/bin/../lib/gcc/arm-none-eabi/9.2.1/../../../../arm-none-eabi/lib/thumb/v7e-m+fp/hard\libc_nano.a(lib_a-strtod.o) (__match)
c:/arm_gcc/bin/../lib/gcc/arm-none-eabi/9.2.1/../../../../arm-none-eabi/lib/thumb/v7e-m+fp/hard\libc_nano.a(lib_a-lnumeric.o)
                              c:/arm_gcc/bin/../lib/gcc/arm-none-eabi/9.2.1/../../../../arm-none-eabi/lib/thumb/v7e-m+fp/hard\libc_nano.a(lib_a-strtod.o) (_C_numeric_locale)
c:/arm_gcc/bin/../lib/gcc/arm-none-eabi/9.2.1/../../../../arm-none-eabi/lib/thumb/v7e-m+fp/hard\libc_nano.a(lib_a-locale.o)
                              c:/arm_gcc/bin/../lib/gcc/arm-none-eabi/9.2.1/../../../../arm-none-eabi/lib/thumb/v7e-m+fp/hard\libc_nano.a(lib_a-strtod.o) (__global_locale)
c:/arm_gcc/bin/../lib/gcc/arm-none-eabi/9.2.1/../../../../arm-none-eabi/lib/thumb/v7e-m+fp/hard\libc_nano.a(lib_a-localeconv.o)
                              c:/arm_gcc/bin/../lib/gcc/arm-none-eabi/9.2.1/../../../../arm-none-eabi/lib/thumb/v7e-m+fp/hard\libc_nano.a(lib_a-nano-vfprintf_float.o) (_localeconv_r)
c:/arm_gcc/bin/../lib/gcc/arm-none-eabi/9.2.1/../../../../arm-none-eabi/lib/thumb/v7e-m+fp/hard\libc_nano.a(lib_a-mbtowc_r.o)
                              c:/arm_gcc/bin/../lib/gcc/arm-none-eabi/9.2.1/../../../../arm-none-eabi/lib/thumb/v7e-m+fp/hard\libc_nano.a(lib_a-locale.o) (__ascii_mbtowc)
c:/arm_gcc/bin/../lib/gcc/arm-none-eabi/9.2.1/../../../../arm-none-eabi/lib/thumb/v7e-m+fp/hard\libc_nano.a(lib_a-memchr.o)
                              c:/arm_gcc/bin/../lib/gcc/arm-none-eabi/9.2.1/../../../../arm-none-eabi/lib/thumb/v7e-m+fp/hard\libc_nano.a(lib_a-nano-vfprintf_i.o) (memchr)
c:/arm_gcc/bin/../lib/gcc/arm-none-eabi/9.2.1/../../../../arm-none-eabi/lib/thumb/v7e-m+fp/hard\libc_nano.a(lib_a-mlock.o)
                              c:/arm_gcc/bin/../lib/gcc/arm-none-eabi/9.2.1/../../../../arm-none-eabi/lib/thumb/v7e-m+fp/hard\libc_nano.a(lib_a-nano-freer.o) (__malloc_lock)
c:/arm_gcc/bin/../lib/gcc/arm-none-eabi/9.2.1/../../../../arm-none-eabi/lib/thumb/v7e-m+fp/hard\libc_nano.a(lib_a-mprec.o)
                              c:/arm_gcc/bin/../lib/gcc/arm-none-eabi/9.2.1/../../../../arm-none-eabi/lib/thumb/v7e-m+fp/hard\libc_nano.a(lib_a-strtod.o) (_Balloc)
c:/arm_gcc/bin/../lib/gcc/arm-none-eabi/9.2.1/../../../../arm-none-eabi/lib/thumb/v7e-m+fp/hard\libc_nano.a(lib_a-nano-callocr.o)
                              c:/arm_gcc/bin/../lib/gcc/arm-none-eabi/9.2.1/../../../../arm-none-eabi/lib/thumb/v7e-m+fp/hard\libc_nano.a(lib_a-mprec.o) (_calloc_r)
c:/arm_gcc/bin/../lib/gcc/arm-none-eabi/9.2.1/../../../../arm-none-eabi/lib/thumb/v7e-m+fp/hard\libc_nano.a(lib_a-nano-svfprintf.o)
                              c:/arm_gcc/bin/../lib/gcc/arm-none-eabi/9.2.1/../../../../arm-none-eabi/lib/thumb/v7e-m+fp/hard\libc_nano.a(lib_a-vsnprintf.o) (_svfprintf_r)
c:/arm_gcc/bin/../lib/gcc/arm-none-eabi/9.2.1/../../../../arm-none-eabi/lib/thumb/v7e-m+fp/hard\libc_nano.a(lib_a-reent.o)
                              c:/arm_gcc/bin/../lib/gcc/arm-none-eabi/9.2.1/../../../../arm-none-eabi/lib/thumb/v7e-m+fp/hard\libc_nano.a(lib_a-sbrkr.o) (errno)
c:/arm_gcc/bin/../lib/gcc/arm-none-eabi/9.2.1/../../../../arm-none-eabi/lib/thumb/v7e-m+fp/hard\libc_nano.a(lib_a-s_nan.o)
                              c:/arm_gcc/bin/../lib/gcc/arm-none-eabi/9.2.1/../../../../arm-none-eabi/lib/thumb/v7e-m+fp/hard\libc_nano.a(lib_a-strtod.o) (nan)
c:/arm_gcc/bin/../lib/gcc/arm-none-eabi/9.2.1/../../../../arm-none-eabi/lib/thumb/v7e-m+fp/hard\libc_nano.a(lib_a-sf_nan.o)
                              c:/arm_gcc/bin/../lib/gcc/arm-none-eabi/9.2.1/../../../../arm-none-eabi/lib/thumb/v7e-m+fp/hard\libc_nano.a(lib_a-strtod.o) (nanf)
c:/arm_gcc/bin/../lib/gcc/arm-none-eabi/9.2.1/../../../../arm-none-eabi/lib/thumb/v7e-m+fp/hard\libc_nano.a(lib_a-strcmp.o)
                              c:/arm_gcc/bin/../lib/gcc/arm-none-eabi/9.2.1/../../../../arm-none-eabi/lib/thumb/v7e-m+fp/hard\libc_nano.a(lib_a-locale.o) (strcmp)
c:/arm_gcc/bin/../lib/gcc/arm-none-eabi/9.2.1/../../../../arm-none-eabi/lib/thumb/v7e-m+fp/hard\libc_nano.a(lib_a-strncmp.o)
                              c:/arm_gcc/bin/../lib/gcc/arm-none-eabi/9.2.1/../../../../arm-none-eabi/lib/thumb/v7e-m+fp/hard\libc_nano.a(lib_a-strtod.o) (strncmp)
c:/arm_gcc/bin/../lib/gcc/arm-none-eabi/9.2.1/../../../../arm-none-eabi/lib/thumb/v7e-m+fp/hard\libc_nano.a(lib_a-wctomb_r.o)
                              c:/arm_gcc/bin/../lib/gcc/arm-none-eabi/9.2.1/../../../../arm-none-eabi/lib/thumb/v7e-m+fp/hard\libc_nano.a(lib_a-locale.o) (__ascii_wctomb)
c:/arm_gcc/bin/../lib/gcc/arm-none-eabi/9.2.1/../../../../arm-none-eabi/lib/thumb/v7e-m+fp/hard\libc_nano.a(lib_a-lock.o)
                              c:/arm_gcc/bin/../lib/gcc/arm-none-eabi/9.2.1/../../../../arm-none-eabi/lib/thumb/v7e-m+fp/hard\libc_nano.a(lib_a-mlock.o) (__retarget_lock_acquire_recursive)
c:/arm_gcc/bin/../lib/gcc/arm-none-eabi/9.2.1/../../../../arm-none-eabi/lib/thumb/v7e-m+fp/hard\libc_nano.a(lib_a-memmove.o)
                              c:/arm_gcc/bin/../lib/gcc/arm-none-eabi/9.2.1/../../../../arm-none-eabi/lib/thumb/v7e-m+fp/hard\libc_nano.a(lib_a-nano-svfprintf.o) (memmove)
c:/arm_gcc/bin/../lib/gcc/arm-none-eabi/9.2.1/../../../../arm-none-eabi/lib/thumb/v7e-m+fp/hard\libc_nano.a(lib_a-nano-reallocr.o)
                              c:/arm_gcc/bin/../lib/gcc/arm-none-eabi/9.2.1/../../../../arm-none-eabi/lib/thumb/v7e-m+fp/hard\libc_nano.a(lib_a-nano-svfprintf.o) (_realloc_r)
c:/arm_gcc/bin/../lib/gcc/arm-none-eabi/9.2.1/../../../../arm-none-eabi/lib/thumb/v7e-m+fp/hard\libc_nano.a(lib_a-nano-msizer.o)
                              c:/arm_gcc/bin/../lib/gcc/arm-none-eabi/9.2.1/../../../../arm-none-eabi/lib/thumb/v7e-m+fp/hard\libc_nano.a(lib_a-nano-reallocr.o) (_malloc_usable_size_r)
c:/arm_gcc/bin/../lib/gcc/arm-none-eabi/9.2.1/../../../../arm-none-eabi/lib/thumb/v7e-m+fp/hard\libm.a(lib_a-wf_acos.o)
                              build_my/easy_angle.o (acosf)
c:/arm_gcc/bin/../lib/gcc/arm-none-eabi/9.2.1/../../../../arm-none-eabi/lib/thumb/v7e-m+fp/hard\libm.a(lib_a-wf_atan2.o)
                              build_my/SVPWM.o (atan2f)
c:/arm_gcc/bin/../lib/gcc/arm-none-eabi/9.2.1/../../../../arm-none-eabi/lib/thumb/v7e-m+fp/hard\libm.a(lib_a-wf_sqrt.o)
                              build_my/easy_angle.o (sqrtf)
c:/arm_gcc/bin/../lib/gcc/arm-none-eabi/9.2.1/../../../../arm-none-eabi/lib/thumb/v7e-m+fp/hard\libm.a(lib_a-ef_acos.o)
                              c:/arm_gcc/bin/../lib/gcc/arm-none-eabi/9.2.1/../../../../arm-none-eabi/lib/thumb/v7e-m+fp/hard\libm.a(lib_a-wf_acos.o) (__ieee754_acosf)
c:/arm_gcc/bin/../lib/gcc/arm-none-eabi/9.2.1/../../../../arm-none-eabi/lib/thumb/v7e-m+fp/hard\libm.a(lib_a-ef_atan2.o)
                              c:/arm_gcc/bin/../lib/gcc/arm-none-eabi/9.2.1/../../../../arm-none-eabi/lib/thumb/v7e-m+fp/hard\libm.a(lib_a-wf_atan2.o) (__ieee754_atan2f)
c:/arm_gcc/bin/../lib/gcc/arm-none-eabi/9.2.1/../../../../arm-none-eabi/lib/thumb/v7e-m+fp/hard\libm.a(lib_a-ef_sqrt.o)
                              c:/arm_gcc/bin/../lib/gcc/arm-none-eabi/9.2.1/../../../../arm-none-eabi/lib/thumb/v7e-m+fp/hard\libm.a(lib_a-wf_sqrt.o) (__ieee754_sqrtf)
c:/arm_gcc/bin/../lib/gcc/arm-none-eabi/9.2.1/../../../../arm-none-eabi/lib/thumb/v7e-m+fp/hard\libm.a(lib_a-s_lib_ver.o)
                              c:/arm_gcc/bin/../lib/gcc/arm-none-eabi/9.2.1/../../../../arm-none-eabi/lib/thumb/v7e-m+fp/hard\libm.a(lib_a-wf_acos.o) (__fdlib_version)
c:/arm_gcc/bin/../lib/gcc/arm-none-eabi/9.2.1/../../../../arm-none-eabi/lib/thumb/v7e-m+fp/hard\libm.a(lib_a-s_matherr.o)
                              c:/arm_gcc/bin/../lib/gcc/arm-none-eabi/9.2.1/../../../../arm-none-eabi/lib/thumb/v7e-m+fp/hard\libm.a(lib_a-wf_acos.o) (matherr)
c:/arm_gcc/bin/../lib/gcc/arm-none-eabi/9.2.1/../../../../arm-none-eabi/lib/thumb/v7e-m+fp/hard\libm.a(lib_a-sf_atan.o)
                              c:/arm_gcc/bin/../lib/gcc/arm-none-eabi/9.2.1/../../../../arm-none-eabi/lib/thumb/v7e-m+fp/hard\libm.a(lib_a-ef_atan2.o) (atanf)
c:/arm_gcc/bin/../lib/gcc/arm-none-eabi/9.2.1/../../../../arm-none-eabi/lib/thumb/v7e-m+fp/hard\libm.a(lib_a-sf_fabs.o)
                              c:/arm_gcc/bin/../lib/gcc/arm-none-eabi/9.2.1/../../../../arm-none-eabi/lib/thumb/v7e-m+fp/hard\libm.a(lib_a-wf_acos.o) (fabsf)
c:/arm_gcc/bin/../lib/gcc/arm-none-eabi/9.2.1/../../../../arm-none-eabi/lib/thumb/v7e-m+fp/hard\libnosys.a(sbrk.o)
                              c:/arm_gcc/bin/../lib/gcc/arm-none-eabi/9.2.1/../../../../arm-none-eabi/lib/thumb/v7e-m+fp/hard\libc_nano.a(lib_a-sbrkr.o) (_sbrk)
c:/arm_gcc/bin/../lib/gcc/arm-none-eabi/9.2.1/../../../../arm-none-eabi/lib/thumb/v7e-m+fp/hard\libnosys.a(_exit.o)
                              c:/arm_gcc/bin/../lib/gcc/arm-none-eabi/9.2.1/../../../../arm-none-eabi/lib/thumb/v7e-m+fp/hard\libc_nano.a(lib_a-exit.o) (_exit)
c:/arm_gcc/bin/../lib/gcc/arm-none-eabi/9.2.1/thumb/v7e-m+fp/hard\libgcc.a(_arm_muldf3.o)
                              build_my/easy_angle.o (__aeabi_dmul)
c:/arm_gcc/bin/../lib/gcc/arm-none-eabi/9.2.1/thumb/v7e-m+fp/hard\libgcc.a(_arm_addsubdf3.o)
                              build_my/easy_angle.o (__aeabi_dsub)
c:/arm_gcc/bin/../lib/gcc/arm-none-eabi/9.2.1/thumb/v7e-m+fp/hard\libgcc.a(_arm_muldivdf3.o)
                              build_my/easy_angle.o (__aeabi_ddiv)
c:/arm_gcc/bin/../lib/gcc/arm-none-eabi/9.2.1/thumb/v7e-m+fp/hard\libgcc.a(_arm_cmpdf2.o)
                              c:/arm_gcc/bin/../lib/gcc/arm-none-eabi/9.2.1/../../../../arm-none-eabi/lib/thumb/v7e-m+fp/hard\libc_nano.a(lib_a-nano-vfprintf_float.o) (__aeabi_dcmpeq)
c:/arm_gcc/bin/../lib/gcc/arm-none-eabi/9.2.1/thumb/v7e-m+fp/hard\libgcc.a(_arm_unorddf2.o)
                              c:/arm_gcc/bin/../lib/gcc/arm-none-eabi/9.2.1/../../../../arm-none-eabi/lib/thumb/v7e-m+fp/hard\libc_nano.a(lib_a-nano-vfprintf_float.o) (__aeabi_dcmpun)
c:/arm_gcc/bin/../lib/gcc/arm-none-eabi/9.2.1/thumb/v7e-m+fp/hard\libgcc.a(_arm_fixdfsi.o)
                              c:/arm_gcc/bin/../lib/gcc/arm-none-eabi/9.2.1/../../../../arm-none-eabi/lib/thumb/v7e-m+fp/hard\libc_nano.a(lib_a-dtoa.o) (__aeabi_d2iz)
c:/arm_gcc/bin/../lib/gcc/arm-none-eabi/9.2.1/thumb/v7e-m+fp/hard\libgcc.a(_arm_fixunsdfsi.o)
                              build_my/tim.o (__aeabi_d2uiz)
c:/arm_gcc/bin/../lib/gcc/arm-none-eabi/9.2.1/thumb/v7e-m+fp/hard\libgcc.a(_arm_truncdfsf2.o)
                              build_my/command.o (__aeabi_d2f)
c:/arm_gcc/bin/../lib/gcc/arm-none-eabi/9.2.1/thumb/v7e-m+fp/hard\libgcc.a(_aeabi_uldivmod.o)
                              build_my/stm32f4xx_hal_rcc.o (__aeabi_uldivmod)
c:/arm_gcc/bin/../lib/gcc/arm-none-eabi/9.2.1/thumb/v7e-m+fp/hard\libgcc.a(_fixdfdi.o)
                              c:/arm_gcc/bin/../lib/gcc/arm-none-eabi/9.2.1/../../../../arm-none-eabi/lib/thumb/v7e-m+fp/hard\libc_nano.a(lib_a-strtod.o) (__aeabi_d2lz)
c:/arm_gcc/bin/../lib/gcc/arm-none-eabi/9.2.1/thumb/v7e-m+fp/hard\libgcc.a(_fixunsdfdi.o)
                              c:/arm_gcc/bin/../lib/gcc/arm-none-eabi/9.2.1/thumb/v7e-m+fp/hard\libgcc.a(_fixdfdi.o) (__aeabi_d2ulz)
c:/arm_gcc/bin/../lib/gcc/arm-none-eabi/9.2.1/thumb/v7e-m+fp/hard\libgcc.a(_udivmoddi4.o)
                              c:/arm_gcc/bin/../lib/gcc/arm-none-eabi/9.2.1/thumb/v7e-m+fp/hard\libgcc.a(_aeabi_uldivmod.o) (__udivmoddi4)
c:/arm_gcc/bin/../lib/gcc/arm-none-eabi/9.2.1/thumb/v7e-m+fp/hard\libgcc.a(_dvmd_tls.o)
                              c:/arm_gcc/bin/../lib/gcc/arm-none-eabi/9.2.1/thumb/v7e-m+fp/hard\libgcc.a(_aeabi_uldivmod.o) (__aeabi_ldiv0)
c:/arm_gcc/bin/../lib/gcc/arm-none-eabi/9.2.1/../../../../arm-none-eabi/lib/thumb/v7e-m+fp/hard\libc_nano.a(lib_a-errno.o)
                              c:/arm_gcc/bin/../lib/gcc/arm-none-eabi/9.2.1/../../../../arm-none-eabi/lib/thumb/v7e-m+fp/hard\libm.a(lib_a-wf_acos.o) (__errno)

Allocating common symbols
Common symbol       size              file

__lock___atexit_recursive_mutex
                    0x1               c:/arm_gcc/bin/../lib/gcc/arm-none-eabi/9.2.1/../../../../arm-none-eabi/lib/thumb/v7e-m+fp/hard\libc_nano.a(lib_a-lock.o)
Speed               0x4               build_my/foc.o
Position            0x2               build_my/foc.o
__lock___arc4random_mutex
                    0x1               c:/arm_gcc/bin/../lib/gcc/arm-none-eabi/9.2.1/../../../../arm-none-eabi/lib/thumb/v7e-m+fp/hard\libc_nano.a(lib_a-lock.o)
SPI_USE             0x4               build_my/as5047.o
htim8               0x40              build_my/tim.o
errno               0x4               c:/arm_gcc/bin/../lib/gcc/arm-none-eabi/9.2.1/../../../../arm-none-eabi/lib/thumb/v7e-m+fp/hard\libc_nano.a(lib_a-reent.o)
Position_Degree_Set
                    0x4               build_my/foc.o
ibeta               0x4               build_my/foc.o
hadc2               0x48              build_my/adc.o
hpcd_USB_OTG_FS     0x408             build_my/usb_otg.o
iq                  0x4               build_my/foc.o
buffer_rx           0x1e              build_my/uart_ext.o
uwTick              0x4               build_my/stm32f4xx_hal.o
buffer_rx_OK        0x1               build_my/uart_ext.o
pFlash              0x20              build_my/stm32f4xx_hal_flash.o
__lock___env_recursive_mutex
                    0x1               c:/arm_gcc/bin/../lib/gcc/arm-none-eabi/9.2.1/../../../../arm-none-eabi/lib/thumb/v7e-m+fp/hard\libc_nano.a(lib_a-lock.o)
__lock___sinit_recursive_mutex
                    0x1               c:/arm_gcc/bin/../lib/gcc/arm-none-eabi/9.2.1/../../../../arm-none-eabi/lib/thumb/v7e-m+fp/hard\libc_nano.a(lib_a-lock.o)
id                  0x4               build_my/foc.o
hspi3               0x58              build_my/spi.o
__lock___malloc_recursive_mutex
                    0x1               c:/arm_gcc/bin/../lib/gcc/arm-none-eabi/9.2.1/../../../../arm-none-eabi/lib/thumb/v7e-m+fp/hard\libc_nano.a(lib_a-lock.o)
huart5              0x40              build_my/usart.o
hadc1               0x48              build_my/adc.o
MPU9250             0x20              build_my/icm20600.o
hadc3               0x48              build_my/adc.o
uart_buffer         0x65              build_my/uart_ext.o
MPU9250_Setting     0x10              build_my/icm20600.o
ialpha              0x4               build_my/foc.o
hdac                0x14              build_my/dac.o
hdma_adc1           0x60              build_my/adc.o
buffer_rx_temp      0x1               build_my/uart_ext.o
CMD                 0x194             build_my/command.o
htim6               0x40              build_my/tim.o
htim1               0x40              build_my/tim.o
Measure_Sample      0x18              build_my/foc.o
hspi1               0x58              build_my/spi.o
Position_Phase_Degree
                    0x4               build_my/foc.o
__lock___at_quick_exit_mutex
                    0x1               c:/arm_gcc/bin/../lib/gcc/arm-none-eabi/9.2.1/../../../../arm-none-eabi/lib/thumb/v7e-m+fp/hard\libc_nano.a(lib_a-lock.o)
hdma_uart5_rx       0x60              build_my/usart.o
hdma_spi1_rx        0x60              build_my/spi.o
hcan1               0x28              build_my/can.o
__lock___dd_hash_mutex
                    0x1               c:/arm_gcc/bin/../lib/gcc/arm-none-eabi/9.2.1/../../../../arm-none-eabi/lib/thumb/v7e-m+fp/hard\libc_nano.a(lib_a-lock.o)
__lock___tz_mutex   0x1               c:/arm_gcc/bin/../lib/gcc/arm-none-eabi/9.2.1/../../../../arm-none-eabi/lib/thumb/v7e-m+fp/hard\libc_nano.a(lib_a-lock.o)
htim7               0x40              build_my/tim.o
hdma_spi1_tx        0x60              build_my/spi.o
Position_Degree     0x4               build_my/foc.o
AS_5047_Err         0x2               build_my/as5047.o
hdma_uart5_tx       0x60              build_my/usart.o
__lock___sfp_recursive_mutex
                    0x1               c:/arm_gcc/bin/../lib/gcc/arm-none-eabi/9.2.1/../../../../arm-none-eabi/lib/thumb/v7e-m+fp/hard\libc_nano.a(lib_a-lock.o)

Discarded input sections

 .text          0x00000000        0x0 c:/arm_gcc/bin/../lib/gcc/arm-none-eabi/9.2.1/thumb/v7e-m+fp/hard/crti.o
 .data          0x00000000        0x0 c:/arm_gcc/bin/../lib/gcc/arm-none-eabi/9.2.1/thumb/v7e-m+fp/hard/crti.o
 .bss           0x00000000        0x0 c:/arm_gcc/bin/../lib/gcc/arm-none-eabi/9.2.1/thumb/v7e-m+fp/hard/crti.o
 .data          0x00000000        0x4 c:/arm_gcc/bin/../lib/gcc/arm-none-eabi/9.2.1/thumb/v7e-m+fp/hard/crtbegin.o
 .text          0x00000000       0x74 c:/arm_gcc/bin/../lib/gcc/arm-none-eabi/9.2.1/../../../../arm-none-eabi/lib/thumb/v7e-m+fp/hard/crt0.o
 .data          0x00000000        0x0 c:/arm_gcc/bin/../lib/gcc/arm-none-eabi/9.2.1/../../../../arm-none-eabi/lib/thumb/v7e-m+fp/hard/crt0.o
 .bss           0x00000000        0x0 c:/arm_gcc/bin/../lib/gcc/arm-none-eabi/9.2.1/../../../../arm-none-eabi/lib/thumb/v7e-m+fp/hard/crt0.o
 .ARM.extab     0x00000000        0x0 c:/arm_gcc/bin/../lib/gcc/arm-none-eabi/9.2.1/../../../../arm-none-eabi/lib/thumb/v7e-m+fp/hard/crt0.o
 .ARM.exidx     0x00000000        0x8 c:/arm_gcc/bin/../lib/gcc/arm-none-eabi/9.2.1/../../../../arm-none-eabi/lib/thumb/v7e-m+fp/hard/crt0.o
 .ARM.attributes
                0x00000000       0x1c c:/arm_gcc/bin/../lib/gcc/arm-none-eabi/9.2.1/../../../../arm-none-eabi/lib/thumb/v7e-m+fp/hard/crt0.o
 .text          0x00000000        0x0 build_my/main.o
 .data          0x00000000        0x0 build_my/main.o
 .bss           0x00000000        0x0 build_my/main.o
 .bss.Ms_5_Flag
                0x00000000        0x1 build_my/main.o
 .text          0x00000000        0x0 build_my/uart_ext.o
 .data          0x00000000        0x0 build_my/uart_ext.o
 .bss           0x00000000        0x0 build_my/uart_ext.o
 .text.UART_Large_Reveice
                0x00000000        0x2 build_my/uart_ext.o
 .text          0x00000000        0x0 build_my/command.o
 .data          0x00000000        0x0 build_my/command.o
 .bss           0x00000000        0x0 build_my/command.o
 .text          0x00000000        0x0 build_my/as5047.o
 .data          0x00000000        0x0 build_my/as5047.o
 .bss           0x00000000        0x0 build_my/as5047.o
 .text.Get_Position_Rad_Dgree
                0x00000000       0x10 build_my/as5047.o
 .text          0x00000000        0x0 build_my/pid.o
 .data          0x00000000        0x0 build_my/pid.o
 .bss           0x00000000        0x0 build_my/pid.o
 .text.reset_PID
                0x00000000        0xa build_my/pid.o
 .text          0x00000000        0x0 build_my/soft_i2c.o
 .data          0x00000000        0x0 build_my/soft_i2c.o
 .bss           0x00000000        0x0 build_my/soft_i2c.o
 .text.Soft_I2C_Init
                0x00000000       0x78 build_my/soft_i2c.o
 .text.I2C_delay
                0x00000000        0xe build_my/soft_i2c.o
 .text.I2C_Ack  0x00000000       0x60 build_my/soft_i2c.o
 .text.I2C_NoAck
                0x00000000       0x50 build_my/soft_i2c.o
 .text.I2C_Start
                0x00000000       0x70 build_my/soft_i2c.o
 .text.I2C_GetAck
                0x00000000       0x74 build_my/soft_i2c.o
 .text.I2C_SendByte
                0x00000000       0x80 build_my/soft_i2c.o
 .text.I2C_ReadByte
                0x00000000       0x74 build_my/soft_i2c.o
 .text.I2C_Stop
                0x00000000       0x4c build_my/soft_i2c.o
 .text.I2C_Write_Buffer
                0x00000000       0x52 build_my/soft_i2c.o
 .text.I2C_Read_Buffer
                0x00000000       0x5c build_my/soft_i2c.o
 .text.I2C_Reset
                0x00000000        0x2 build_my/soft_i2c.o
 .bss.SCL_Pin   0x00000000        0x2 build_my/soft_i2c.o
 .bss.SCL_Port  0x00000000        0x4 build_my/soft_i2c.o
 .bss.SDA_Pin   0x00000000        0x2 build_my/soft_i2c.o
 .bss.SDA_Port  0x00000000        0x4 build_my/soft_i2c.o
 .debug_info    0x00000000     0x14c5 build_my/soft_i2c.o
 .debug_abbrev  0x00000000      0x32a build_my/soft_i2c.o
 .debug_loc     0x00000000      0x4e9 build_my/soft_i2c.o
 .debug_aranges
                0x00000000       0x78 build_my/soft_i2c.o
 .debug_ranges  0x00000000       0x68 build_my/soft_i2c.o
 .debug_line    0x00000000      0x5ad build_my/soft_i2c.o
 .debug_str     0x00000000      0x87d build_my/soft_i2c.o
 .comment       0x00000000       0x7a build_my/soft_i2c.o
 .debug_frame   0x00000000      0x1a0 build_my/soft_i2c.o
 .ARM.attributes
                0x00000000       0x34 build_my/soft_i2c.o
 .text          0x00000000        0x0 build_my/icm20600.o
 .data          0x00000000        0x0 build_my/icm20600.o
 .bss           0x00000000        0x0 build_my/icm20600.o
 .text.mpu_write_byte
                0x00000000       0x34 build_my/icm20600.o
 .text.mpu_read_byte
                0x00000000       0x3a build_my/icm20600.o
 .text.mpu_error_deal
                0x00000000       0x1c build_my/icm20600.o
 .text.I2C_Error_Check
                0x00000000       0x22 build_my/icm20600.o
 .text.MPU_Read6500
                0x00000000       0xae build_my/icm20600.o
 .text.Gyroraw_to_Angle_Speed
                0x00000000       0x74 build_my/icm20600.o
 .text.MPU9250_Init
                0x00000000      0x1ac build_my/icm20600.o
 .bss.temp_read
                0x00000000        0x1 build_my/icm20600.o
 .debug_info    0x00000000      0x959 build_my/icm20600.o
 .debug_abbrev  0x00000000      0x2e9 build_my/icm20600.o
 .debug_loc     0x00000000      0x444 build_my/icm20600.o
 .debug_aranges
                0x00000000       0x50 build_my/icm20600.o
 .debug_ranges  0x00000000       0x40 build_my/icm20600.o
 .debug_line    0x00000000      0x56f build_my/icm20600.o
 .debug_str     0x00000000      0x51e build_my/icm20600.o
 .comment       0x00000000       0x7a build_my/icm20600.o
 .debug_frame   0x00000000      0x104 build_my/icm20600.o
 .ARM.attributes
                0x00000000       0x34 build_my/icm20600.o
 COMMON         0x00000000       0x30 build_my/icm20600.o
 .text          0x00000000        0x0 build_my/easy_angle.o
 .data          0x00000000        0x0 build_my/easy_angle.o
 .bss           0x00000000        0x0 build_my/easy_angle.o
 .text.get_angle
                0x00000000      0x1bc build_my/easy_angle.o
 .data.gyro_k   0x00000000        0xc build_my/easy_angle.o
 .debug_info    0x00000000      0xb85 build_my/easy_angle.o
 .debug_abbrev  0x00000000      0x24f build_my/easy_angle.o
 .debug_loc     0x00000000      0x1ba build_my/easy_angle.o
 .debug_aranges
                0x00000000       0x20 build_my/easy_angle.o
 .debug_ranges  0x00000000       0x10 build_my/easy_angle.o
 .debug_line    0x00000000      0x247 build_my/easy_angle.o
 .debug_str     0x00000000      0x62e build_my/easy_angle.o
 .comment       0x00000000       0x7a build_my/easy_angle.o
 .debug_frame   0x00000000       0x64 build_my/easy_angle.o
 .ARM.attributes
                0x00000000       0x34 build_my/easy_angle.o
 .text          0x00000000        0x0 build_my/debug_utils.o
 .data          0x00000000        0x0 build_my/debug_utils.o
 .bss           0x00000000        0x0 build_my/debug_utils.o
 .text          0x00000000        0x0 build_my/spi_slave.o
 .data          0x00000000        0x0 build_my/spi_slave.o
 .bss           0x00000000        0x0 build_my/spi_slave.o
 .text.SPI_COM_Master_Init
                0x00000000        0xc build_my/spi_slave.o
 .text.SPI_COM_Master_Read_Reg
                0x00000000       0x74 build_my/spi_slave.o
 .text.SPI_COM_Master_Write_Reg
                0x00000000       0x66 build_my/spi_slave.o
 .text          0x00000000        0x0 build_my/utils.o
 .data          0x00000000        0x0 build_my/utils.o
 .bss           0x00000000        0x0 build_my/utils.o
 .text          0x00000000        0x0 build_my/gpio.o
 .data          0x00000000        0x0 build_my/gpio.o
 .bss           0x00000000        0x0 build_my/gpio.o
 .text          0x00000000        0x0 build_my/SVPWM.o
 .data          0x00000000        0x0 build_my/SVPWM.o
 .bss           0x00000000        0x0 build_my/SVPWM.o
 .text          0x00000000        0x0 build_my/parameter.o
 .data          0x00000000        0x0 build_my/parameter.o
 .bss           0x00000000        0x0 build_my/parameter.o
 .text          0x00000000        0x0 build_my/arm_sin_cos_f32.o
 .data          0x00000000        0x0 build_my/arm_sin_cos_f32.o
 .bss           0x00000000        0x0 build_my/arm_sin_cos_f32.o
 .text          0x00000000        0x0 build_my/arm_sin_f32.o
 .data          0x00000000        0x0 build_my/arm_sin_f32.o
 .bss           0x00000000        0x0 build_my/arm_sin_f32.o
 .text.arm_sin_f32
                0x00000000       0xa0 build_my/arm_sin_f32.o
 .debug_info    0x00000000     0x12e5 build_my/arm_sin_f32.o
 .debug_abbrev  0x00000000      0x21d build_my/arm_sin_f32.o
 .debug_loc     0x00000000      0x13a build_my/arm_sin_f32.o
 .debug_aranges
                0x00000000       0x20 build_my/arm_sin_f32.o
 .debug_ranges  0x00000000       0x10 build_my/arm_sin_f32.o
 .debug_line    0x00000000      0x208 build_my/arm_sin_f32.o
 .debug_str     0x00000000      0xb27 build_my/arm_sin_f32.o
 .comment       0x00000000       0x7a build_my/arm_sin_f32.o
 .debug_frame   0x00000000       0x20 build_my/arm_sin_f32.o
 .ARM.attributes
                0x00000000       0x34 build_my/arm_sin_f32.o
 .text          0x00000000        0x0 build_my/arm_cos_f32.o
 .data          0x00000000        0x0 build_my/arm_cos_f32.o
 .bss           0x00000000        0x0 build_my/arm_cos_f32.o
 .text          0x00000000        0x0 build_my/arm_common_tables.o
 .data          0x00000000        0x0 build_my/arm_common_tables.o
 .bss           0x00000000        0x0 build_my/arm_common_tables.o
 .rodata.armBitRevIndexTable1024
                0x00000000      0xe10 build_my/arm_common_tables.o
 .rodata.armBitRevIndexTable128
                0x00000000      0x1a0 build_my/arm_common_tables.o
 .rodata.armBitRevIndexTable16
                0x00000000       0x28 build_my/arm_common_tables.o
 .rodata.armBitRevIndexTable2048
                0x00000000     0x1dc0 build_my/arm_common_tables.o
 .rodata.armBitRevIndexTable256
                0x00000000      0x370 build_my/arm_common_tables.o
 .rodata.armBitRevIndexTable32
                0x00000000       0x60 build_my/arm_common_tables.o
 .rodata.armBitRevIndexTable4096
                0x00000000     0x1f80 build_my/arm_common_tables.o
 .rodata.armBitRevIndexTable512
                0x00000000      0x380 build_my/arm_common_tables.o
 .rodata.armBitRevIndexTable64
                0x00000000       0x70 build_my/arm_common_tables.o
 .rodata.armBitRevIndexTable_fixed_1024
                0x00000000      0x7c0 build_my/arm_common_tables.o
 .rodata.armBitRevIndexTable_fixed_128
                0x00000000       0xe0 build_my/arm_common_tables.o
 .rodata.armBitRevIndexTable_fixed_16
                0x00000000       0x18 build_my/arm_common_tables.o
 .rodata.armBitRevIndexTable_fixed_2048
                0x00000000      0xf80 build_my/arm_common_tables.o
 .rodata.armBitRevIndexTable_fixed_256
                0x00000000      0x1e0 build_my/arm_common_tables.o
 .rodata.armBitRevIndexTable_fixed_32
                0x00000000       0x30 build_my/arm_common_tables.o
 .rodata.armBitRevIndexTable_fixed_4096
                0x00000000     0x1f80 build_my/arm_common_tables.o
 .rodata.armBitRevIndexTable_fixed_512
                0x00000000      0x3c0 build_my/arm_common_tables.o
 .rodata.armBitRevIndexTable_fixed_64
                0x00000000       0x70 build_my/arm_common_tables.o
 .rodata.armBitRevTable
                0x00000000      0x800 build_my/arm_common_tables.o
 .rodata.armRecipTableQ15
                0x00000000       0x80 build_my/arm_common_tables.o
 .rodata.armRecipTableQ31
                0x00000000      0x100 build_my/arm_common_tables.o
 .rodata.sinTable_q15
                0x00000000      0x402 build_my/arm_common_tables.o
 .rodata.sinTable_q31
                0x00000000      0x804 build_my/arm_common_tables.o
 .rodata.twiddleCoef_1024
                0x00000000     0x2000 build_my/arm_common_tables.o
 .rodata.twiddleCoef_1024_q15
                0x00000000      0xc00 build_my/arm_common_tables.o
 .rodata.twiddleCoef_1024_q31
                0x00000000     0x1800 build_my/arm_common_tables.o
 .rodata.twiddleCoef_128
                0x00000000      0x400 build_my/arm_common_tables.o
 .rodata.twiddleCoef_128_q15
                0x00000000      0x180 build_my/arm_common_tables.o
 .rodata.twiddleCoef_128_q31
                0x00000000      0x300 build_my/arm_common_tables.o
 .rodata.twiddleCoef_16
                0x00000000       0x80 build_my/arm_common_tables.o
 .rodata.twiddleCoef_16_q15
                0x00000000       0x30 build_my/arm_common_tables.o
 .rodata.twiddleCoef_16_q31
                0x00000000       0x60 build_my/arm_common_tables.o
 .rodata.twiddleCoef_2048
                0x00000000     0x4000 build_my/arm_common_tables.o
 .rodata.twiddleCoef_2048_q15
                0x00000000     0x1800 build_my/arm_common_tables.o
 .rodata.twiddleCoef_2048_q31
                0x00000000     0x3000 build_my/arm_common_tables.o
 .rodata.twiddleCoef_256
                0x00000000      0x800 build_my/arm_common_tables.o
 .rodata.twiddleCoef_256_q15
                0x00000000      0x300 build_my/arm_common_tables.o
 .rodata.twiddleCoef_256_q31
                0x00000000      0x600 build_my/arm_common_tables.o
 .rodata.twiddleCoef_32
                0x00000000      0x100 build_my/arm_common_tables.o
 .rodata.twiddleCoef_32_q15
                0x00000000       0x60 build_my/arm_common_tables.o
 .rodata.twiddleCoef_32_q31
                0x00000000       0xc0 build_my/arm_common_tables.o
 .rodata.twiddleCoef_4096
                0x00000000     0x8000 build_my/arm_common_tables.o
 .rodata.twiddleCoef_4096_q15
                0x00000000     0x3000 build_my/arm_common_tables.o
 .rodata.twiddleCoef_4096_q31
                0x00000000     0x6000 build_my/arm_common_tables.o
 .rodata.twiddleCoef_512
                0x00000000     0x1000 build_my/arm_common_tables.o
 .rodata.twiddleCoef_512_q15
                0x00000000      0x600 build_my/arm_common_tables.o
 .rodata.twiddleCoef_512_q31
                0x00000000      0xc00 build_my/arm_common_tables.o
 .rodata.twiddleCoef_64
                0x00000000      0x200 build_my/arm_common_tables.o
 .rodata.twiddleCoef_64_q15
                0x00000000       0xc0 build_my/arm_common_tables.o
 .rodata.twiddleCoef_64_q31
                0x00000000      0x180 build_my/arm_common_tables.o
 .rodata.twiddleCoef_rfft_1024
                0x00000000     0x1000 build_my/arm_common_tables.o
 .rodata.twiddleCoef_rfft_128
                0x00000000      0x200 build_my/arm_common_tables.o
 .rodata.twiddleCoef_rfft_2048
                0x00000000     0x2000 build_my/arm_common_tables.o
 .rodata.twiddleCoef_rfft_256
                0x00000000      0x400 build_my/arm_common_tables.o
 .rodata.twiddleCoef_rfft_32
                0x00000000       0x80 build_my/arm_common_tables.o
 .rodata.twiddleCoef_rfft_4096
                0x00000000     0x4000 build_my/arm_common_tables.o
 .rodata.twiddleCoef_rfft_512
                0x00000000      0x800 build_my/arm_common_tables.o
 .rodata.twiddleCoef_rfft_64
                0x00000000      0x100 build_my/arm_common_tables.o
 .text          0x00000000        0x0 build_my/foc.o
 .data          0x00000000        0x0 build_my/foc.o
 .bss           0x00000000        0x0 build_my/foc.o
 .text.Openloop_Runing
                0x00000000       0x74 build_my/foc.o
 .bss.theta.13487
                0x00000000        0x4 build_my/foc.o
 .rodata.Position_Control_CNT_MAX
                0x00000000        0x4 build_my/foc.o
 .rodata.Speed_Control_CNT_MAX
                0x00000000        0x4 build_my/foc.o
 .text          0x00000000        0x0 build_my/foc_spi_com.o
 .data          0x00000000        0x0 build_my/foc_spi_com.o
 .bss           0x00000000        0x0 build_my/foc_spi_com.o
 .text          0x00000000        0x0 build_my/cmd_fun.o
 .data          0x00000000        0x0 build_my/cmd_fun.o
 .bss           0x00000000        0x0 build_my/cmd_fun.o
 .text          0x00000000        0x0 build_my/dac.o
 .data          0x00000000        0x0 build_my/dac.o
 .bss           0x00000000        0x0 build_my/dac.o
 .text.HAL_DAC_MspDeInit
                0x00000000       0x2c build_my/dac.o
 .text          0x00000000        0x0 build_my/adc.o
 .data          0x00000000        0x0 build_my/adc.o
 .bss           0x00000000        0x0 build_my/adc.o
 .text.MX_ADC1_Init_Old
                0x00000000       0xa8 build_my/adc.o
 .text.HAL_ADC_MspDeInit
                0x00000000       0x60 build_my/adc.o
 .text          0x00000000        0x0 build_my/can.o
 .data          0x00000000        0x0 build_my/can.o
 .bss           0x00000000        0x0 build_my/can.o
 .text.MX_CAN1_Init
                0x00000000       0x38 build_my/can.o
 .text.HAL_CAN_MspInit
                0x00000000       0x74 build_my/can.o
 .text.HAL_CAN_MspDeInit
                0x00000000       0x30 build_my/can.o
 .debug_info    0x00000000      0xaa9 build_my/can.o
 .debug_abbrev  0x00000000      0x1e9 build_my/can.o
 .debug_loc     0x00000000      0x108 build_my/can.o
 .debug_aranges
                0x00000000       0x30 build_my/can.o
 .debug_ranges  0x00000000       0x20 build_my/can.o
 .debug_line    0x00000000      0x2ce build_my/can.o
 .debug_str     0x00000000      0x6f9 build_my/can.o
 .comment       0x00000000       0x7a build_my/can.o
 .debug_frame   0x00000000       0x68 build_my/can.o
 .ARM.attributes
                0x00000000       0x34 build_my/can.o
 COMMON         0x00000000       0x28 build_my/can.o
 .text          0x00000000        0x0 build_my/sys.o
 .data          0x00000000        0x0 build_my/sys.o
 .bss           0x00000000        0x0 build_my/sys.o
 .text.MX_SYS_Init
                0x00000000        0x2 build_my/sys.o
 .debug_info    0x00000000      0x1a4 build_my/sys.o
 .debug_abbrev  0x00000000       0xb7 build_my/sys.o
 .debug_aranges
                0x00000000       0x20 build_my/sys.o
 .debug_ranges  0x00000000       0x10 build_my/sys.o
 .debug_line    0x00000000      0x143 build_my/sys.o
 .debug_str     0x00000000      0x28a build_my/sys.o
 .comment       0x00000000       0x7a build_my/sys.o
 .debug_frame   0x00000000       0x20 build_my/sys.o
 .ARM.attributes
                0x00000000       0x34 build_my/sys.o
 .text          0x00000000        0x0 build_my/tim.o
 .data          0x00000000        0x0 build_my/tim.o
 .bss           0x00000000        0x0 build_my/tim.o
 .text.HAL_TIM_PWM_MspDeInit
                0x00000000       0x28 build_my/tim.o
 .text.HAL_TIM_Base_MspDeInit
                0x00000000       0x5c build_my/tim.o
 .text          0x00000000        0x0 build_my/usart.o
 .data          0x00000000        0x0 build_my/usart.o
 .bss           0x00000000        0x0 build_my/usart.o
 .text.HAL_UART_MspDeInit
                0x00000000       0x50 build_my/usart.o
 .text          0x00000000        0x0 build_my/usb_otg.o
 .data          0x00000000        0x0 build_my/usb_otg.o
 .bss           0x00000000        0x0 build_my/usb_otg.o
 .text.MX_USB_OTG_FS_PCD_Init
                0x00000000       0x34 build_my/usb_otg.o
 .text.HAL_PCD_MspInit
                0x00000000       0x78 build_my/usb_otg.o
 .text.HAL_PCD_MspDeInit
                0x00000000       0x2c build_my/usb_otg.o
 .debug_info    0x00000000      0xb66 build_my/usb_otg.o
 .debug_abbrev  0x00000000      0x1da build_my/usb_otg.o
 .debug_loc     0x00000000      0x108 build_my/usb_otg.o
 .debug_aranges
                0x00000000       0x30 build_my/usb_otg.o
 .debug_ranges  0x00000000       0x20 build_my/usb_otg.o
 .debug_line    0x00000000      0x2e1 build_my/usb_otg.o
 .debug_str     0x00000000      0x846 build_my/usb_otg.o
 .comment       0x00000000       0x7a build_my/usb_otg.o
 .debug_frame   0x00000000       0x70 build_my/usb_otg.o
 .ARM.attributes
                0x00000000       0x34 build_my/usb_otg.o
 COMMON         0x00000000      0x408 build_my/usb_otg.o
 .text          0x00000000        0x0 build_my/stm32f4xx_it.o
 .data          0x00000000        0x0 build_my/stm32f4xx_it.o
 .bss           0x00000000        0x0 build_my/stm32f4xx_it.o
 .text          0x00000000        0x0 build_my/stm32f4xx_hal_msp.o
 .data          0x00000000        0x0 build_my/stm32f4xx_hal_msp.o
 .bss           0x00000000        0x0 build_my/stm32f4xx_hal_msp.o
 .text          0x00000000        0x0 build_my/stm32f4xx_hal_adc.o
 .data          0x00000000        0x0 build_my/stm32f4xx_hal_adc.o
 .bss           0x00000000        0x0 build_my/stm32f4xx_hal_adc.o
 .text.HAL_ADC_MspInit
                0x00000000        0x2 build_my/stm32f4xx_hal_adc.o
 .text.HAL_ADC_MspDeInit
                0x00000000        0x2 build_my/stm32f4xx_hal_adc.o
 .text.HAL_ADC_DeInit
                0x00000000       0x3a build_my/stm32f4xx_hal_adc.o
 .text.HAL_ADC_Stop
                0x00000000       0x40 build_my/stm32f4xx_hal_adc.o
 .text.HAL_ADC_PollForConversion
                0x00000000       0xac build_my/stm32f4xx_hal_adc.o
 .text.HAL_ADC_PollForEvent
                0x00000000       0x72 build_my/stm32f4xx_hal_adc.o
 .text.HAL_ADC_Start_IT
                0x00000000      0x140 build_my/stm32f4xx_hal_adc.o
 .text.HAL_ADC_Stop_IT
                0x00000000       0x4c build_my/stm32f4xx_hal_adc.o
 .text.HAL_ADC_Start_DMA
                0x00000000      0x17c build_my/stm32f4xx_hal_adc.o
 .text.HAL_ADC_Stop_DMA
                0x00000000       0x5e build_my/stm32f4xx_hal_adc.o
 .text.HAL_ADC_GetValue
                0x00000000        0x6 build_my/stm32f4xx_hal_adc.o
 .text.HAL_ADC_ConvCpltCallback
                0x00000000        0x2 build_my/stm32f4xx_hal_adc.o
 .text.ADC_DMAHalfConvCplt
                0x00000000        0xa build_my/stm32f4xx_hal_adc.o
 .text.HAL_ADC_LevelOutOfWindowCallback
                0x00000000        0x2 build_my/stm32f4xx_hal_adc.o
 .text.HAL_ADC_IRQHandler
                0x00000000      0x14e build_my/stm32f4xx_hal_adc.o
 .text.ADC_DMAError
                0x00000000       0x16 build_my/stm32f4xx_hal_adc.o
 .text.ADC_DMAConvCplt
                0x00000000       0x72 build_my/stm32f4xx_hal_adc.o
 .text.HAL_ADC_AnalogWDGConfig
                0x00000000       0x76 build_my/stm32f4xx_hal_adc.o
 .text.HAL_ADC_GetState
                0x00000000        0x4 build_my/stm32f4xx_hal_adc.o
 .text.HAL_ADC_GetError
                0x00000000        0x4 build_my/stm32f4xx_hal_adc.o
 .text          0x00000000        0x0 build_my/stm32f4xx_hal_dac.o
 .data          0x00000000        0x0 build_my/stm32f4xx_hal_dac.o
 .bss           0x00000000        0x0 build_my/stm32f4xx_hal_dac.o
 .text.HAL_DAC_MspInit
                0x00000000        0x2 build_my/stm32f4xx_hal_dac.o
 .text.HAL_DAC_MspDeInit
                0x00000000        0x2 build_my/stm32f4xx_hal_dac.o
 .text.HAL_DAC_DeInit
                0x00000000       0x1c build_my/stm32f4xx_hal_dac.o
 .text.HAL_DAC_Stop
                0x00000000       0x1c build_my/stm32f4xx_hal_dac.o
 .text.HAL_DAC_Start_DMA
                0x00000000       0xe8 build_my/stm32f4xx_hal_dac.o
 .text.HAL_DAC_Stop_DMA
                0x00000000       0x40 build_my/stm32f4xx_hal_dac.o
 .text.HAL_DAC_GetValue
                0x00000000        0xe build_my/stm32f4xx_hal_dac.o
 .text.HAL_DAC_ConvCpltCallbackCh1
                0x00000000        0x2 build_my/stm32f4xx_hal_dac.o
 .text.DAC_DMAConvCpltCh1
                0x00000000       0x10 build_my/stm32f4xx_hal_dac.o
 .text.HAL_DAC_ConvHalfCpltCallbackCh1
                0x00000000        0x2 build_my/stm32f4xx_hal_dac.o
 .text.DAC_DMAHalfConvCpltCh1
                0x00000000        0xa build_my/stm32f4xx_hal_dac.o
 .text.HAL_DAC_ErrorCallbackCh1
                0x00000000        0x2 build_my/stm32f4xx_hal_dac.o
 .text.DAC_DMAErrorCh1
                0x00000000       0x18 build_my/stm32f4xx_hal_dac.o
 .text.HAL_DAC_DMAUnderrunCallbackCh1
                0x00000000        0x2 build_my/stm32f4xx_hal_dac.o
 .text.HAL_DAC_IRQHandler
                0x00000000       0x60 build_my/stm32f4xx_hal_dac.o
 .text.HAL_DAC_GetState
                0x00000000        0x4 build_my/stm32f4xx_hal_dac.o
 .text.HAL_DAC_GetError
                0x00000000        0x4 build_my/stm32f4xx_hal_dac.o
 .text          0x00000000        0x0 build_my/stm32f4xx_hal_adc_ex.o
 .data          0x00000000        0x0 build_my/stm32f4xx_hal_adc_ex.o
 .bss           0x00000000        0x0 build_my/stm32f4xx_hal_adc_ex.o
 .text.HAL_ADCEx_InjectedStart
                0x00000000       0xf4 build_my/stm32f4xx_hal_adc_ex.o
 .text.HAL_ADCEx_InjectedStart_IT
                0x00000000       0xfc build_my/stm32f4xx_hal_adc_ex.o
 .text.HAL_ADCEx_InjectedStop
                0x00000000       0x62 build_my/stm32f4xx_hal_adc_ex.o
 .text.HAL_ADCEx_InjectedPollForConversion
                0x00000000       0xa0 build_my/stm32f4xx_hal_adc_ex.o
 .text.HAL_ADCEx_InjectedStop_IT
                0x00000000       0x6a build_my/stm32f4xx_hal_adc_ex.o
 .text.HAL_ADCEx_InjectedGetValue
                0x00000000       0x40 build_my/stm32f4xx_hal_adc_ex.o
 .text.HAL_ADCEx_MultiModeStop_DMA
                0x00000000       0x64 build_my/stm32f4xx_hal_adc_ex.o
 .text.HAL_ADCEx_MultiModeGetValue
                0x00000000        0xc build_my/stm32f4xx_hal_adc_ex.o
 .text.HAL_ADCEx_InjectedConvCpltCallback
                0x00000000        0x2 build_my/stm32f4xx_hal_adc_ex.o
 .text.HAL_ADCEx_InjectedConfigChannel
                0x00000000      0x20c build_my/stm32f4xx_hal_adc_ex.o
 .text          0x00000000        0x0 build_my/stm32f4xx_hal_rcc.o
 .data          0x00000000        0x0 build_my/stm32f4xx_hal_rcc.o
 .bss           0x00000000        0x0 build_my/stm32f4xx_hal_rcc.o
 .text.HAL_RCC_DeInit
                0x00000000        0x4 build_my/stm32f4xx_hal_rcc.o
 .text.HAL_RCC_MCOConfig
                0x00000000       0x9c build_my/stm32f4xx_hal_rcc.o
 .text.HAL_RCC_EnableCSS
                0x00000000        0xc build_my/stm32f4xx_hal_rcc.o
 .text.HAL_RCC_DisableCSS
                0x00000000        0xc build_my/stm32f4xx_hal_rcc.o
 .text.HAL_RCC_GetOscConfig
                0x00000000       0xcc build_my/stm32f4xx_hal_rcc.o
 .text.HAL_RCC_GetClockConfig
                0x00000000       0x3c build_my/stm32f4xx_hal_rcc.o
 .text.HAL_RCC_CSSCallback
                0x00000000        0x2 build_my/stm32f4xx_hal_rcc.o
 .text.HAL_RCC_NMI_IRQHandler
                0x00000000       0x24 build_my/stm32f4xx_hal_rcc.o
 .text          0x00000000        0x0 build_my/stm32f4xx_hal_rcc_ex.o
 .data          0x00000000        0x0 build_my/stm32f4xx_hal_rcc_ex.o
 .bss           0x00000000        0x0 build_my/stm32f4xx_hal_rcc_ex.o
 .text.HAL_RCCEx_PeriphCLKConfig
                0x00000000      0x154 build_my/stm32f4xx_hal_rcc_ex.o
 .text.HAL_RCCEx_GetPeriphCLKConfig
                0x00000000       0x30 build_my/stm32f4xx_hal_rcc_ex.o
 .text.HAL_RCCEx_GetPeriphCLKFreq
                0x00000000       0x74 build_my/stm32f4xx_hal_rcc_ex.o
 .text.HAL_RCCEx_EnablePLLI2S
                0x00000000       0x68 build_my/stm32f4xx_hal_rcc_ex.o
 .text.HAL_RCCEx_DisablePLLI2S
                0x00000000       0x34 build_my/stm32f4xx_hal_rcc_ex.o
 .text.HAL_RCC_DeInit
                0x00000000      0x13c build_my/stm32f4xx_hal_rcc_ex.o
 .debug_info    0x00000000      0x7be build_my/stm32f4xx_hal_rcc_ex.o
 .debug_abbrev  0x00000000      0x1bb build_my/stm32f4xx_hal_rcc_ex.o
 .debug_loc     0x00000000      0x473 build_my/stm32f4xx_hal_rcc_ex.o
 .debug_aranges
                0x00000000       0x48 build_my/stm32f4xx_hal_rcc_ex.o
 .debug_ranges  0x00000000       0x38 build_my/stm32f4xx_hal_rcc_ex.o
 .debug_line    0x00000000      0x5ba build_my/stm32f4xx_hal_rcc_ex.o
 .debug_str     0x00000000      0x57f build_my/stm32f4xx_hal_rcc_ex.o
 .comment       0x00000000       0x7a build_my/stm32f4xx_hal_rcc_ex.o
 .debug_frame   0x00000000       0xb4 build_my/stm32f4xx_hal_rcc_ex.o
 .ARM.attributes
                0x00000000       0x34 build_my/stm32f4xx_hal_rcc_ex.o
 .text          0x00000000        0x0 build_my/stm32f4xx_hal_flash.o
 .data          0x00000000        0x0 build_my/stm32f4xx_hal_flash.o
 .bss           0x00000000        0x0 build_my/stm32f4xx_hal_flash.o
 .text.HAL_FLASH_Program_IT
                0x00000000       0x68 build_my/stm32f4xx_hal_flash.o
 .text.HAL_FLASH_EndOfOperationCallback
                0x00000000        0x2 build_my/stm32f4xx_hal_flash.o
 .text.HAL_FLASH_OperationErrorCallback
                0x00000000        0x2 build_my/stm32f4xx_hal_flash.o
 .text.HAL_FLASH_IRQHandler
                0x00000000       0xf4 build_my/stm32f4xx_hal_flash.o
 .text.HAL_FLASH_OB_Unlock
                0x00000000       0x28 build_my/stm32f4xx_hal_flash.o
 .text.HAL_FLASH_OB_Lock
                0x00000000       0x14 build_my/stm32f4xx_hal_flash.o
 .text.HAL_FLASH_GetError
                0x00000000        0xc build_my/stm32f4xx_hal_flash.o
 .text.HAL_FLASH_OB_Launch
                0x00000000       0x1c build_my/stm32f4xx_hal_flash.o
 .text          0x00000000        0x0 build_my/stm32f4xx_hal_flash_ex.o
 .data          0x00000000        0x0 build_my/stm32f4xx_hal_flash_ex.o
 .bss           0x00000000        0x0 build_my/stm32f4xx_hal_flash_ex.o
 .text.FLASH_OB_BOR_LevelConfig
                0x00000000       0x18 build_my/stm32f4xx_hal_flash_ex.o
 .text.FLASH_OB_GetUser
                0x00000000       0x10 build_my/stm32f4xx_hal_flash_ex.o
 .text.FLASH_OB_GetWRP
                0x00000000        0xc build_my/stm32f4xx_hal_flash_ex.o
 .text.FLASH_OB_GetRDP
                0x00000000       0x1c build_my/stm32f4xx_hal_flash_ex.o
 .text.FLASH_OB_GetBOR
                0x00000000       0x10 build_my/stm32f4xx_hal_flash_ex.o
 .text.FLASH_OB_EnableWRP
                0x00000000       0x20 build_my/stm32f4xx_hal_flash_ex.o
 .text.FLASH_OB_DisableWRP
                0x00000000       0x20 build_my/stm32f4xx_hal_flash_ex.o
 .text.FLASH_OB_RDP_LevelConfig
                0x00000000       0x18 build_my/stm32f4xx_hal_flash_ex.o
 .text.FLASH_OB_UserConfig
                0x00000000       0x2c build_my/stm32f4xx_hal_flash_ex.o
 .text.HAL_FLASHEx_OBProgram
                0x00000000       0x84 build_my/stm32f4xx_hal_flash_ex.o
 .text.HAL_FLASHEx_OBGetConfig
                0x00000000       0x22 build_my/stm32f4xx_hal_flash_ex.o
 .text.HAL_FLASHEx_Erase_IT
                0x00000000       0x6c build_my/stm32f4xx_hal_flash_ex.o
 .text          0x00000000        0x0 build_my/stm32f4xx_hal_flash_ramfunc.o
 .data          0x00000000        0x0 build_my/stm32f4xx_hal_flash_ramfunc.o
 .bss           0x00000000        0x0 build_my/stm32f4xx_hal_flash_ramfunc.o
 .debug_info    0x00000000      0x182 build_my/stm32f4xx_hal_flash_ramfunc.o
 .debug_abbrev  0x00000000       0x97 build_my/stm32f4xx_hal_flash_ramfunc.o
 .debug_aranges
                0x00000000       0x18 build_my/stm32f4xx_hal_flash_ramfunc.o
 .debug_line    0x00000000      0x124 build_my/stm32f4xx_hal_flash_ramfunc.o
 .debug_str     0x00000000      0x2b3 build_my/stm32f4xx_hal_flash_ramfunc.o
 .comment       0x00000000       0x7a build_my/stm32f4xx_hal_flash_ramfunc.o
 .ARM.attributes
                0x00000000       0x39 build_my/stm32f4xx_hal_flash_ramfunc.o
 .text          0x00000000        0x0 build_my/stm32f4xx_hal_gpio.o
 .data          0x00000000        0x0 build_my/stm32f4xx_hal_gpio.o
 .bss           0x00000000        0x0 build_my/stm32f4xx_hal_gpio.o
 .text.HAL_GPIO_DeInit
                0x00000000      0x134 build_my/stm32f4xx_hal_gpio.o
 .text.HAL_GPIO_TogglePin
                0x00000000       0x12 build_my/stm32f4xx_hal_gpio.o
 .text.HAL_GPIO_LockPin
                0x00000000       0x2e build_my/stm32f4xx_hal_gpio.o
 .text          0x00000000        0x0 build_my/stm32f4xx_hal_dma_ex.o
 .data          0x00000000        0x0 build_my/stm32f4xx_hal_dma_ex.o
 .bss           0x00000000        0x0 build_my/stm32f4xx_hal_dma_ex.o
 .text.DMA_MultiBufferSetConfig
                0x00000000       0x24 build_my/stm32f4xx_hal_dma_ex.o
 .text.HAL_DMAEx_MultiBufferStart
                0x00000000       0x5e build_my/stm32f4xx_hal_dma_ex.o
 .text.HAL_DMAEx_MultiBufferStart_IT
                0x00000000      0xefc build_my/stm32f4xx_hal_dma_ex.o
 .text.HAL_DMAEx_ChangeMemory
                0x00000000       0x10 build_my/stm32f4xx_hal_dma_ex.o
 .debug_info    0x00000000      0x705 build_my/stm32f4xx_hal_dma_ex.o
 .debug_abbrev  0x00000000      0x215 build_my/stm32f4xx_hal_dma_ex.o
 .debug_loc     0x00000000      0x49a build_my/stm32f4xx_hal_dma_ex.o
 .debug_aranges
                0x00000000       0x38 build_my/stm32f4xx_hal_dma_ex.o
 .debug_ranges  0x00000000       0x28 build_my/stm32f4xx_hal_dma_ex.o
 .debug_line    0x00000000      0x9df build_my/stm32f4xx_hal_dma_ex.o
 .debug_str     0x00000000      0x62e build_my/stm32f4xx_hal_dma_ex.o
 .comment       0x00000000       0x7a build_my/stm32f4xx_hal_dma_ex.o
 .debug_frame   0x00000000       0x80 build_my/stm32f4xx_hal_dma_ex.o
 .ARM.attributes
                0x00000000       0x34 build_my/stm32f4xx_hal_dma_ex.o
 .text          0x00000000        0x0 build_my/stm32f4xx_hal_dma.o
 .data          0x00000000        0x0 build_my/stm32f4xx_hal_dma.o
 .bss           0x00000000        0x0 build_my/stm32f4xx_hal_dma.o
 .text.HAL_DMA_DeInit
                0x00000000       0x64 build_my/stm32f4xx_hal_dma.o
 .text.HAL_DMA_Start
                0x00000000       0x48 build_my/stm32f4xx_hal_dma.o
 .text.HAL_DMA_PollForTransfer
                0x00000000      0x128 build_my/stm32f4xx_hal_dma.o
 .text.HAL_DMA_RegisterCallback
                0x00000000       0x58 build_my/stm32f4xx_hal_dma.o
 .text.HAL_DMA_UnRegisterCallback
                0x00000000       0x6e build_my/stm32f4xx_hal_dma.o
 .text.HAL_DMA_GetState
                0x00000000        0x6 build_my/stm32f4xx_hal_dma.o
 .text.HAL_DMA_GetError
                0x00000000        0x4 build_my/stm32f4xx_hal_dma.o
 .text          0x00000000        0x0 build_my/stm32f4xx_hal_pwr.o
 .data          0x00000000        0x0 build_my/stm32f4xx_hal_pwr.o
 .bss           0x00000000        0x0 build_my/stm32f4xx_hal_pwr.o
 .text.HAL_PWR_DeInit
                0x00000000       0x18 build_my/stm32f4xx_hal_pwr.o
 .text.HAL_PWR_EnableBkUpAccess
                0x00000000        0xc build_my/stm32f4xx_hal_pwr.o
 .text.HAL_PWR_DisableBkUpAccess
                0x00000000        0xc build_my/stm32f4xx_hal_pwr.o
 .text.HAL_PWR_ConfigPVD
                0x00000000       0x84 build_my/stm32f4xx_hal_pwr.o
 .text.HAL_PWR_EnablePVD
                0x00000000        0xc build_my/stm32f4xx_hal_pwr.o
 .text.HAL_PWR_DisablePVD
                0x00000000        0xc build_my/stm32f4xx_hal_pwr.o
 .text.HAL_PWR_EnableWakeUpPin
                0x00000000       0x10 build_my/stm32f4xx_hal_pwr.o
 .text.HAL_PWR_DisableWakeUpPin
                0x00000000       0x10 build_my/stm32f4xx_hal_pwr.o
 .text.HAL_PWR_EnterSLEEPMode
                0x00000000       0x20 build_my/stm32f4xx_hal_pwr.o
 .text.HAL_PWR_EnterSTOPMode
                0x00000000       0x38 build_my/stm32f4xx_hal_pwr.o
 .text.HAL_PWR_EnterSTANDBYMode
                0x00000000       0x20 build_my/stm32f4xx_hal_pwr.o
 .text.HAL_PWR_PVDCallback
                0x00000000        0x2 build_my/stm32f4xx_hal_pwr.o
 .text.HAL_PWR_PVD_IRQHandler
                0x00000000       0x20 build_my/stm32f4xx_hal_pwr.o
 .text.HAL_PWR_EnableSleepOnExit
                0x00000000       0x10 build_my/stm32f4xx_hal_pwr.o
 .text.HAL_PWR_DisableSleepOnExit
                0x00000000       0x10 build_my/stm32f4xx_hal_pwr.o
 .text.HAL_PWR_EnableSEVOnPend
                0x00000000       0x10 build_my/stm32f4xx_hal_pwr.o
 .text.HAL_PWR_DisableSEVOnPend
                0x00000000       0x10 build_my/stm32f4xx_hal_pwr.o
 .debug_info    0x00000000      0x8ae build_my/stm32f4xx_hal_pwr.o
 .debug_abbrev  0x00000000      0x1c4 build_my/stm32f4xx_hal_pwr.o
 .debug_loc     0x00000000       0x20 build_my/stm32f4xx_hal_pwr.o
 .debug_aranges
                0x00000000       0xa0 build_my/stm32f4xx_hal_pwr.o
 .debug_ranges  0x00000000       0x90 build_my/stm32f4xx_hal_pwr.o
 .debug_line    0x00000000      0x3b0 build_my/stm32f4xx_hal_pwr.o
 .debug_str     0x00000000      0x60a build_my/stm32f4xx_hal_pwr.o
 .comment       0x00000000       0x7a build_my/stm32f4xx_hal_pwr.o
 .debug_frame   0x00000000      0x12c build_my/stm32f4xx_hal_pwr.o
 .ARM.attributes
                0x00000000       0x34 build_my/stm32f4xx_hal_pwr.o
 .text          0x00000000        0x0 build_my/stm32f4xx_hal_pwr_ex.o
 .data          0x00000000        0x0 build_my/stm32f4xx_hal_pwr_ex.o
 .bss           0x00000000        0x0 build_my/stm32f4xx_hal_pwr_ex.o
 .text.HAL_PWREx_EnableBkUpReg
                0x00000000       0x34 build_my/stm32f4xx_hal_pwr_ex.o
 .text.HAL_PWREx_DisableBkUpReg
                0x00000000       0x34 build_my/stm32f4xx_hal_pwr_ex.o
 .text.HAL_PWREx_EnableFlashPowerDown
                0x00000000        0xc build_my/stm32f4xx_hal_pwr_ex.o
 .text.HAL_PWREx_DisableFlashPowerDown
                0x00000000        0xc build_my/stm32f4xx_hal_pwr_ex.o
 .text.HAL_PWREx_GetVoltageRange
                0x00000000       0x10 build_my/stm32f4xx_hal_pwr_ex.o
 .text.HAL_PWREx_ControlVoltageScaling
                0x00000000       0x64 build_my/stm32f4xx_hal_pwr_ex.o
 .debug_info    0x00000000      0x5ab build_my/stm32f4xx_hal_pwr_ex.o
 .debug_abbrev  0x00000000      0x19d build_my/stm32f4xx_hal_pwr_ex.o
 .debug_loc     0x00000000      0x12d build_my/stm32f4xx_hal_pwr_ex.o
 .debug_aranges
                0x00000000       0x48 build_my/stm32f4xx_hal_pwr_ex.o
 .debug_ranges  0x00000000       0x38 build_my/stm32f4xx_hal_pwr_ex.o
 .debug_line    0x00000000      0x2cb build_my/stm32f4xx_hal_pwr_ex.o
 .debug_str     0x00000000      0x4d7 build_my/stm32f4xx_hal_pwr_ex.o
 .comment       0x00000000       0x7a build_my/stm32f4xx_hal_pwr_ex.o
 .debug_frame   0x00000000       0x98 build_my/stm32f4xx_hal_pwr_ex.o
 .ARM.attributes
                0x00000000       0x34 build_my/stm32f4xx_hal_pwr_ex.o
 .text          0x00000000        0x0 build_my/stm32f4xx_hal_cortex.o
 .data          0x00000000        0x0 build_my/stm32f4xx_hal_cortex.o
 .bss           0x00000000        0x0 build_my/stm32f4xx_hal_cortex.o
 .text.HAL_NVIC_SystemReset
                0x00000000       0x24 build_my/stm32f4xx_hal_cortex.o
 .text.HAL_MPU_Disable
                0x00000000       0x20 build_my/stm32f4xx_hal_cortex.o
 .text.HAL_MPU_Enable
                0x00000000       0x24 build_my/stm32f4xx_hal_cortex.o
 .text.HAL_MPU_ConfigRegion
                0x00000000       0x54 build_my/stm32f4xx_hal_cortex.o
 .text.HAL_NVIC_GetPriorityGrouping
                0x00000000       0x10 build_my/stm32f4xx_hal_cortex.o
 .text.HAL_NVIC_GetPriority
                0x00000000       0x60 build_my/stm32f4xx_hal_cortex.o
 .text.HAL_NVIC_SetPendingIRQ
                0x00000000       0x1c build_my/stm32f4xx_hal_cortex.o
 .text.HAL_NVIC_GetPendingIRQ
                0x00000000       0x24 build_my/stm32f4xx_hal_cortex.o
 .text.HAL_NVIC_ClearPendingIRQ
                0x00000000       0x1c build_my/stm32f4xx_hal_cortex.o
 .text.HAL_NVIC_GetActive
                0x00000000       0x24 build_my/stm32f4xx_hal_cortex.o
 .text.HAL_SYSTICK_CLKSourceConfig
                0x00000000       0x20 build_my/stm32f4xx_hal_cortex.o
 .text.HAL_SYSTICK_Callback
                0x00000000        0x2 build_my/stm32f4xx_hal_cortex.o
 .text.HAL_SYSTICK_IRQHandler
                0x00000000        0x8 build_my/stm32f4xx_hal_cortex.o
 .text          0x00000000        0x0 build_my/stm32f4xx_hal.o
 .data          0x00000000        0x0 build_my/stm32f4xx_hal.o
 .bss           0x00000000        0x0 build_my/stm32f4xx_hal.o
 .text.HAL_MspInit
                0x00000000        0x2 build_my/stm32f4xx_hal.o
 .text.HAL_MspDeInit
                0x00000000        0x2 build_my/stm32f4xx_hal.o
 .text.HAL_DeInit
                0x00000000       0x2c build_my/stm32f4xx_hal.o
 .text.HAL_GetTickPrio
                0x00000000        0xc build_my/stm32f4xx_hal.o
 .text.HAL_SetTickFreq
                0x00000000       0x2c build_my/stm32f4xx_hal.o
 .text.HAL_GetTickFreq
                0x00000000        0xc build_my/stm32f4xx_hal.o
 .text.HAL_SuspendTick
                0x00000000       0x10 build_my/stm32f4xx_hal.o
 .text.HAL_ResumeTick
                0x00000000       0x10 build_my/stm32f4xx_hal.o
 .text.HAL_GetHalVersion
                0x00000000        0x8 build_my/stm32f4xx_hal.o
 .text.HAL_GetREVID
                0x00000000        0xc build_my/stm32f4xx_hal.o
 .text.HAL_GetDEVID
                0x00000000       0x10 build_my/stm32f4xx_hal.o
 .text.HAL_DBGMCU_EnableDBGSleepMode
                0x00000000       0x10 build_my/stm32f4xx_hal.o
 .text.HAL_DBGMCU_DisableDBGSleepMode
                0x00000000       0x10 build_my/stm32f4xx_hal.o
 .text.HAL_DBGMCU_EnableDBGStopMode
                0x00000000       0x10 build_my/stm32f4xx_hal.o
 .text.HAL_DBGMCU_DisableDBGStopMode
                0x00000000       0x10 build_my/stm32f4xx_hal.o
 .text.HAL_DBGMCU_EnableDBGStandbyMode
                0x00000000       0x10 build_my/stm32f4xx_hal.o
 .text.HAL_DBGMCU_DisableDBGStandbyMode
                0x00000000       0x10 build_my/stm32f4xx_hal.o
 .text.HAL_EnableCompensationCell
                0x00000000        0xc build_my/stm32f4xx_hal.o
 .text.HAL_DisableCompensationCell
                0x00000000        0xc build_my/stm32f4xx_hal.o
 .text.HAL_GetUIDw0
                0x00000000        0xc build_my/stm32f4xx_hal.o
 .text.HAL_GetUIDw1
                0x00000000        0xc build_my/stm32f4xx_hal.o
 .text.HAL_GetUIDw2
                0x00000000        0xc build_my/stm32f4xx_hal.o
 .text          0x00000000        0x0 build_my/stm32f4xx_hal_exti.o
 .data          0x00000000        0x0 build_my/stm32f4xx_hal_exti.o
 .bss           0x00000000        0x0 build_my/stm32f4xx_hal_exti.o
 .text.HAL_EXTI_SetConfigLine
                0x00000000       0xd8 build_my/stm32f4xx_hal_exti.o
 .text.HAL_EXTI_GetConfigLine
                0x00000000       0xac build_my/stm32f4xx_hal_exti.o
 .text.HAL_EXTI_ClearConfigLine
                0x00000000       0x80 build_my/stm32f4xx_hal_exti.o
 .text.HAL_EXTI_RegisterCallback
                0x00000000        0xe build_my/stm32f4xx_hal_exti.o
 .text.HAL_EXTI_GetHandle
                0x00000000        0xc build_my/stm32f4xx_hal_exti.o
 .text.HAL_EXTI_IRQHandler
                0x00000000       0x24 build_my/stm32f4xx_hal_exti.o
 .text.HAL_EXTI_GetPending
                0x00000000       0x1c build_my/stm32f4xx_hal_exti.o
 .text.HAL_EXTI_ClearPending
                0x00000000       0x14 build_my/stm32f4xx_hal_exti.o
 .text.HAL_EXTI_GenerateSWI
                0x00000000       0x14 build_my/stm32f4xx_hal_exti.o
 .debug_info    0x00000000      0x70d build_my/stm32f4xx_hal_exti.o
 .debug_abbrev  0x00000000      0x22d build_my/stm32f4xx_hal_exti.o
 .debug_loc     0x00000000      0x5b5 build_my/stm32f4xx_hal_exti.o
 .debug_aranges
                0x00000000       0x60 build_my/stm32f4xx_hal_exti.o
 .debug_ranges  0x00000000       0x50 build_my/stm32f4xx_hal_exti.o
 .debug_line    0x00000000      0x5f3 build_my/stm32f4xx_hal_exti.o
 .debug_str     0x00000000      0x4c6 build_my/stm32f4xx_hal_exti.o
 .comment       0x00000000       0x7a build_my/stm32f4xx_hal_exti.o
 .debug_frame   0x00000000      0x108 build_my/stm32f4xx_hal_exti.o
 .ARM.attributes
                0x00000000       0x34 build_my/stm32f4xx_hal_exti.o
 .text          0x00000000        0x0 build_my/stm32f4xx_hal_can.o
 .data          0x00000000        0x0 build_my/stm32f4xx_hal_can.o
 .bss           0x00000000        0x0 build_my/stm32f4xx_hal_can.o
 .text.HAL_CAN_MspInit
                0x00000000        0x2 build_my/stm32f4xx_hal_can.o
 .text.HAL_CAN_Init
                0x00000000      0x14c build_my/stm32f4xx_hal_can.o
 .text.HAL_CAN_MspDeInit
                0x00000000        0x2 build_my/stm32f4xx_hal_can.o
 .text.HAL_CAN_ConfigFilter
                0x00000000      0x130 build_my/stm32f4xx_hal_can.o
 .text.HAL_CAN_Start
                0x00000000       0x5c build_my/stm32f4xx_hal_can.o
 .text.HAL_CAN_Stop
                0x00000000       0x62 build_my/stm32f4xx_hal_can.o
 .text.HAL_CAN_DeInit
                0x00000000       0x28 build_my/stm32f4xx_hal_can.o
 .text.HAL_CAN_RequestSleep
                0x00000000       0x26 build_my/stm32f4xx_hal_can.o
 .text.HAL_CAN_WakeUp
                0x00000000       0x58 build_my/stm32f4xx_hal_can.o
 .text.HAL_CAN_IsSleepActive
                0x00000000       0x20 build_my/stm32f4xx_hal_can.o
 .text.HAL_CAN_AddTxMessage
                0x00000000       0xec build_my/stm32f4xx_hal_can.o
 .text.HAL_CAN_AbortTxRequest
                0x00000000       0x4c build_my/stm32f4xx_hal_can.o
 .text.HAL_CAN_GetTxMailboxesFreeLevel
                0x00000000       0x32 build_my/stm32f4xx_hal_can.o
 .text.HAL_CAN_IsTxMessagePending
                0x00000000       0x26 build_my/stm32f4xx_hal_can.o
 .text.HAL_CAN_GetTxTimestamp
                0x00000000       0x26 build_my/stm32f4xx_hal_can.o
 .text.HAL_CAN_GetRxMessage
                0x00000000      0x140 build_my/stm32f4xx_hal_can.o
 .text.HAL_CAN_GetRxFifoFillLevel
                0x00000000       0x26 build_my/stm32f4xx_hal_can.o
 .text.HAL_CAN_ActivateNotification
                0x00000000       0x24 build_my/stm32f4xx_hal_can.o
 .text.HAL_CAN_DeactivateNotification
                0x00000000       0x26 build_my/stm32f4xx_hal_can.o
 .text.HAL_CAN_TxMailbox0CompleteCallback
                0x00000000        0x2 build_my/stm32f4xx_hal_can.o
 .text.HAL_CAN_TxMailbox1CompleteCallback
                0x00000000        0x2 build_my/stm32f4xx_hal_can.o
 .text.HAL_CAN_TxMailbox2CompleteCallback
                0x00000000        0x2 build_my/stm32f4xx_hal_can.o
 .text.HAL_CAN_TxMailbox0AbortCallback
                0x00000000        0x2 build_my/stm32f4xx_hal_can.o
 .text.HAL_CAN_TxMailbox1AbortCallback
                0x00000000        0x2 build_my/stm32f4xx_hal_can.o
 .text.HAL_CAN_TxMailbox2AbortCallback
                0x00000000        0x2 build_my/stm32f4xx_hal_can.o
 .text.HAL_CAN_RxFifo0MsgPendingCallback
                0x00000000        0x2 build_my/stm32f4xx_hal_can.o
 .text.HAL_CAN_RxFifo0FullCallback
                0x00000000        0x2 build_my/stm32f4xx_hal_can.o
 .text.HAL_CAN_RxFifo1MsgPendingCallback
                0x00000000        0x2 build_my/stm32f4xx_hal_can.o
 .text.HAL_CAN_RxFifo1FullCallback
                0x00000000        0x2 build_my/stm32f4xx_hal_can.o
 .text.HAL_CAN_SleepCallback
                0x00000000        0x2 build_my/stm32f4xx_hal_can.o
 .text.HAL_CAN_WakeUpFromRxMsgCallback
                0x00000000        0x2 build_my/stm32f4xx_hal_can.o
 .text.HAL_CAN_ErrorCallback
                0x00000000        0x2 build_my/stm32f4xx_hal_can.o
 .text.HAL_CAN_IRQHandler
                0x00000000      0x24a build_my/stm32f4xx_hal_can.o
 .text.HAL_CAN_GetState
                0x00000000       0x2c build_my/stm32f4xx_hal_can.o
 .text.HAL_CAN_GetError
                0x00000000        0x4 build_my/stm32f4xx_hal_can.o
 .text.HAL_CAN_ResetError
                0x00000000       0x20 build_my/stm32f4xx_hal_can.o
 .debug_info    0x00000000     0x147f build_my/stm32f4xx_hal_can.o
 .debug_abbrev  0x00000000      0x2af build_my/stm32f4xx_hal_can.o
 .debug_loc     0x00000000      0xf4a build_my/stm32f4xx_hal_can.o
 .debug_aranges
                0x00000000      0x138 build_my/stm32f4xx_hal_can.o
 .debug_ranges  0x00000000      0x128 build_my/stm32f4xx_hal_can.o
 .debug_line    0x00000000     0x10c6 build_my/stm32f4xx_hal_can.o
 .debug_str     0x00000000      0xb1e build_my/stm32f4xx_hal_can.o
 .comment       0x00000000       0x7a build_my/stm32f4xx_hal_can.o
 .debug_frame   0x00000000      0x310 build_my/stm32f4xx_hal_can.o
 .ARM.attributes
                0x00000000       0x34 build_my/stm32f4xx_hal_can.o
 .text          0x00000000        0x0 build_my/stm32f4xx_hal_tim.o
 .data          0x00000000        0x0 build_my/stm32f4xx_hal_tim.o
 .bss           0x00000000        0x0 build_my/stm32f4xx_hal_tim.o
 .text.TIM_TI2_SetConfig
                0x00000000       0x34 build_my/stm32f4xx_hal_tim.o
 .text.TIM_TI3_SetConfig
                0x00000000       0x32 build_my/stm32f4xx_hal_tim.o
 .text.TIM_TI4_SetConfig
                0x00000000       0x34 build_my/stm32f4xx_hal_tim.o
 .text.TIM_ITRx_SetConfig
                0x00000000       0x10 build_my/stm32f4xx_hal_tim.o
 .text.HAL_TIM_Base_MspInit
                0x00000000        0x2 build_my/stm32f4xx_hal_tim.o
 .text.HAL_TIM_Base_MspDeInit
                0x00000000        0x2 build_my/stm32f4xx_hal_tim.o
 .text.HAL_TIM_Base_DeInit
                0x00000000       0x3a build_my/stm32f4xx_hal_tim.o
 .text.HAL_TIM_Base_Stop
                0x00000000       0x2e build_my/stm32f4xx_hal_tim.o
 .text.HAL_TIM_Base_Stop_IT
                0x00000000       0x2c build_my/stm32f4xx_hal_tim.o
 .text.HAL_TIM_Base_Start_DMA
                0x00000000       0x78 build_my/stm32f4xx_hal_tim.o
 .text.HAL_TIM_Base_Stop_DMA
                0x00000000       0x3c build_my/stm32f4xx_hal_tim.o
 .text.HAL_TIM_OC_MspDeInit
                0x00000000        0x2 build_my/stm32f4xx_hal_tim.o
 .text.HAL_TIM_OC_DeInit
                0x00000000       0x3a build_my/stm32f4xx_hal_tim.o
 .text.HAL_TIM_PWM_MspInit
                0x00000000        0x2 build_my/stm32f4xx_hal_tim.o
 .text.HAL_TIM_PWM_MspDeInit
                0x00000000        0x2 build_my/stm32f4xx_hal_tim.o
 .text.HAL_TIM_PWM_DeInit
                0x00000000       0x3a build_my/stm32f4xx_hal_tim.o
 .text.HAL_TIM_IC_MspInit
                0x00000000        0x2 build_my/stm32f4xx_hal_tim.o
 .text.HAL_TIM_IC_MspDeInit
                0x00000000        0x2 build_my/stm32f4xx_hal_tim.o
 .text.HAL_TIM_IC_DeInit
                0x00000000       0x3a build_my/stm32f4xx_hal_tim.o
 .text.HAL_TIM_OnePulse_MspInit
                0x00000000        0x2 build_my/stm32f4xx_hal_tim.o
 .text.HAL_TIM_OnePulse_MspDeInit
                0x00000000        0x2 build_my/stm32f4xx_hal_tim.o
 .text.HAL_TIM_OnePulse_DeInit
                0x00000000       0x3a build_my/stm32f4xx_hal_tim.o
 .text.HAL_TIM_Encoder_MspInit
                0x00000000        0x2 build_my/stm32f4xx_hal_tim.o
 .text.HAL_TIM_Encoder_MspDeInit
                0x00000000        0x2 build_my/stm32f4xx_hal_tim.o
 .text.HAL_TIM_Encoder_DeInit
                0x00000000       0x3a build_my/stm32f4xx_hal_tim.o
 .text.HAL_TIM_DMABurst_WriteStart
                0x00000000      0x1b0 build_my/stm32f4xx_hal_tim.o
 .text.HAL_TIM_DMABurst_WriteStop
                0x00000000       0x7e build_my/stm32f4xx_hal_tim.o
 .text.HAL_TIM_DMABurst_ReadStart
                0x00000000      0x1b0 build_my/stm32f4xx_hal_tim.o
 .text.HAL_TIM_DMABurst_ReadStop
                0x00000000       0x7e build_my/stm32f4xx_hal_tim.o
 .text.HAL_TIM_GenerateEvent
                0x00000000       0x26 build_my/stm32f4xx_hal_tim.o
 .text.HAL_TIM_ConfigTI1Input
                0x00000000       0x10 build_my/stm32f4xx_hal_tim.o
 .text.HAL_TIM_ReadCapturedValue
                0x00000000       0x32 build_my/stm32f4xx_hal_tim.o
 .text.TIM_DMAPeriodElapsedCplt
                0x00000000       0x10 build_my/stm32f4xx_hal_tim.o
 .text.HAL_TIM_PeriodElapsedHalfCpltCallback
                0x00000000        0x2 build_my/stm32f4xx_hal_tim.o
 .text.TIM_DMAPeriodElapsedHalfCplt
                0x00000000       0x10 build_my/stm32f4xx_hal_tim.o
 .text.TIM_DMACaptureCplt
                0x00000000       0x44 build_my/stm32f4xx_hal_tim.o
 .text.HAL_TIM_IC_CaptureHalfCpltCallback
                0x00000000        0x2 build_my/stm32f4xx_hal_tim.o
 .text.TIM_DMACaptureHalfCplt
                0x00000000       0x44 build_my/stm32f4xx_hal_tim.o
 .text.TIM_DMADelayPulseCplt
                0x00000000       0x44 build_my/stm32f4xx_hal_tim.o
 .text.HAL_TIM_PWM_PulseFinishedHalfCpltCallback
                0x00000000        0x2 build_my/stm32f4xx_hal_tim.o
 .text.TIM_DMADelayPulseHalfCplt
                0x00000000       0x44 build_my/stm32f4xx_hal_tim.o
 .text.TIM_DMATriggerCplt
                0x00000000       0x10 build_my/stm32f4xx_hal_tim.o
 .text.HAL_TIM_TriggerHalfCpltCallback
                0x00000000        0x2 build_my/stm32f4xx_hal_tim.o
 .text.TIM_DMATriggerHalfCplt
                0x00000000       0x10 build_my/stm32f4xx_hal_tim.o
 .text.HAL_TIM_ErrorCallback
                0x00000000        0x2 build_my/stm32f4xx_hal_tim.o
 .text.TIM_DMAError
                0x00000000       0x10 build_my/stm32f4xx_hal_tim.o
 .text.HAL_TIM_Base_GetState
                0x00000000        0x6 build_my/stm32f4xx_hal_tim.o
 .text.HAL_TIM_OC_GetState
                0x00000000        0x6 build_my/stm32f4xx_hal_tim.o
 .text.HAL_TIM_PWM_GetState
                0x00000000        0x6 build_my/stm32f4xx_hal_tim.o
 .text.HAL_TIM_IC_GetState
                0x00000000        0x6 build_my/stm32f4xx_hal_tim.o
 .text.HAL_TIM_OnePulse_GetState
                0x00000000        0x6 build_my/stm32f4xx_hal_tim.o
 .text.HAL_TIM_Encoder_GetState
                0x00000000        0x6 build_my/stm32f4xx_hal_tim.o
 .text.HAL_TIM_IC_Init
                0x00000000       0x34 build_my/stm32f4xx_hal_tim.o
 .text.HAL_TIM_OnePulse_Init
                0x00000000       0x48 build_my/stm32f4xx_hal_tim.o
 .text.HAL_TIM_Encoder_Init
                0x00000000       0x9c build_my/stm32f4xx_hal_tim.o
 .text.TIM_TI1_SetConfig
                0x00000000       0x78 build_my/stm32f4xx_hal_tim.o
 .text.HAL_TIM_IC_ConfigChannel
                0x00000000       0xc0 build_my/stm32f4xx_hal_tim.o
 .text.HAL_TIM_OnePulse_ConfigChannel
                0x00000000       0xf2 build_my/stm32f4xx_hal_tim.o
 .text.HAL_TIM_ConfigOCrefClear
                0x00000000       0xe4 build_my/stm32f4xx_hal_tim.o
 .text.HAL_TIM_ConfigClockSource
                0x00000000       0xda build_my/stm32f4xx_hal_tim.o
 .text.HAL_TIM_SlaveConfigSynchro_IT
                0x00000000       0x52 build_my/stm32f4xx_hal_tim.o
 .text.HAL_TIM_OC_Start
                0x00000000       0x40 build_my/stm32f4xx_hal_tim.o
 .text.HAL_TIM_OC_Stop
                0x00000000       0x60 build_my/stm32f4xx_hal_tim.o
 .text.HAL_TIM_OC_Start_IT
                0x00000000       0x84 build_my/stm32f4xx_hal_tim.o
 .text.HAL_TIM_OC_Stop_IT
                0x00000000       0xa4 build_my/stm32f4xx_hal_tim.o
 .text.HAL_TIM_OC_Start_DMA
                0x00000000      0x14c build_my/stm32f4xx_hal_tim.o
 .text.HAL_TIM_OC_Stop_DMA
                0x00000000       0xc8 build_my/stm32f4xx_hal_tim.o
 .text.HAL_TIM_PWM_Stop
                0x00000000       0x68 build_my/stm32f4xx_hal_tim.o
 .text.HAL_TIM_PWM_Start_IT
                0x00000000       0x84 build_my/stm32f4xx_hal_tim.o
 .text.HAL_TIM_PWM_Stop_IT
                0x00000000       0xa4 build_my/stm32f4xx_hal_tim.o
 .text.HAL_TIM_PWM_Start_DMA
                0x00000000      0x14c build_my/stm32f4xx_hal_tim.o
 .text.HAL_TIM_PWM_Stop_DMA
                0x00000000       0xc8 build_my/stm32f4xx_hal_tim.o
 .text.HAL_TIM_IC_Start
                0x00000000       0x24 build_my/stm32f4xx_hal_tim.o
 .text.HAL_TIM_IC_Stop
                0x00000000       0x2e build_my/stm32f4xx_hal_tim.o
 .text.HAL_TIM_IC_Start_IT
                0x00000000       0x68 build_my/stm32f4xx_hal_tim.o
 .text.HAL_TIM_IC_Stop_IT
                0x00000000       0x72 build_my/stm32f4xx_hal_tim.o
 .text.HAL_TIM_IC_Start_DMA
                0x00000000      0x12c build_my/stm32f4xx_hal_tim.o
 .text.HAL_TIM_IC_Stop_DMA
                0x00000000       0x94 build_my/stm32f4xx_hal_tim.o
 .text.HAL_TIM_OnePulse_Start
                0x00000000       0x38 build_my/stm32f4xx_hal_tim.o
 .text.HAL_TIM_OnePulse_Stop
                0x00000000       0x6c build_my/stm32f4xx_hal_tim.o
 .text.HAL_TIM_OnePulse_Start_IT
                0x00000000       0x4c build_my/stm32f4xx_hal_tim.o
 .text.HAL_TIM_OnePulse_Stop_IT
                0x00000000       0x80 build_my/stm32f4xx_hal_tim.o
 .text.HAL_TIM_Encoder_Start
                0x00000000       0x44 build_my/stm32f4xx_hal_tim.o
 .text.HAL_TIM_Encoder_Stop
                0x00000000       0x58 build_my/stm32f4xx_hal_tim.o
 .text.HAL_TIM_Encoder_Start_IT
                0x00000000       0x6c build_my/stm32f4xx_hal_tim.o
 .text.HAL_TIM_Encoder_Stop_IT
                0x00000000       0x86 build_my/stm32f4xx_hal_tim.o
 .text.HAL_TIM_Encoder_Start_DMA
                0x00000000      0x15c build_my/stm32f4xx_hal_tim.o
 .text.HAL_TIM_Encoder_Stop_DMA
                0x00000000       0xa0 build_my/stm32f4xx_hal_tim.o
 .text          0x00000000        0x0 build_my/stm32f4xx_hal_tim_ex.o
 .data          0x00000000        0x0 build_my/stm32f4xx_hal_tim_ex.o
 .bss           0x00000000        0x0 build_my/stm32f4xx_hal_tim_ex.o
 .text.HAL_TIMEx_HallSensor_MspInit
                0x00000000        0x2 build_my/stm32f4xx_hal_tim_ex.o
 .text.HAL_TIMEx_HallSensor_Init
                0x00000000       0xc0 build_my/stm32f4xx_hal_tim_ex.o
 .text.HAL_TIMEx_HallSensor_MspDeInit
                0x00000000        0x2 build_my/stm32f4xx_hal_tim_ex.o
 .text.HAL_TIMEx_HallSensor_DeInit
                0x00000000       0x3a build_my/stm32f4xx_hal_tim_ex.o
 .text.HAL_TIMEx_HallSensor_Start
                0x00000000       0x26 build_my/stm32f4xx_hal_tim_ex.o
 .text.HAL_TIMEx_HallSensor_Stop
                0x00000000       0x30 build_my/stm32f4xx_hal_tim_ex.o
 .text.HAL_TIMEx_HallSensor_Start_IT
                0x00000000       0x30 build_my/stm32f4xx_hal_tim_ex.o
 .text.HAL_TIMEx_HallSensor_Stop_IT
                0x00000000       0x3a build_my/stm32f4xx_hal_tim_ex.o
 .text.HAL_TIMEx_HallSensor_Start_DMA
                0x00000000       0x88 build_my/stm32f4xx_hal_tim_ex.o
 .text.HAL_TIMEx_HallSensor_Stop_DMA
                0x00000000       0x40 build_my/stm32f4xx_hal_tim_ex.o
 .text.HAL_TIMEx_OCN_Start
                0x00000000       0x2e build_my/stm32f4xx_hal_tim_ex.o
 .text.HAL_TIMEx_OCN_Stop
                0x00000000       0x4c build_my/stm32f4xx_hal_tim_ex.o
 .text.HAL_TIMEx_OCN_Start_IT
                0x00000000       0x66 build_my/stm32f4xx_hal_tim_ex.o
 .text.HAL_TIMEx_OCN_Stop_IT
                0x00000000       0x90 build_my/stm32f4xx_hal_tim_ex.o
 .text.HAL_TIMEx_OCN_Start_DMA
                0x00000000      0x100 build_my/stm32f4xx_hal_tim_ex.o
 .text.HAL_TIMEx_OCN_Stop_DMA
                0x00000000       0x96 build_my/stm32f4xx_hal_tim_ex.o
 .text.HAL_TIMEx_PWMN_Stop
                0x00000000       0x4c build_my/stm32f4xx_hal_tim_ex.o
 .text.HAL_TIMEx_PWMN_Start_IT
                0x00000000       0x66 build_my/stm32f4xx_hal_tim_ex.o
 .text.HAL_TIMEx_PWMN_Stop_IT
                0x00000000       0x90 build_my/stm32f4xx_hal_tim_ex.o
 .text.HAL_TIMEx_PWMN_Start_DMA
                0x00000000      0x100 build_my/stm32f4xx_hal_tim_ex.o
 .text.HAL_TIMEx_PWMN_Stop_DMA
                0x00000000       0x96 build_my/stm32f4xx_hal_tim_ex.o
 .text.HAL_TIMEx_OnePulseN_Start
                0x00000000       0x1a build_my/stm32f4xx_hal_tim_ex.o
 .text.HAL_TIMEx_OnePulseN_Stop
                0x00000000       0x4c build_my/stm32f4xx_hal_tim_ex.o
 .text.HAL_TIMEx_OnePulseN_Start_IT
                0x00000000       0x2e build_my/stm32f4xx_hal_tim_ex.o
 .text.HAL_TIMEx_OnePulseN_Stop_IT
                0x00000000       0x60 build_my/stm32f4xx_hal_tim_ex.o
 .text.HAL_TIMEx_ConfigCommutEvent
                0x00000000       0x72 build_my/stm32f4xx_hal_tim_ex.o
 .text.HAL_TIMEx_ConfigCommutEvent_IT
                0x00000000       0x72 build_my/stm32f4xx_hal_tim_ex.o
 .text.HAL_TIMEx_ConfigCommutEvent_DMA
                0x00000000       0x90 build_my/stm32f4xx_hal_tim_ex.o
 .text.HAL_TIMEx_RemapConfig
                0x00000000       0x1a build_my/stm32f4xx_hal_tim_ex.o
 .text.TIMEx_DMACommutationCplt
                0x00000000       0x10 build_my/stm32f4xx_hal_tim_ex.o
 .text.HAL_TIMEx_CommutHalfCpltCallback
                0x00000000        0x2 build_my/stm32f4xx_hal_tim_ex.o
 .text.TIMEx_DMACommutationHalfCplt
                0x00000000       0x10 build_my/stm32f4xx_hal_tim_ex.o
 .text.HAL_TIMEx_HallSensor_GetState
                0x00000000        0x6 build_my/stm32f4xx_hal_tim_ex.o
 .text          0x00000000        0x0 build_my/stm32f4xx_hal_uart.o
 .data          0x00000000        0x0 build_my/stm32f4xx_hal_uart.o
 .bss           0x00000000        0x0 build_my/stm32f4xx_hal_uart.o
 .text.HAL_UART_MspInit
                0x00000000        0x2 build_my/stm32f4xx_hal_uart.o
 .text.HAL_HalfDuplex_Init
                0x00000000       0x6a build_my/stm32f4xx_hal_uart.o
 .text.HAL_LIN_Init
                0x00000000       0x80 build_my/stm32f4xx_hal_uart.o
 .text.HAL_MultiProcessor_Init
                0x00000000       0x8a build_my/stm32f4xx_hal_uart.o
 .text.HAL_UART_MspDeInit
                0x00000000        0x2 build_my/stm32f4xx_hal_uart.o
 .text.HAL_UART_DeInit
                0x00000000       0x30 build_my/stm32f4xx_hal_uart.o
 .text.HAL_UART_Receive
                0x00000000       0xea build_my/stm32f4xx_hal_uart.o
 .text.HAL_UART_DMAPause
                0x00000000       0x70 build_my/stm32f4xx_hal_uart.o
 .text.HAL_UART_DMAResume
                0x00000000       0x76 build_my/stm32f4xx_hal_uart.o
 .text.HAL_UART_Abort
                0x00000000       0x94 build_my/stm32f4xx_hal_uart.o
 .text.HAL_UART_AbortTransmit
                0x00000000       0x4e build_my/stm32f4xx_hal_uart.o
 .text.HAL_UART_AbortReceive
                0x00000000       0x58 build_my/stm32f4xx_hal_uart.o
 .text.HAL_UART_RxCpltCallback
                0x00000000        0x2 build_my/stm32f4xx_hal_uart.o
 .text.HAL_UART_AbortCpltCallback
                0x00000000        0x2 build_my/stm32f4xx_hal_uart.o
 .text.HAL_UART_Abort_IT
                0x00000000       0xc4 build_my/stm32f4xx_hal_uart.o
 .text.UART_DMARxAbortCallback
                0x00000000       0x2a build_my/stm32f4xx_hal_uart.o
 .text.UART_DMATxAbortCallback
                0x00000000       0x2a build_my/stm32f4xx_hal_uart.o
 .text.HAL_UART_AbortTransmitCpltCallback
                0x00000000        0x2 build_my/stm32f4xx_hal_uart.o
 .text.HAL_UART_AbortTransmit_IT
                0x00000000       0x60 build_my/stm32f4xx_hal_uart.o
 .text.UART_DMATxOnlyAbortCallback
                0x00000000       0x14 build_my/stm32f4xx_hal_uart.o
 .text.HAL_UART_AbortReceiveCpltCallback
                0x00000000        0x2 build_my/stm32f4xx_hal_uart.o
 .text.HAL_UART_AbortReceive_IT
                0x00000000       0x68 build_my/stm32f4xx_hal_uart.o
 .text.UART_DMARxOnlyAbortCallback
                0x00000000       0x14 build_my/stm32f4xx_hal_uart.o
 .text.HAL_LIN_SendBreak
                0x00000000       0x32 build_my/stm32f4xx_hal_uart.o
 .text.HAL_MultiProcessor_EnterMuteMode
                0x00000000       0x32 build_my/stm32f4xx_hal_uart.o
 .text.HAL_MultiProcessor_ExitMuteMode
                0x00000000       0x32 build_my/stm32f4xx_hal_uart.o
 .text.HAL_HalfDuplex_EnableTransmitter
                0x00000000       0x36 build_my/stm32f4xx_hal_uart.o
 .text.HAL_HalfDuplex_EnableReceiver
                0x00000000       0x36 build_my/stm32f4xx_hal_uart.o
 .text.HAL_UART_GetState
                0x00000000        0xc build_my/stm32f4xx_hal_uart.o
 .text.HAL_UART_GetError
                0x00000000        0x4 build_my/stm32f4xx_hal_uart.o
 .text          0x00000000        0x0 build_my/stm32f4xx_hal_pcd.o
 .data          0x00000000        0x0 build_my/stm32f4xx_hal_pcd.o
 .bss           0x00000000        0x0 build_my/stm32f4xx_hal_pcd.o
 .text.PCD_WriteEmptyTxFifo
                0x00000000       0xd2 build_my/stm32f4xx_hal_pcd.o
 .text.HAL_PCD_MspInit
                0x00000000        0x2 build_my/stm32f4xx_hal_pcd.o
 .text.HAL_PCD_Init
                0x00000000      0x126 build_my/stm32f4xx_hal_pcd.o
 .text.HAL_PCD_MspDeInit
                0x00000000        0x2 build_my/stm32f4xx_hal_pcd.o
 .text.HAL_PCD_Start
                0x00000000       0x42 build_my/stm32f4xx_hal_pcd.o
 .text.HAL_PCD_Stop
                0x00000000       0x40 build_my/stm32f4xx_hal_pcd.o
 .text.HAL_PCD_DeInit
                0x00000000       0x22 build_my/stm32f4xx_hal_pcd.o
 .text.HAL_PCD_DataOutStageCallback
                0x00000000        0x2 build_my/stm32f4xx_hal_pcd.o
 .text.HAL_PCD_DataInStageCallback
                0x00000000        0x2 build_my/stm32f4xx_hal_pcd.o
 .text.HAL_PCD_SetupStageCallback
                0x00000000        0x2 build_my/stm32f4xx_hal_pcd.o
 .text.PCD_EP_OutXfrComplete_int
                0x00000000       0xf8 build_my/stm32f4xx_hal_pcd.o
 .text.PCD_EP_OutSetupPacket_int
                0x00000000       0x6c build_my/stm32f4xx_hal_pcd.o
 .text.HAL_PCD_SOFCallback
                0x00000000        0x2 build_my/stm32f4xx_hal_pcd.o
 .text.HAL_PCD_ResetCallback
                0x00000000        0x2 build_my/stm32f4xx_hal_pcd.o
 .text.HAL_PCD_SuspendCallback
                0x00000000        0x2 build_my/stm32f4xx_hal_pcd.o
 .text.HAL_PCD_ResumeCallback
                0x00000000        0x2 build_my/stm32f4xx_hal_pcd.o
 .text.HAL_PCD_ISOOUTIncompleteCallback
                0x00000000        0x2 build_my/stm32f4xx_hal_pcd.o
 .text.HAL_PCD_ISOINIncompleteCallback
                0x00000000        0x2 build_my/stm32f4xx_hal_pcd.o
 .text.HAL_PCD_ConnectCallback
                0x00000000        0x2 build_my/stm32f4xx_hal_pcd.o
 .text.HAL_PCD_DisconnectCallback
                0x00000000        0x2 build_my/stm32f4xx_hal_pcd.o
 .text.HAL_PCD_IRQHandler
                0x00000000      0x498 build_my/stm32f4xx_hal_pcd.o
 .text.HAL_PCD_DevConnect
                0x00000000       0x3c build_my/stm32f4xx_hal_pcd.o
 .text.HAL_PCD_DevDisconnect
                0x00000000       0x24 build_my/stm32f4xx_hal_pcd.o
 .text.HAL_PCD_SetAddress
                0x00000000       0x28 build_my/stm32f4xx_hal_pcd.o
 .text.HAL_PCD_EP_Open
                0x00000000       0x86 build_my/stm32f4xx_hal_pcd.o
 .text.HAL_PCD_EP_Close
                0x00000000       0x72 build_my/stm32f4xx_hal_pcd.o
 .text.HAL_PCD_EP_Receive
                0x00000000       0x5e build_my/stm32f4xx_hal_pcd.o
 .text.HAL_PCD_EP_GetRxCount
                0x00000000       0x12 build_my/stm32f4xx_hal_pcd.o
 .text.HAL_PCD_EP_Transmit
                0x00000000       0x56 build_my/stm32f4xx_hal_pcd.o
 .text.HAL_PCD_EP_SetStall
                0x00000000       0x88 build_my/stm32f4xx_hal_pcd.o
 .text.HAL_PCD_EP_ClrStall
                0x00000000       0x76 build_my/stm32f4xx_hal_pcd.o
 .text.HAL_PCD_EP_Flush
                0x00000000       0x36 build_my/stm32f4xx_hal_pcd.o
 .text.HAL_PCD_ActivateRemoteWakeup
                0x00000000        0xa build_my/stm32f4xx_hal_pcd.o
 .text.HAL_PCD_DeActivateRemoteWakeup
                0x00000000        0xa build_my/stm32f4xx_hal_pcd.o
 .text.HAL_PCD_GetState
                0x00000000        0x6 build_my/stm32f4xx_hal_pcd.o
 .debug_info    0x00000000     0x1ba4 build_my/stm32f4xx_hal_pcd.o
 .debug_abbrev  0x00000000      0x2ef build_my/stm32f4xx_hal_pcd.o
 .debug_loc     0x00000000     0x1638 build_my/stm32f4xx_hal_pcd.o
 .debug_aranges
                0x00000000      0x130 build_my/stm32f4xx_hal_pcd.o
 .debug_ranges  0x00000000      0x120 build_my/stm32f4xx_hal_pcd.o
 .debug_line    0x00000000     0x12f9 build_my/stm32f4xx_hal_pcd.o
 .debug_str     0x00000000      0xdf9 build_my/stm32f4xx_hal_pcd.o
 .comment       0x00000000       0x7a build_my/stm32f4xx_hal_pcd.o
 .debug_frame   0x00000000      0x3c0 build_my/stm32f4xx_hal_pcd.o
 .ARM.attributes
                0x00000000       0x34 build_my/stm32f4xx_hal_pcd.o
 .text          0x00000000        0x0 build_my/stm32f4xx_hal_pcd_ex.o
 .data          0x00000000        0x0 build_my/stm32f4xx_hal_pcd_ex.o
 .bss           0x00000000        0x0 build_my/stm32f4xx_hal_pcd_ex.o
 .text.HAL_PCDEx_SetTxFiFo
                0x00000000       0x48 build_my/stm32f4xx_hal_pcd_ex.o
 .text.HAL_PCDEx_SetRxFiFo
                0x00000000        0x8 build_my/stm32f4xx_hal_pcd_ex.o
 .text.HAL_PCDEx_LPM_Callback
                0x00000000        0x2 build_my/stm32f4xx_hal_pcd_ex.o
 .text.HAL_PCDEx_BCD_Callback
                0x00000000        0x2 build_my/stm32f4xx_hal_pcd_ex.o
 .debug_info    0x00000000      0x867 build_my/stm32f4xx_hal_pcd_ex.o
 .debug_abbrev  0x00000000      0x1f2 build_my/stm32f4xx_hal_pcd_ex.o
 .debug_loc     0x00000000       0xed build_my/stm32f4xx_hal_pcd_ex.o
 .debug_aranges
                0x00000000       0x38 build_my/stm32f4xx_hal_pcd_ex.o
 .debug_ranges  0x00000000       0x28 build_my/stm32f4xx_hal_pcd_ex.o
 .debug_line    0x00000000      0x2b2 build_my/stm32f4xx_hal_pcd_ex.o
 .debug_str     0x00000000      0x7d1 build_my/stm32f4xx_hal_pcd_ex.o
 .comment       0x00000000       0x7a build_my/stm32f4xx_hal_pcd_ex.o
 .debug_frame   0x00000000       0x60 build_my/stm32f4xx_hal_pcd_ex.o
 .ARM.attributes
                0x00000000       0x34 build_my/stm32f4xx_hal_pcd_ex.o
 .text          0x00000000        0x0 build_my/stm32f4xx_ll_usb.o
 .data          0x00000000        0x0 build_my/stm32f4xx_ll_usb.o
 .bss           0x00000000        0x0 build_my/stm32f4xx_ll_usb.o
 .text.USB_CoreReset
                0x00000000       0x3c build_my/stm32f4xx_ll_usb.o
 .text.USB_CoreInit
                0x00000000       0x8a build_my/stm32f4xx_ll_usb.o
 .text.USB_SetTurnaroundTime
                0x00000000       0xe4 build_my/stm32f4xx_ll_usb.o
 .text.USB_EnableGlobalInt
                0x00000000        0xc build_my/stm32f4xx_ll_usb.o
 .text.USB_DisableGlobalInt
                0x00000000        0xc build_my/stm32f4xx_ll_usb.o
 .text.USB_SetCurrentMode
                0x00000000       0x30 build_my/stm32f4xx_ll_usb.o
 .text.USB_FlushTxFifo
                0x00000000       0x28 build_my/stm32f4xx_ll_usb.o
 .text.USB_FlushRxFifo
                0x00000000       0x24 build_my/stm32f4xx_ll_usb.o
 .text.USB_SetDevSpeed
                0x00000000        0xe build_my/stm32f4xx_ll_usb.o
 .text.USB_DevInit
                0x00000000      0x1a4 build_my/stm32f4xx_ll_usb.o
 .text.USB_GetDevSpeed
                0x00000000       0x22 build_my/stm32f4xx_ll_usb.o
 .text.USB_ActivateEndpoint
                0x00000000       0x94 build_my/stm32f4xx_ll_usb.o
 .text.USB_ActivateDedicatedEndpoint
                0x00000000       0x9a build_my/stm32f4xx_ll_usb.o
 .text.USB_DeactivateEndpoint
                0x00000000       0x90 build_my/stm32f4xx_ll_usb.o
 .text.USB_DeactivateDedicatedEndpoint
                0x00000000       0x5c build_my/stm32f4xx_ll_usb.o
 .text.USB_EP0StartXfer
                0x00000000      0x11c build_my/stm32f4xx_ll_usb.o
 .text.USB_WritePacket
                0x00000000       0x28 build_my/stm32f4xx_ll_usb.o
 .text.USB_EPStartXfer
                0x00000000      0x218 build_my/stm32f4xx_ll_usb.o
 .text.USB_ReadPacket
                0x00000000       0x22 build_my/stm32f4xx_ll_usb.o
 .text.USB_EPSetStall
                0x00000000       0x5a build_my/stm32f4xx_ll_usb.o
 .text.USB_EPClearStall
                0x00000000       0x5c build_my/stm32f4xx_ll_usb.o
 .text.USB_StopDevice
                0x00000000       0x42 build_my/stm32f4xx_ll_usb.o
 .text.USB_SetDevAddress
                0x00000000       0x20 build_my/stm32f4xx_ll_usb.o
 .text.USB_DevConnect
                0x00000000       0x18 build_my/stm32f4xx_ll_usb.o
 .text.USB_DevDisconnect
                0x00000000       0x18 build_my/stm32f4xx_ll_usb.o
 .text.USB_ReadInterrupts
                0x00000000        0x8 build_my/stm32f4xx_ll_usb.o
 .text.USB_ReadDevAllOutEpInterrupt
                0x00000000       0x10 build_my/stm32f4xx_ll_usb.o
 .text.USB_ReadDevAllInEpInterrupt
                0x00000000       0x10 build_my/stm32f4xx_ll_usb.o
 .text.USB_ReadDevOutEPInterrupt
                0x00000000       0x12 build_my/stm32f4xx_ll_usb.o
 .text.USB_ReadDevInEPInterrupt
                0x00000000       0x28 build_my/stm32f4xx_ll_usb.o
 .text.USB_ClearInterrupts
                0x00000000        0x8 build_my/stm32f4xx_ll_usb.o
 .text.USB_GetMode
                0x00000000        0x8 build_my/stm32f4xx_ll_usb.o
 .text.USB_ActivateSetup
                0x00000000       0x38 build_my/stm32f4xx_ll_usb.o
 .text.USB_EP0_OutStart
                0x00000000       0x60 build_my/stm32f4xx_ll_usb.o
 .text.USB_InitFSLSPClkSel
                0x00000000       0x40 build_my/stm32f4xx_ll_usb.o
 .text.USB_ResetPort
                0x00000000       0x3e build_my/stm32f4xx_ll_usb.o
 .text.USB_DriveVbus
                0x00000000       0x46 build_my/stm32f4xx_ll_usb.o
 .text.USB_HostInit
                0x00000000       0xfc build_my/stm32f4xx_ll_usb.o
 .text.USB_GetHostSpeed
                0x00000000       0x16 build_my/stm32f4xx_ll_usb.o
 .text.USB_GetCurrentFrame
                0x00000000        0xa build_my/stm32f4xx_ll_usb.o
 .text.USB_HC_Init
                0x00000000      0x108 build_my/stm32f4xx_ll_usb.o
 .text.USB_HC_ReadInterrupt
                0x00000000        0xa build_my/stm32f4xx_ll_usb.o
 .text.USB_HC_Halt
                0x00000000       0xd0 build_my/stm32f4xx_ll_usb.o
 .text.USB_DoPing
                0x00000000       0x24 build_my/stm32f4xx_ll_usb.o
 .text.USB_HC_StartXfer
                0x00000000      0x158 build_my/stm32f4xx_ll_usb.o
 .text.USB_StopHost
                0x00000000       0x7e build_my/stm32f4xx_ll_usb.o
 .text.USB_ActivateRemoteWakeup
                0x00000000       0x1a build_my/stm32f4xx_ll_usb.o
 .text.USB_DeActivateRemoteWakeup
                0x00000000       0x10 build_my/stm32f4xx_ll_usb.o
 .bss.tmpreg.9166
                0x00000000        0x4 build_my/stm32f4xx_ll_usb.o
 .debug_info    0x00000000     0x2141 build_my/stm32f4xx_ll_usb.o
 .debug_abbrev  0x00000000      0x335 build_my/stm32f4xx_ll_usb.o
 .debug_loc     0x00000000     0x27b4 build_my/stm32f4xx_ll_usb.o
 .debug_aranges
                0x00000000      0x198 build_my/stm32f4xx_ll_usb.o
 .debug_ranges  0x00000000      0x188 build_my/stm32f4xx_ll_usb.o
 .debug_line    0x00000000     0x1ab8 build_my/stm32f4xx_ll_usb.o
 .debug_str     0x00000000      0xd0f build_my/stm32f4xx_ll_usb.o
 .comment       0x00000000       0x7a build_my/stm32f4xx_ll_usb.o
 .debug_frame   0x00000000      0x518 build_my/stm32f4xx_ll_usb.o
 .ARM.attributes
                0x00000000       0x34 build_my/stm32f4xx_ll_usb.o
 .text          0x00000000        0x0 build_my/system_stm32f4xx.o
 .data          0x00000000        0x0 build_my/system_stm32f4xx.o
 .bss           0x00000000        0x0 build_my/system_stm32f4xx.o
 .text.SystemCoreClockUpdate
                0x00000000       0xa0 build_my/system_stm32f4xx.o
 .text          0x00000000        0x0 build_my/dma.o
 .data          0x00000000        0x0 build_my/dma.o
 .bss           0x00000000        0x0 build_my/dma.o
 .text          0x00000000        0x0 build_my/spi.o
 .data          0x00000000        0x0 build_my/spi.o
 .bss           0x00000000        0x0 build_my/spi.o
 .text.HAL_SPI_MspDeInit
                0x00000000       0x4c build_my/spi.o
 .text          0x00000000        0x0 build_my/stm32f4xx_hal_spi.o
 .data          0x00000000        0x0 build_my/stm32f4xx_hal_spi.o
 .bss           0x00000000        0x0 build_my/stm32f4xx_hal_spi.o
 .text.HAL_SPI_MspInit
                0x00000000        0x2 build_my/stm32f4xx_hal_spi.o
 .text.HAL_SPI_MspDeInit
                0x00000000        0x2 build_my/stm32f4xx_hal_spi.o
 .text.HAL_SPI_DeInit
                0x00000000       0x2c build_my/stm32f4xx_hal_spi.o
 .text.HAL_SPI_Transmit
                0x00000000      0x1a4 build_my/stm32f4xx_hal_spi.o
 .text.HAL_SPI_Receive
                0x00000000      0x166 build_my/stm32f4xx_hal_spi.o
 .text.HAL_SPI_Transmit_IT
                0x00000000       0xa0 build_my/stm32f4xx_hal_spi.o
 .text.HAL_SPI_TransmitReceive_IT
                0x00000000       0xc8 build_my/stm32f4xx_hal_spi.o
 .text.HAL_SPI_Receive_IT
                0x00000000       0xb4 build_my/stm32f4xx_hal_spi.o
 .text.HAL_SPI_Transmit_DMA
                0x00000000       0xd4 build_my/stm32f4xx_hal_spi.o
 .text.HAL_SPI_Receive_DMA
                0x00000000       0xf0 build_my/stm32f4xx_hal_spi.o
 .text.HAL_SPI_DMAPause
                0x00000000       0x26 build_my/stm32f4xx_hal_spi.o
 .text.HAL_SPI_DMAResume
                0x00000000       0x26 build_my/stm32f4xx_hal_spi.o
 .text.HAL_SPI_DMAStop
                0x00000000       0x46 build_my/stm32f4xx_hal_spi.o
 .text.HAL_SPI_TxCpltCallback
                0x00000000        0x2 build_my/stm32f4xx_hal_spi.o
 .text.HAL_SPI_TxRxCpltCallback
                0x00000000        0x2 build_my/stm32f4xx_hal_spi.o
 .text.HAL_SPI_TxHalfCpltCallback
                0x00000000        0x2 build_my/stm32f4xx_hal_spi.o
 .text.SPI_DMAHalfTransmitCplt
                0x00000000        0xa build_my/stm32f4xx_hal_spi.o
 .text.SPI_CloseTx_ISR
                0x00000000       0x90 build_my/stm32f4xx_hal_spi.o
 .text.SPI_TxISR_8BIT
                0x00000000       0x28 build_my/stm32f4xx_hal_spi.o
 .text.SPI_TxISR_16BIT
                0x00000000       0x28 build_my/stm32f4xx_hal_spi.o
 .text.SPI_CloseRx_ISR
                0x00000000       0x56 build_my/stm32f4xx_hal_spi.o
 .text.SPI_RxISR_8BIT
                0x00000000       0x28 build_my/stm32f4xx_hal_spi.o
 .text.SPI_RxISR_16BIT
                0x00000000       0x28 build_my/stm32f4xx_hal_spi.o
 .text.SPI_CloseRxTx_ISR
                0x00000000       0xb0 build_my/stm32f4xx_hal_spi.o
 .text.SPI_2linesTxISR_8BIT
                0x00000000       0x38 build_my/stm32f4xx_hal_spi.o
 .text.SPI_2linesRxISR_8BIT
                0x00000000       0x38 build_my/stm32f4xx_hal_spi.o
 .text.SPI_2linesTxISR_16BIT
                0x00000000       0x38 build_my/stm32f4xx_hal_spi.o
 .text.SPI_2linesRxISR_16BIT
                0x00000000       0x38 build_my/stm32f4xx_hal_spi.o
 .text.SPI_DMATransmitCplt
                0x00000000       0x70 build_my/stm32f4xx_hal_spi.o
 .text.HAL_SPI_IRQHandler
                0x00000000      0x124 build_my/stm32f4xx_hal_spi.o
 .text.SPI_DMAAbortOnError
                0x00000000       0x10 build_my/stm32f4xx_hal_spi.o
 .text.HAL_SPI_AbortCpltCallback
                0x00000000        0x2 build_my/stm32f4xx_hal_spi.o
 .text.HAL_SPI_Abort_IT
                0x00000000      0x15c build_my/stm32f4xx_hal_spi.o
 .text.SPI_DMARxAbortCallback
                0x00000000       0x78 build_my/stm32f4xx_hal_spi.o
 .text.SPI_DMATxAbortCallback
                0x00000000       0x90 build_my/stm32f4xx_hal_spi.o
 .text.HAL_SPI_GetState
                0x00000000        0x6 build_my/stm32f4xx_hal_spi.o
 .text.HAL_SPI_GetError
                0x00000000        0x4 build_my/stm32f4xx_hal_spi.o
 .text          0x00000000       0x14 build_my/startup_stm32f405xx.o
 .data          0x00000000        0x0 build_my/startup_stm32f405xx.o
 .bss           0x00000000        0x0 build_my/startup_stm32f405xx.o
 .text          0x00000000        0x0 c:/arm_gcc/bin/../lib/gcc/arm-none-eabi/9.2.1/../../../../arm-none-eabi/lib/thumb/v7e-m+fp/hard\libc_nano.a(lib_a-atof.o)
 .data          0x00000000        0x0 c:/arm_gcc/bin/../lib/gcc/arm-none-eabi/9.2.1/../../../../arm-none-eabi/lib/thumb/v7e-m+fp/hard\libc_nano.a(lib_a-atof.o)
 .bss           0x00000000        0x0 c:/arm_gcc/bin/../lib/gcc/arm-none-eabi/9.2.1/../../../../arm-none-eabi/lib/thumb/v7e-m+fp/hard\libc_nano.a(lib_a-atof.o)
 .text          0x00000000        0x0 c:/arm_gcc/bin/../lib/gcc/arm-none-eabi/9.2.1/../../../../arm-none-eabi/lib/thumb/v7e-m+fp/hard\libc_nano.a(lib_a-ctype_.o)
 .data          0x00000000        0x0 c:/arm_gcc/bin/../lib/gcc/arm-none-eabi/9.2.1/../../../../arm-none-eabi/lib/thumb/v7e-m+fp/hard\libc_nano.a(lib_a-ctype_.o)
 .bss           0x00000000        0x0 c:/arm_gcc/bin/../lib/gcc/arm-none-eabi/9.2.1/../../../../arm-none-eabi/lib/thumb/v7e-m+fp/hard\libc_nano.a(lib_a-ctype_.o)
 .text          0x00000000        0x0 c:/arm_gcc/bin/../lib/gcc/arm-none-eabi/9.2.1/../../../../arm-none-eabi/lib/thumb/v7e-m+fp/hard\libc_nano.a(lib_a-exit.o)
 .data          0x00000000        0x0 c:/arm_gcc/bin/../lib/gcc/arm-none-eabi/9.2.1/../../../../arm-none-eabi/lib/thumb/v7e-m+fp/hard\libc_nano.a(lib_a-exit.o)
 .bss           0x00000000        0x0 c:/arm_gcc/bin/../lib/gcc/arm-none-eabi/9.2.1/../../../../arm-none-eabi/lib/thumb/v7e-m+fp/hard\libc_nano.a(lib_a-exit.o)
 .text.exit     0x00000000       0x28 c:/arm_gcc/bin/../lib/gcc/arm-none-eabi/9.2.1/../../../../arm-none-eabi/lib/thumb/v7e-m+fp/hard\libc_nano.a(lib_a-exit.o)
 .debug_frame   0x00000000       0x28 c:/arm_gcc/bin/../lib/gcc/arm-none-eabi/9.2.1/../../../../arm-none-eabi/lib/thumb/v7e-m+fp/hard\libc_nano.a(lib_a-exit.o)
 .ARM.attributes
                0x00000000       0x34 c:/arm_gcc/bin/../lib/gcc/arm-none-eabi/9.2.1/../../../../arm-none-eabi/lib/thumb/v7e-m+fp/hard\libc_nano.a(lib_a-exit.o)
 .text          0x00000000        0x0 c:/arm_gcc/bin/../lib/gcc/arm-none-eabi/9.2.1/../../../../arm-none-eabi/lib/thumb/v7e-m+fp/hard\libc_nano.a(lib_a-impure.o)
 .data          0x00000000        0x0 c:/arm_gcc/bin/../lib/gcc/arm-none-eabi/9.2.1/../../../../arm-none-eabi/lib/thumb/v7e-m+fp/hard\libc_nano.a(lib_a-impure.o)
 .bss           0x00000000        0x0 c:/arm_gcc/bin/../lib/gcc/arm-none-eabi/9.2.1/../../../../arm-none-eabi/lib/thumb/v7e-m+fp/hard\libc_nano.a(lib_a-impure.o)
 .rodata._global_impure_ptr
                0x00000000        0x4 c:/arm_gcc/bin/../lib/gcc/arm-none-eabi/9.2.1/../../../../arm-none-eabi/lib/thumb/v7e-m+fp/hard\libc_nano.a(lib_a-impure.o)
 .text          0x00000000        0x0 c:/arm_gcc/bin/../lib/gcc/arm-none-eabi/9.2.1/../../../../arm-none-eabi/lib/thumb/v7e-m+fp/hard\libc_nano.a(lib_a-init.o)
 .data          0x00000000        0x0 c:/arm_gcc/bin/../lib/gcc/arm-none-eabi/9.2.1/../../../../arm-none-eabi/lib/thumb/v7e-m+fp/hard\libc_nano.a(lib_a-init.o)
 .bss           0x00000000        0x0 c:/arm_gcc/bin/../lib/gcc/arm-none-eabi/9.2.1/../../../../arm-none-eabi/lib/thumb/v7e-m+fp/hard\libc_nano.a(lib_a-init.o)
 .text          0x00000000        0x0 c:/arm_gcc/bin/../lib/gcc/arm-none-eabi/9.2.1/../../../../arm-none-eabi/lib/thumb/v7e-m+fp/hard\libc_nano.a(lib_a-malloc.o)
 .data          0x00000000        0x0 c:/arm_gcc/bin/../lib/gcc/arm-none-eabi/9.2.1/../../../../arm-none-eabi/lib/thumb/v7e-m+fp/hard\libc_nano.a(lib_a-malloc.o)
 .bss           0x00000000        0x0 c:/arm_gcc/bin/../lib/gcc/arm-none-eabi/9.2.1/../../../../arm-none-eabi/lib/thumb/v7e-m+fp/hard\libc_nano.a(lib_a-malloc.o)
 .text          0x00000000        0x0 c:/arm_gcc/bin/../lib/gcc/arm-none-eabi/9.2.1/../../../../arm-none-eabi/lib/thumb/v7e-m+fp/hard\libc_nano.a(lib_a-memcpy-stub.o)
 .data          0x00000000        0x0 c:/arm_gcc/bin/../lib/gcc/arm-none-eabi/9.2.1/../../../../arm-none-eabi/lib/thumb/v7e-m+fp/hard\libc_nano.a(lib_a-memcpy-stub.o)
 .bss           0x00000000        0x0 c:/arm_gcc/bin/../lib/gcc/arm-none-eabi/9.2.1/../../../../arm-none-eabi/lib/thumb/v7e-m+fp/hard\libc_nano.a(lib_a-memcpy-stub.o)
 .text          0x00000000        0x0 c:/arm_gcc/bin/../lib/gcc/arm-none-eabi/9.2.1/../../../../arm-none-eabi/lib/thumb/v7e-m+fp/hard\libc_nano.a(lib_a-memset.o)
 .data          0x00000000        0x0 c:/arm_gcc/bin/../lib/gcc/arm-none-eabi/9.2.1/../../../../arm-none-eabi/lib/thumb/v7e-m+fp/hard\libc_nano.a(lib_a-memset.o)
 .bss           0x00000000        0x0 c:/arm_gcc/bin/../lib/gcc/arm-none-eabi/9.2.1/../../../../arm-none-eabi/lib/thumb/v7e-m+fp/hard\libc_nano.a(lib_a-memset.o)
 .text          0x00000000        0x0 c:/arm_gcc/bin/../lib/gcc/arm-none-eabi/9.2.1/../../../../arm-none-eabi/lib/thumb/v7e-m+fp/hard\libc_nano.a(lib_a-nano-freer.o)
 .data          0x00000000        0x0 c:/arm_gcc/bin/../lib/gcc/arm-none-eabi/9.2.1/../../../../arm-none-eabi/lib/thumb/v7e-m+fp/hard\libc_nano.a(lib_a-nano-freer.o)
 .bss           0x00000000        0x0 c:/arm_gcc/bin/../lib/gcc/arm-none-eabi/9.2.1/../../../../arm-none-eabi/lib/thumb/v7e-m+fp/hard\libc_nano.a(lib_a-nano-freer.o)
 .text          0x00000000        0x0 c:/arm_gcc/bin/../lib/gcc/arm-none-eabi/9.2.1/../../../../arm-none-eabi/lib/thumb/v7e-m+fp/hard\libc_nano.a(lib_a-nano-mallocr.o)
 .data          0x00000000        0x0 c:/arm_gcc/bin/../lib/gcc/arm-none-eabi/9.2.1/../../../../arm-none-eabi/lib/thumb/v7e-m+fp/hard\libc_nano.a(lib_a-nano-mallocr.o)
 .bss           0x00000000        0x0 c:/arm_gcc/bin/../lib/gcc/arm-none-eabi/9.2.1/../../../../arm-none-eabi/lib/thumb/v7e-m+fp/hard\libc_nano.a(lib_a-nano-mallocr.o)
 .text          0x00000000        0x0 c:/arm_gcc/bin/../lib/gcc/arm-none-eabi/9.2.1/../../../../arm-none-eabi/lib/thumb/v7e-m+fp/hard\libc_nano.a(lib_a-nano-vfprintf_float.o)
 .data          0x00000000        0x0 c:/arm_gcc/bin/../lib/gcc/arm-none-eabi/9.2.1/../../../../arm-none-eabi/lib/thumb/v7e-m+fp/hard\libc_nano.a(lib_a-nano-vfprintf_float.o)
 .bss           0x00000000        0x0 c:/arm_gcc/bin/../lib/gcc/arm-none-eabi/9.2.1/../../../../arm-none-eabi/lib/thumb/v7e-m+fp/hard\libc_nano.a(lib_a-nano-vfprintf_float.o)
 .text          0x00000000        0x0 c:/arm_gcc/bin/../lib/gcc/arm-none-eabi/9.2.1/../../../../arm-none-eabi/lib/thumb/v7e-m+fp/hard\libc_nano.a(lib_a-nano-vfprintf_i.o)
 .data          0x00000000        0x0 c:/arm_gcc/bin/../lib/gcc/arm-none-eabi/9.2.1/../../../../arm-none-eabi/lib/thumb/v7e-m+fp/hard\libc_nano.a(lib_a-nano-vfprintf_i.o)
 .bss           0x00000000        0x0 c:/arm_gcc/bin/../lib/gcc/arm-none-eabi/9.2.1/../../../../arm-none-eabi/lib/thumb/v7e-m+fp/hard\libc_nano.a(lib_a-nano-vfprintf_i.o)
 .text          0x00000000        0x0 c:/arm_gcc/bin/../lib/gcc/arm-none-eabi/9.2.1/../../../../arm-none-eabi/lib/thumb/v7e-m+fp/hard\libc_nano.a(lib_a-sbrkr.o)
 .data          0x00000000        0x0 c:/arm_gcc/bin/../lib/gcc/arm-none-eabi/9.2.1/../../../../arm-none-eabi/lib/thumb/v7e-m+fp/hard\libc_nano.a(lib_a-sbrkr.o)
 .bss           0x00000000        0x0 c:/arm_gcc/bin/../lib/gcc/arm-none-eabi/9.2.1/../../../../arm-none-eabi/lib/thumb/v7e-m+fp/hard\libc_nano.a(lib_a-sbrkr.o)
 .data          0x00000000        0x0 c:/arm_gcc/bin/../lib/gcc/arm-none-eabi/9.2.1/../../../../arm-none-eabi/lib/thumb/v7e-m+fp/hard\libc_nano.a(lib_a-strlen.o)
 .bss           0x00000000        0x0 c:/arm_gcc/bin/../lib/gcc/arm-none-eabi/9.2.1/../../../../arm-none-eabi/lib/thumb/v7e-m+fp/hard\libc_nano.a(lib_a-strlen.o)
 .text          0x00000000        0x0 c:/arm_gcc/bin/../lib/gcc/arm-none-eabi/9.2.1/../../../../arm-none-eabi/lib/thumb/v7e-m+fp/hard\libc_nano.a(lib_a-strtod.o)
 .data          0x00000000        0x0 c:/arm_gcc/bin/../lib/gcc/arm-none-eabi/9.2.1/../../../../arm-none-eabi/lib/thumb/v7e-m+fp/hard\libc_nano.a(lib_a-strtod.o)
 .bss           0x00000000        0x0 c:/arm_gcc/bin/../lib/gcc/arm-none-eabi/9.2.1/../../../../arm-none-eabi/lib/thumb/v7e-m+fp/hard\libc_nano.a(lib_a-strtod.o)
 .text._strtod_r
                0x00000000        0xc c:/arm_gcc/bin/../lib/gcc/arm-none-eabi/9.2.1/../../../../arm-none-eabi/lib/thumb/v7e-m+fp/hard\libc_nano.a(lib_a-strtod.o)
 .text.strtod_l
                0x00000000       0x14 c:/arm_gcc/bin/../lib/gcc/arm-none-eabi/9.2.1/../../../../arm-none-eabi/lib/thumb/v7e-m+fp/hard\libc_nano.a(lib_a-strtod.o)
 .text.strtof_l
                0x00000000       0xb0 c:/arm_gcc/bin/../lib/gcc/arm-none-eabi/9.2.1/../../../../arm-none-eabi/lib/thumb/v7e-m+fp/hard\libc_nano.a(lib_a-strtod.o)
 .text.strtof   0x00000000       0xb4 c:/arm_gcc/bin/../lib/gcc/arm-none-eabi/9.2.1/../../../../arm-none-eabi/lib/thumb/v7e-m+fp/hard\libc_nano.a(lib_a-strtod.o)
 .text          0x00000000        0x0 c:/arm_gcc/bin/../lib/gcc/arm-none-eabi/9.2.1/../../../../arm-none-eabi/lib/thumb/v7e-m+fp/hard\libc_nano.a(lib_a-vsnprintf.o)
 .data          0x00000000        0x0 c:/arm_gcc/bin/../lib/gcc/arm-none-eabi/9.2.1/../../../../arm-none-eabi/lib/thumb/v7e-m+fp/hard\libc_nano.a(lib_a-vsnprintf.o)
 .bss           0x00000000        0x0 c:/arm_gcc/bin/../lib/gcc/arm-none-eabi/9.2.1/../../../../arm-none-eabi/lib/thumb/v7e-m+fp/hard\libc_nano.a(lib_a-vsnprintf.o)
 .text          0x00000000        0x0 c:/arm_gcc/bin/../lib/gcc/arm-none-eabi/9.2.1/../../../../arm-none-eabi/lib/thumb/v7e-m+fp/hard\libc_nano.a(lib_a-dtoa.o)
 .data          0x00000000        0x0 c:/arm_gcc/bin/../lib/gcc/arm-none-eabi/9.2.1/../../../../arm-none-eabi/lib/thumb/v7e-m+fp/hard\libc_nano.a(lib_a-dtoa.o)
 .bss           0x00000000        0x0 c:/arm_gcc/bin/../lib/gcc/arm-none-eabi/9.2.1/../../../../arm-none-eabi/lib/thumb/v7e-m+fp/hard\libc_nano.a(lib_a-dtoa.o)
 .text          0x00000000        0x0 c:/arm_gcc/bin/../lib/gcc/arm-none-eabi/9.2.1/../../../../arm-none-eabi/lib/thumb/v7e-m+fp/hard\libc_nano.a(lib_a-gdtoa-gethex.o)
 .data          0x00000000        0x0 c:/arm_gcc/bin/../lib/gcc/arm-none-eabi/9.2.1/../../../../arm-none-eabi/lib/thumb/v7e-m+fp/hard\libc_nano.a(lib_a-gdtoa-gethex.o)
 .bss           0x00000000        0x0 c:/arm_gcc/bin/../lib/gcc/arm-none-eabi/9.2.1/../../../../arm-none-eabi/lib/thumb/v7e-m+fp/hard\libc_nano.a(lib_a-gdtoa-gethex.o)
 .text          0x00000000        0x0 c:/arm_gcc/bin/../lib/gcc/arm-none-eabi/9.2.1/../../../../arm-none-eabi/lib/thumb/v7e-m+fp/hard\libc_nano.a(lib_a-gdtoa-hexnan.o)
 .data          0x00000000        0x0 c:/arm_gcc/bin/../lib/gcc/arm-none-eabi/9.2.1/../../../../arm-none-eabi/lib/thumb/v7e-m+fp/hard\libc_nano.a(lib_a-gdtoa-hexnan.o)
 .bss           0x00000000        0x0 c:/arm_gcc/bin/../lib/gcc/arm-none-eabi/9.2.1/../../../../arm-none-eabi/lib/thumb/v7e-m+fp/hard\libc_nano.a(lib_a-gdtoa-hexnan.o)
 .text          0x00000000        0x0 c:/arm_gcc/bin/../lib/gcc/arm-none-eabi/9.2.1/../../../../arm-none-eabi/lib/thumb/v7e-m+fp/hard\libc_nano.a(lib_a-lnumeric.o)
 .data          0x00000000        0x0 c:/arm_gcc/bin/../lib/gcc/arm-none-eabi/9.2.1/../../../../arm-none-eabi/lib/thumb/v7e-m+fp/hard\libc_nano.a(lib_a-lnumeric.o)
 .bss           0x00000000        0x0 c:/arm_gcc/bin/../lib/gcc/arm-none-eabi/9.2.1/../../../../arm-none-eabi/lib/thumb/v7e-m+fp/hard\libc_nano.a(lib_a-lnumeric.o)
 .text.__numeric_load_locale
                0x00000000        0x4 c:/arm_gcc/bin/../lib/gcc/arm-none-eabi/9.2.1/../../../../arm-none-eabi/lib/thumb/v7e-m+fp/hard\libc_nano.a(lib_a-lnumeric.o)
 .text          0x00000000        0x0 c:/arm_gcc/bin/../lib/gcc/arm-none-eabi/9.2.1/../../../../arm-none-eabi/lib/thumb/v7e-m+fp/hard\libc_nano.a(lib_a-locale.o)
 .data          0x00000000        0x0 c:/arm_gcc/bin/../lib/gcc/arm-none-eabi/9.2.1/../../../../arm-none-eabi/lib/thumb/v7e-m+fp/hard\libc_nano.a(lib_a-locale.o)
 .bss           0x00000000        0x0 c:/arm_gcc/bin/../lib/gcc/arm-none-eabi/9.2.1/../../../../arm-none-eabi/lib/thumb/v7e-m+fp/hard\libc_nano.a(lib_a-locale.o)
 .text._setlocale_r
                0x00000000       0x40 c:/arm_gcc/bin/../lib/gcc/arm-none-eabi/9.2.1/../../../../arm-none-eabi/lib/thumb/v7e-m+fp/hard\libc_nano.a(lib_a-locale.o)
 .text.__locale_mb_cur_max
                0x00000000        0xc c:/arm_gcc/bin/../lib/gcc/arm-none-eabi/9.2.1/../../../../arm-none-eabi/lib/thumb/v7e-m+fp/hard\libc_nano.a(lib_a-locale.o)
 .text.setlocale
                0x00000000       0x10 c:/arm_gcc/bin/../lib/gcc/arm-none-eabi/9.2.1/../../../../arm-none-eabi/lib/thumb/v7e-m+fp/hard\libc_nano.a(lib_a-locale.o)
 .bss._PathLocale
                0x00000000        0x4 c:/arm_gcc/bin/../lib/gcc/arm-none-eabi/9.2.1/../../../../arm-none-eabi/lib/thumb/v7e-m+fp/hard\libc_nano.a(lib_a-locale.o)
 .text          0x00000000        0x0 c:/arm_gcc/bin/../lib/gcc/arm-none-eabi/9.2.1/../../../../arm-none-eabi/lib/thumb/v7e-m+fp/hard\libc_nano.a(lib_a-localeconv.o)
 .data          0x00000000        0x0 c:/arm_gcc/bin/../lib/gcc/arm-none-eabi/9.2.1/../../../../arm-none-eabi/lib/thumb/v7e-m+fp/hard\libc_nano.a(lib_a-localeconv.o)
 .bss           0x00000000        0x0 c:/arm_gcc/bin/../lib/gcc/arm-none-eabi/9.2.1/../../../../arm-none-eabi/lib/thumb/v7e-m+fp/hard\libc_nano.a(lib_a-localeconv.o)
 .text.__localeconv_l
                0x00000000        0x4 c:/arm_gcc/bin/../lib/gcc/arm-none-eabi/9.2.1/../../../../arm-none-eabi/lib/thumb/v7e-m+fp/hard\libc_nano.a(lib_a-localeconv.o)
 .text.localeconv
                0x00000000        0x8 c:/arm_gcc/bin/../lib/gcc/arm-none-eabi/9.2.1/../../../../arm-none-eabi/lib/thumb/v7e-m+fp/hard\libc_nano.a(lib_a-localeconv.o)
 .text          0x00000000        0x0 c:/arm_gcc/bin/../lib/gcc/arm-none-eabi/9.2.1/../../../../arm-none-eabi/lib/thumb/v7e-m+fp/hard\libc_nano.a(lib_a-mbtowc_r.o)
 .data          0x00000000        0x0 c:/arm_gcc/bin/../lib/gcc/arm-none-eabi/9.2.1/../../../../arm-none-eabi/lib/thumb/v7e-m+fp/hard\libc_nano.a(lib_a-mbtowc_r.o)
 .bss           0x00000000        0x0 c:/arm_gcc/bin/../lib/gcc/arm-none-eabi/9.2.1/../../../../arm-none-eabi/lib/thumb/v7e-m+fp/hard\libc_nano.a(lib_a-mbtowc_r.o)
 .text._mbtowc_r
                0x00000000       0x14 c:/arm_gcc/bin/../lib/gcc/arm-none-eabi/9.2.1/../../../../arm-none-eabi/lib/thumb/v7e-m+fp/hard\libc_nano.a(lib_a-mbtowc_r.o)
 .data          0x00000000        0x0 c:/arm_gcc/bin/../lib/gcc/arm-none-eabi/9.2.1/../../../../arm-none-eabi/lib/thumb/v7e-m+fp/hard\libc_nano.a(lib_a-memchr.o)
 .bss           0x00000000        0x0 c:/arm_gcc/bin/../lib/gcc/arm-none-eabi/9.2.1/../../../../arm-none-eabi/lib/thumb/v7e-m+fp/hard\libc_nano.a(lib_a-memchr.o)
 .text          0x00000000        0x0 c:/arm_gcc/bin/../lib/gcc/arm-none-eabi/9.2.1/../../../../arm-none-eabi/lib/thumb/v7e-m+fp/hard\libc_nano.a(lib_a-mlock.o)
 .data          0x00000000        0x0 c:/arm_gcc/bin/../lib/gcc/arm-none-eabi/9.2.1/../../../../arm-none-eabi/lib/thumb/v7e-m+fp/hard\libc_nano.a(lib_a-mlock.o)
 .bss           0x00000000        0x0 c:/arm_gcc/bin/../lib/gcc/arm-none-eabi/9.2.1/../../../../arm-none-eabi/lib/thumb/v7e-m+fp/hard\libc_nano.a(lib_a-mlock.o)
 .text          0x00000000        0x0 c:/arm_gcc/bin/../lib/gcc/arm-none-eabi/9.2.1/../../../../arm-none-eabi/lib/thumb/v7e-m+fp/hard\libc_nano.a(lib_a-mprec.o)
 .data          0x00000000        0x0 c:/arm_gcc/bin/../lib/gcc/arm-none-eabi/9.2.1/../../../../arm-none-eabi/lib/thumb/v7e-m+fp/hard\libc_nano.a(lib_a-mprec.o)
 .bss           0x00000000        0x0 c:/arm_gcc/bin/../lib/gcc/arm-none-eabi/9.2.1/../../../../arm-none-eabi/lib/thumb/v7e-m+fp/hard\libc_nano.a(lib_a-mprec.o)
 .text._mprec_log10
                0x00000000       0x3c c:/arm_gcc/bin/../lib/gcc/arm-none-eabi/9.2.1/../../../../arm-none-eabi/lib/thumb/v7e-m+fp/hard\libc_nano.a(lib_a-mprec.o)
 .rodata.__mprec_tinytens
                0x00000000       0x28 c:/arm_gcc/bin/../lib/gcc/arm-none-eabi/9.2.1/../../../../arm-none-eabi/lib/thumb/v7e-m+fp/hard\libc_nano.a(lib_a-mprec.o)
 .text          0x00000000        0x0 c:/arm_gcc/bin/../lib/gcc/arm-none-eabi/9.2.1/../../../../arm-none-eabi/lib/thumb/v7e-m+fp/hard\libc_nano.a(lib_a-nano-callocr.o)
 .data          0x00000000        0x0 c:/arm_gcc/bin/../lib/gcc/arm-none-eabi/9.2.1/../../../../arm-none-eabi/lib/thumb/v7e-m+fp/hard\libc_nano.a(lib_a-nano-callocr.o)
 .bss           0x00000000        0x0 c:/arm_gcc/bin/../lib/gcc/arm-none-eabi/9.2.1/../../../../arm-none-eabi/lib/thumb/v7e-m+fp/hard\libc_nano.a(lib_a-nano-callocr.o)
 .text          0x00000000        0x0 c:/arm_gcc/bin/../lib/gcc/arm-none-eabi/9.2.1/../../../../arm-none-eabi/lib/thumb/v7e-m+fp/hard\libc_nano.a(lib_a-nano-svfprintf.o)
 .data          0x00000000        0x0 c:/arm_gcc/bin/../lib/gcc/arm-none-eabi/9.2.1/../../../../arm-none-eabi/lib/thumb/v7e-m+fp/hard\libc_nano.a(lib_a-nano-svfprintf.o)
 .bss           0x00000000        0x0 c:/arm_gcc/bin/../lib/gcc/arm-none-eabi/9.2.1/../../../../arm-none-eabi/lib/thumb/v7e-m+fp/hard\libc_nano.a(lib_a-nano-svfprintf.o)
 .text.__ssprint_r
                0x00000000       0xf6 c:/arm_gcc/bin/../lib/gcc/arm-none-eabi/9.2.1/../../../../arm-none-eabi/lib/thumb/v7e-m+fp/hard\libc_nano.a(lib_a-nano-svfprintf.o)
 .text          0x00000000        0x0 c:/arm_gcc/bin/../lib/gcc/arm-none-eabi/9.2.1/../../../../arm-none-eabi/lib/thumb/v7e-m+fp/hard\libc_nano.a(lib_a-reent.o)
 .data          0x00000000        0x0 c:/arm_gcc/bin/../lib/gcc/arm-none-eabi/9.2.1/../../../../arm-none-eabi/lib/thumb/v7e-m+fp/hard\libc_nano.a(lib_a-reent.o)
 .bss           0x00000000        0x0 c:/arm_gcc/bin/../lib/gcc/arm-none-eabi/9.2.1/../../../../arm-none-eabi/lib/thumb/v7e-m+fp/hard\libc_nano.a(lib_a-reent.o)
 .text.cleanup_glue
                0x00000000       0x1a c:/arm_gcc/bin/../lib/gcc/arm-none-eabi/9.2.1/../../../../arm-none-eabi/lib/thumb/v7e-m+fp/hard\libc_nano.a(lib_a-reent.o)
 .text._reclaim_reent
                0x00000000       0xb8 c:/arm_gcc/bin/../lib/gcc/arm-none-eabi/9.2.1/../../../../arm-none-eabi/lib/thumb/v7e-m+fp/hard\libc_nano.a(lib_a-reent.o)
 .text          0x00000000        0x0 c:/arm_gcc/bin/../lib/gcc/arm-none-eabi/9.2.1/../../../../arm-none-eabi/lib/thumb/v7e-m+fp/hard\libc_nano.a(lib_a-s_nan.o)
 .data          0x00000000        0x0 c:/arm_gcc/bin/../lib/gcc/arm-none-eabi/9.2.1/../../../../arm-none-eabi/lib/thumb/v7e-m+fp/hard\libc_nano.a(lib_a-s_nan.o)
 .bss           0x00000000        0x0 c:/arm_gcc/bin/../lib/gcc/arm-none-eabi/9.2.1/../../../../arm-none-eabi/lib/thumb/v7e-m+fp/hard\libc_nano.a(lib_a-s_nan.o)
 .text          0x00000000        0x0 c:/arm_gcc/bin/../lib/gcc/arm-none-eabi/9.2.1/../../../../arm-none-eabi/lib/thumb/v7e-m+fp/hard\libc_nano.a(lib_a-sf_nan.o)
 .data          0x00000000        0x0 c:/arm_gcc/bin/../lib/gcc/arm-none-eabi/9.2.1/../../../../arm-none-eabi/lib/thumb/v7e-m+fp/hard\libc_nano.a(lib_a-sf_nan.o)
 .bss           0x00000000        0x0 c:/arm_gcc/bin/../lib/gcc/arm-none-eabi/9.2.1/../../../../arm-none-eabi/lib/thumb/v7e-m+fp/hard\libc_nano.a(lib_a-sf_nan.o)
 .text.nanf     0x00000000        0xc c:/arm_gcc/bin/../lib/gcc/arm-none-eabi/9.2.1/../../../../arm-none-eabi/lib/thumb/v7e-m+fp/hard\libc_nano.a(lib_a-sf_nan.o)
 .debug_frame   0x00000000       0x20 c:/arm_gcc/bin/../lib/gcc/arm-none-eabi/9.2.1/../../../../arm-none-eabi/lib/thumb/v7e-m+fp/hard\libc_nano.a(lib_a-sf_nan.o)
 .ARM.attributes
                0x00000000       0x34 c:/arm_gcc/bin/../lib/gcc/arm-none-eabi/9.2.1/../../../../arm-none-eabi/lib/thumb/v7e-m+fp/hard\libc_nano.a(lib_a-sf_nan.o)
 .text          0x00000000       0x14 c:/arm_gcc/bin/../lib/gcc/arm-none-eabi/9.2.1/../../../../arm-none-eabi/lib/thumb/v7e-m+fp/hard\libc_nano.a(lib_a-strcmp.o)
 .data          0x00000000        0x0 c:/arm_gcc/bin/../lib/gcc/arm-none-eabi/9.2.1/../../../../arm-none-eabi/lib/thumb/v7e-m+fp/hard\libc_nano.a(lib_a-strcmp.o)
 .bss           0x00000000        0x0 c:/arm_gcc/bin/../lib/gcc/arm-none-eabi/9.2.1/../../../../arm-none-eabi/lib/thumb/v7e-m+fp/hard\libc_nano.a(lib_a-strcmp.o)
 .debug_frame   0x00000000       0x20 c:/arm_gcc/bin/../lib/gcc/arm-none-eabi/9.2.1/../../../../arm-none-eabi/lib/thumb/v7e-m+fp/hard\libc_nano.a(lib_a-strcmp.o)
 .ARM.attributes
                0x00000000       0x1c c:/arm_gcc/bin/../lib/gcc/arm-none-eabi/9.2.1/../../../../arm-none-eabi/lib/thumb/v7e-m+fp/hard\libc_nano.a(lib_a-strcmp.o)
 .text          0x00000000        0x0 c:/arm_gcc/bin/../lib/gcc/arm-none-eabi/9.2.1/../../../../arm-none-eabi/lib/thumb/v7e-m+fp/hard\libc_nano.a(lib_a-strncmp.o)
 .data          0x00000000        0x0 c:/arm_gcc/bin/../lib/gcc/arm-none-eabi/9.2.1/../../../../arm-none-eabi/lib/thumb/v7e-m+fp/hard\libc_nano.a(lib_a-strncmp.o)
 .bss           0x00000000        0x0 c:/arm_gcc/bin/../lib/gcc/arm-none-eabi/9.2.1/../../../../arm-none-eabi/lib/thumb/v7e-m+fp/hard\libc_nano.a(lib_a-strncmp.o)
 .text          0x00000000        0x0 c:/arm_gcc/bin/../lib/gcc/arm-none-eabi/9.2.1/../../../../arm-none-eabi/lib/thumb/v7e-m+fp/hard\libc_nano.a(lib_a-wctomb_r.o)
 .data          0x00000000        0x0 c:/arm_gcc/bin/../lib/gcc/arm-none-eabi/9.2.1/../../../../arm-none-eabi/lib/thumb/v7e-m+fp/hard\libc_nano.a(lib_a-wctomb_r.o)
 .bss           0x00000000        0x0 c:/arm_gcc/bin/../lib/gcc/arm-none-eabi/9.2.1/../../../../arm-none-eabi/lib/thumb/v7e-m+fp/hard\libc_nano.a(lib_a-wctomb_r.o)
 .text._wctomb_r
                0x00000000       0x14 c:/arm_gcc/bin/../lib/gcc/arm-none-eabi/9.2.1/../../../../arm-none-eabi/lib/thumb/v7e-m+fp/hard\libc_nano.a(lib_a-wctomb_r.o)
 .text          0x00000000        0x0 c:/arm_gcc/bin/../lib/gcc/arm-none-eabi/9.2.1/../../../../arm-none-eabi/lib/thumb/v7e-m+fp/hard\libc_nano.a(lib_a-lock.o)
 .data          0x00000000        0x0 c:/arm_gcc/bin/../lib/gcc/arm-none-eabi/9.2.1/../../../../arm-none-eabi/lib/thumb/v7e-m+fp/hard\libc_nano.a(lib_a-lock.o)
 .bss           0x00000000        0x0 c:/arm_gcc/bin/../lib/gcc/arm-none-eabi/9.2.1/../../../../arm-none-eabi/lib/thumb/v7e-m+fp/hard\libc_nano.a(lib_a-lock.o)
 .text.__retarget_lock_init
                0x00000000        0x2 c:/arm_gcc/bin/../lib/gcc/arm-none-eabi/9.2.1/../../../../arm-none-eabi/lib/thumb/v7e-m+fp/hard\libc_nano.a(lib_a-lock.o)
 .text.__retarget_lock_init_recursive
                0x00000000        0x2 c:/arm_gcc/bin/../lib/gcc/arm-none-eabi/9.2.1/../../../../arm-none-eabi/lib/thumb/v7e-m+fp/hard\libc_nano.a(lib_a-lock.o)
 .text.__retarget_lock_close
                0x00000000        0x2 c:/arm_gcc/bin/../lib/gcc/arm-none-eabi/9.2.1/../../../../arm-none-eabi/lib/thumb/v7e-m+fp/hard\libc_nano.a(lib_a-lock.o)
 .text.__retarget_lock_close_recursive
                0x00000000        0x2 c:/arm_gcc/bin/../lib/gcc/arm-none-eabi/9.2.1/../../../../arm-none-eabi/lib/thumb/v7e-m+fp/hard\libc_nano.a(lib_a-lock.o)
 .text.__retarget_lock_acquire
                0x00000000        0x2 c:/arm_gcc/bin/../lib/gcc/arm-none-eabi/9.2.1/../../../../arm-none-eabi/lib/thumb/v7e-m+fp/hard\libc_nano.a(lib_a-lock.o)
 .text.__retarget_lock_try_acquire
                0x00000000        0x4 c:/arm_gcc/bin/../lib/gcc/arm-none-eabi/9.2.1/../../../../arm-none-eabi/lib/thumb/v7e-m+fp/hard\libc_nano.a(lib_a-lock.o)
 .text.__retarget_lock_try_acquire_recursive
                0x00000000        0x4 c:/arm_gcc/bin/../lib/gcc/arm-none-eabi/9.2.1/../../../../arm-none-eabi/lib/thumb/v7e-m+fp/hard\libc_nano.a(lib_a-lock.o)
 .text.__retarget_lock_release
                0x00000000        0x2 c:/arm_gcc/bin/../lib/gcc/arm-none-eabi/9.2.1/../../../../arm-none-eabi/lib/thumb/v7e-m+fp/hard\libc_nano.a(lib_a-lock.o)
 .text          0x00000000        0x0 c:/arm_gcc/bin/../lib/gcc/arm-none-eabi/9.2.1/../../../../arm-none-eabi/lib/thumb/v7e-m+fp/hard\libc_nano.a(lib_a-memmove.o)
 .data          0x00000000        0x0 c:/arm_gcc/bin/../lib/gcc/arm-none-eabi/9.2.1/../../../../arm-none-eabi/lib/thumb/v7e-m+fp/hard\libc_nano.a(lib_a-memmove.o)
 .bss           0x00000000        0x0 c:/arm_gcc/bin/../lib/gcc/arm-none-eabi/9.2.1/../../../../arm-none-eabi/lib/thumb/v7e-m+fp/hard\libc_nano.a(lib_a-memmove.o)
 .text          0x00000000        0x0 c:/arm_gcc/bin/../lib/gcc/arm-none-eabi/9.2.1/../../../../arm-none-eabi/lib/thumb/v7e-m+fp/hard\libc_nano.a(lib_a-nano-reallocr.o)
 .data          0x00000000        0x0 c:/arm_gcc/bin/../lib/gcc/arm-none-eabi/9.2.1/../../../../arm-none-eabi/lib/thumb/v7e-m+fp/hard\libc_nano.a(lib_a-nano-reallocr.o)
 .bss           0x00000000        0x0 c:/arm_gcc/bin/../lib/gcc/arm-none-eabi/9.2.1/../../../../arm-none-eabi/lib/thumb/v7e-m+fp/hard\libc_nano.a(lib_a-nano-reallocr.o)
 .text          0x00000000        0x0 c:/arm_gcc/bin/../lib/gcc/arm-none-eabi/9.2.1/../../../../arm-none-eabi/lib/thumb/v7e-m+fp/hard\libc_nano.a(lib_a-nano-msizer.o)
 .data          0x00000000        0x0 c:/arm_gcc/bin/../lib/gcc/arm-none-eabi/9.2.1/../../../../arm-none-eabi/lib/thumb/v7e-m+fp/hard\libc_nano.a(lib_a-nano-msizer.o)
 .bss           0x00000000        0x0 c:/arm_gcc/bin/../lib/gcc/arm-none-eabi/9.2.1/../../../../arm-none-eabi/lib/thumb/v7e-m+fp/hard\libc_nano.a(lib_a-nano-msizer.o)
 .text          0x00000000        0x0 c:/arm_gcc/bin/../lib/gcc/arm-none-eabi/9.2.1/../../../../arm-none-eabi/lib/thumb/v7e-m+fp/hard\libm.a(lib_a-wf_acos.o)
 .data          0x00000000        0x0 c:/arm_gcc/bin/../lib/gcc/arm-none-eabi/9.2.1/../../../../arm-none-eabi/lib/thumb/v7e-m+fp/hard\libm.a(lib_a-wf_acos.o)
 .bss           0x00000000        0x0 c:/arm_gcc/bin/../lib/gcc/arm-none-eabi/9.2.1/../../../../arm-none-eabi/lib/thumb/v7e-m+fp/hard\libm.a(lib_a-wf_acos.o)
 .rodata.acosf.str1.4
                0x00000000        0x9 c:/arm_gcc/bin/../lib/gcc/arm-none-eabi/9.2.1/../../../../arm-none-eabi/lib/thumb/v7e-m+fp/hard\libm.a(lib_a-wf_acos.o)
 .text.acosf    0x00000000       0xc0 c:/arm_gcc/bin/../lib/gcc/arm-none-eabi/9.2.1/../../../../arm-none-eabi/lib/thumb/v7e-m+fp/hard\libm.a(lib_a-wf_acos.o)
 .debug_frame   0x00000000       0x50 c:/arm_gcc/bin/../lib/gcc/arm-none-eabi/9.2.1/../../../../arm-none-eabi/lib/thumb/v7e-m+fp/hard\libm.a(lib_a-wf_acos.o)
 .ARM.attributes
                0x00000000       0x34 c:/arm_gcc/bin/../lib/gcc/arm-none-eabi/9.2.1/../../../../arm-none-eabi/lib/thumb/v7e-m+fp/hard\libm.a(lib_a-wf_acos.o)
 .text          0x00000000        0x0 c:/arm_gcc/bin/../lib/gcc/arm-none-eabi/9.2.1/../../../../arm-none-eabi/lib/thumb/v7e-m+fp/hard\libm.a(lib_a-wf_atan2.o)
 .data          0x00000000        0x0 c:/arm_gcc/bin/../lib/gcc/arm-none-eabi/9.2.1/../../../../arm-none-eabi/lib/thumb/v7e-m+fp/hard\libm.a(lib_a-wf_atan2.o)
 .bss           0x00000000        0x0 c:/arm_gcc/bin/../lib/gcc/arm-none-eabi/9.2.1/../../../../arm-none-eabi/lib/thumb/v7e-m+fp/hard\libm.a(lib_a-wf_atan2.o)
 .text          0x00000000        0x0 c:/arm_gcc/bin/../lib/gcc/arm-none-eabi/9.2.1/../../../../arm-none-eabi/lib/thumb/v7e-m+fp/hard\libm.a(lib_a-wf_sqrt.o)
 .data          0x00000000        0x0 c:/arm_gcc/bin/../lib/gcc/arm-none-eabi/9.2.1/../../../../arm-none-eabi/lib/thumb/v7e-m+fp/hard\libm.a(lib_a-wf_sqrt.o)
 .bss           0x00000000        0x0 c:/arm_gcc/bin/../lib/gcc/arm-none-eabi/9.2.1/../../../../arm-none-eabi/lib/thumb/v7e-m+fp/hard\libm.a(lib_a-wf_sqrt.o)
 .text          0x00000000        0x0 c:/arm_gcc/bin/../lib/gcc/arm-none-eabi/9.2.1/../../../../arm-none-eabi/lib/thumb/v7e-m+fp/hard\libm.a(lib_a-ef_acos.o)
 .data          0x00000000        0x0 c:/arm_gcc/bin/../lib/gcc/arm-none-eabi/9.2.1/../../../../arm-none-eabi/lib/thumb/v7e-m+fp/hard\libm.a(lib_a-ef_acos.o)
 .bss           0x00000000        0x0 c:/arm_gcc/bin/../lib/gcc/arm-none-eabi/9.2.1/../../../../arm-none-eabi/lib/thumb/v7e-m+fp/hard\libm.a(lib_a-ef_acos.o)
 .text.__ieee754_acosf
                0x00000000      0x240 c:/arm_gcc/bin/../lib/gcc/arm-none-eabi/9.2.1/../../../../arm-none-eabi/lib/thumb/v7e-m+fp/hard\libm.a(lib_a-ef_acos.o)
 .debug_frame   0x00000000       0x64 c:/arm_gcc/bin/../lib/gcc/arm-none-eabi/9.2.1/../../../../arm-none-eabi/lib/thumb/v7e-m+fp/hard\libm.a(lib_a-ef_acos.o)
 .ARM.attributes
                0x00000000       0x34 c:/arm_gcc/bin/../lib/gcc/arm-none-eabi/9.2.1/../../../../arm-none-eabi/lib/thumb/v7e-m+fp/hard\libm.a(lib_a-ef_acos.o)
 .text          0x00000000        0x0 c:/arm_gcc/bin/../lib/gcc/arm-none-eabi/9.2.1/../../../../arm-none-eabi/lib/thumb/v7e-m+fp/hard\libm.a(lib_a-ef_atan2.o)
 .data          0x00000000        0x0 c:/arm_gcc/bin/../lib/gcc/arm-none-eabi/9.2.1/../../../../arm-none-eabi/lib/thumb/v7e-m+fp/hard\libm.a(lib_a-ef_atan2.o)
 .bss           0x00000000        0x0 c:/arm_gcc/bin/../lib/gcc/arm-none-eabi/9.2.1/../../../../arm-none-eabi/lib/thumb/v7e-m+fp/hard\libm.a(lib_a-ef_atan2.o)
 .text          0x00000000        0x0 c:/arm_gcc/bin/../lib/gcc/arm-none-eabi/9.2.1/../../../../arm-none-eabi/lib/thumb/v7e-m+fp/hard\libm.a(lib_a-ef_sqrt.o)
 .data          0x00000000        0x0 c:/arm_gcc/bin/../lib/gcc/arm-none-eabi/9.2.1/../../../../arm-none-eabi/lib/thumb/v7e-m+fp/hard\libm.a(lib_a-ef_sqrt.o)
 .bss           0x00000000        0x0 c:/arm_gcc/bin/../lib/gcc/arm-none-eabi/9.2.1/../../../../arm-none-eabi/lib/thumb/v7e-m+fp/hard\libm.a(lib_a-ef_sqrt.o)
 .text          0x00000000        0x0 c:/arm_gcc/bin/../lib/gcc/arm-none-eabi/9.2.1/../../../../arm-none-eabi/lib/thumb/v7e-m+fp/hard\libm.a(lib_a-s_lib_ver.o)
 .data          0x00000000        0x0 c:/arm_gcc/bin/../lib/gcc/arm-none-eabi/9.2.1/../../../../arm-none-eabi/lib/thumb/v7e-m+fp/hard\libm.a(lib_a-s_lib_ver.o)
 .bss           0x00000000        0x0 c:/arm_gcc/bin/../lib/gcc/arm-none-eabi/9.2.1/../../../../arm-none-eabi/lib/thumb/v7e-m+fp/hard\libm.a(lib_a-s_lib_ver.o)
 .text          0x00000000        0x0 c:/arm_gcc/bin/../lib/gcc/arm-none-eabi/9.2.1/../../../../arm-none-eabi/lib/thumb/v7e-m+fp/hard\libm.a(lib_a-s_matherr.o)
 .data          0x00000000        0x0 c:/arm_gcc/bin/../lib/gcc/arm-none-eabi/9.2.1/../../../../arm-none-eabi/lib/thumb/v7e-m+fp/hard\libm.a(lib_a-s_matherr.o)
 .bss           0x00000000        0x0 c:/arm_gcc/bin/../lib/gcc/arm-none-eabi/9.2.1/../../../../arm-none-eabi/lib/thumb/v7e-m+fp/hard\libm.a(lib_a-s_matherr.o)
 .text          0x00000000        0x0 c:/arm_gcc/bin/../lib/gcc/arm-none-eabi/9.2.1/../../../../arm-none-eabi/lib/thumb/v7e-m+fp/hard\libm.a(lib_a-sf_atan.o)
 .data          0x00000000        0x0 c:/arm_gcc/bin/../lib/gcc/arm-none-eabi/9.2.1/../../../../arm-none-eabi/lib/thumb/v7e-m+fp/hard\libm.a(lib_a-sf_atan.o)
 .bss           0x00000000        0x0 c:/arm_gcc/bin/../lib/gcc/arm-none-eabi/9.2.1/../../../../arm-none-eabi/lib/thumb/v7e-m+fp/hard\libm.a(lib_a-sf_atan.o)
 .text          0x00000000        0x0 c:/arm_gcc/bin/../lib/gcc/arm-none-eabi/9.2.1/../../../../arm-none-eabi/lib/thumb/v7e-m+fp/hard\libm.a(lib_a-sf_fabs.o)
 .data          0x00000000        0x0 c:/arm_gcc/bin/../lib/gcc/arm-none-eabi/9.2.1/../../../../arm-none-eabi/lib/thumb/v7e-m+fp/hard\libm.a(lib_a-sf_fabs.o)
 .bss           0x00000000        0x0 c:/arm_gcc/bin/../lib/gcc/arm-none-eabi/9.2.1/../../../../arm-none-eabi/lib/thumb/v7e-m+fp/hard\libm.a(lib_a-sf_fabs.o)
 .text          0x00000000        0x0 c:/arm_gcc/bin/../lib/gcc/arm-none-eabi/9.2.1/../../../../arm-none-eabi/lib/thumb/v7e-m+fp/hard\libnosys.a(sbrk.o)
 .data          0x00000000        0x0 c:/arm_gcc/bin/../lib/gcc/arm-none-eabi/9.2.1/../../../../arm-none-eabi/lib/thumb/v7e-m+fp/hard\libnosys.a(sbrk.o)
 .bss           0x00000000        0x0 c:/arm_gcc/bin/../lib/gcc/arm-none-eabi/9.2.1/../../../../arm-none-eabi/lib/thumb/v7e-m+fp/hard\libnosys.a(sbrk.o)
 .text          0x00000000        0x0 c:/arm_gcc/bin/../lib/gcc/arm-none-eabi/9.2.1/../../../../arm-none-eabi/lib/thumb/v7e-m+fp/hard\libnosys.a(_exit.o)
 .data          0x00000000        0x0 c:/arm_gcc/bin/../lib/gcc/arm-none-eabi/9.2.1/../../../../arm-none-eabi/lib/thumb/v7e-m+fp/hard\libnosys.a(_exit.o)
 .bss           0x00000000        0x0 c:/arm_gcc/bin/../lib/gcc/arm-none-eabi/9.2.1/../../../../arm-none-eabi/lib/thumb/v7e-m+fp/hard\libnosys.a(_exit.o)
 .text._exit    0x00000000        0x4 c:/arm_gcc/bin/../lib/gcc/arm-none-eabi/9.2.1/../../../../arm-none-eabi/lib/thumb/v7e-m+fp/hard\libnosys.a(_exit.o)
 .debug_frame   0x00000000       0x20 c:/arm_gcc/bin/../lib/gcc/arm-none-eabi/9.2.1/../../../../arm-none-eabi/lib/thumb/v7e-m+fp/hard\libnosys.a(_exit.o)
 .ARM.attributes
                0x00000000       0x34 c:/arm_gcc/bin/../lib/gcc/arm-none-eabi/9.2.1/../../../../arm-none-eabi/lib/thumb/v7e-m+fp/hard\libnosys.a(_exit.o)
 .text          0x00000000      0x254 c:/arm_gcc/bin/../lib/gcc/arm-none-eabi/9.2.1/thumb/v7e-m+fp/hard\libgcc.a(_arm_muldf3.o)
 .data          0x00000000        0x0 c:/arm_gcc/bin/../lib/gcc/arm-none-eabi/9.2.1/thumb/v7e-m+fp/hard\libgcc.a(_arm_muldf3.o)
 .bss           0x00000000        0x0 c:/arm_gcc/bin/../lib/gcc/arm-none-eabi/9.2.1/thumb/v7e-m+fp/hard\libgcc.a(_arm_muldf3.o)
 .debug_frame   0x00000000       0x30 c:/arm_gcc/bin/../lib/gcc/arm-none-eabi/9.2.1/thumb/v7e-m+fp/hard\libgcc.a(_arm_muldf3.o)
 .ARM.attributes
                0x00000000       0x1e c:/arm_gcc/bin/../lib/gcc/arm-none-eabi/9.2.1/thumb/v7e-m+fp/hard\libgcc.a(_arm_muldf3.o)
 .data          0x00000000        0x0 c:/arm_gcc/bin/../lib/gcc/arm-none-eabi/9.2.1/thumb/v7e-m+fp/hard\libgcc.a(_arm_addsubdf3.o)
 .bss           0x00000000        0x0 c:/arm_gcc/bin/../lib/gcc/arm-none-eabi/9.2.1/thumb/v7e-m+fp/hard\libgcc.a(_arm_addsubdf3.o)
 .data          0x00000000        0x0 c:/arm_gcc/bin/../lib/gcc/arm-none-eabi/9.2.1/thumb/v7e-m+fp/hard\libgcc.a(_arm_muldivdf3.o)
 .bss           0x00000000        0x0 c:/arm_gcc/bin/../lib/gcc/arm-none-eabi/9.2.1/thumb/v7e-m+fp/hard\libgcc.a(_arm_muldivdf3.o)
 .data          0x00000000        0x0 c:/arm_gcc/bin/../lib/gcc/arm-none-eabi/9.2.1/thumb/v7e-m+fp/hard\libgcc.a(_arm_cmpdf2.o)
 .bss           0x00000000        0x0 c:/arm_gcc/bin/../lib/gcc/arm-none-eabi/9.2.1/thumb/v7e-m+fp/hard\libgcc.a(_arm_cmpdf2.o)
 .data          0x00000000        0x0 c:/arm_gcc/bin/../lib/gcc/arm-none-eabi/9.2.1/thumb/v7e-m+fp/hard\libgcc.a(_arm_unorddf2.o)
 .bss           0x00000000        0x0 c:/arm_gcc/bin/../lib/gcc/arm-none-eabi/9.2.1/thumb/v7e-m+fp/hard\libgcc.a(_arm_unorddf2.o)
 .data          0x00000000        0x0 c:/arm_gcc/bin/../lib/gcc/arm-none-eabi/9.2.1/thumb/v7e-m+fp/hard\libgcc.a(_arm_fixdfsi.o)
 .bss           0x00000000        0x0 c:/arm_gcc/bin/../lib/gcc/arm-none-eabi/9.2.1/thumb/v7e-m+fp/hard\libgcc.a(_arm_fixdfsi.o)
 .data          0x00000000        0x0 c:/arm_gcc/bin/../lib/gcc/arm-none-eabi/9.2.1/thumb/v7e-m+fp/hard\libgcc.a(_arm_fixunsdfsi.o)
 .bss           0x00000000        0x0 c:/arm_gcc/bin/../lib/gcc/arm-none-eabi/9.2.1/thumb/v7e-m+fp/hard\libgcc.a(_arm_fixunsdfsi.o)
 .data          0x00000000        0x0 c:/arm_gcc/bin/../lib/gcc/arm-none-eabi/9.2.1/thumb/v7e-m+fp/hard\libgcc.a(_arm_truncdfsf2.o)
 .bss           0x00000000        0x0 c:/arm_gcc/bin/../lib/gcc/arm-none-eabi/9.2.1/thumb/v7e-m+fp/hard\libgcc.a(_arm_truncdfsf2.o)
 .data          0x00000000        0x0 c:/arm_gcc/bin/../lib/gcc/arm-none-eabi/9.2.1/thumb/v7e-m+fp/hard\libgcc.a(_aeabi_uldivmod.o)
 .bss           0x00000000        0x0 c:/arm_gcc/bin/../lib/gcc/arm-none-eabi/9.2.1/thumb/v7e-m+fp/hard\libgcc.a(_aeabi_uldivmod.o)
 .data          0x00000000        0x0 c:/arm_gcc/bin/../lib/gcc/arm-none-eabi/9.2.1/thumb/v7e-m+fp/hard\libgcc.a(_fixdfdi.o)
 .bss           0x00000000        0x0 c:/arm_gcc/bin/../lib/gcc/arm-none-eabi/9.2.1/thumb/v7e-m+fp/hard\libgcc.a(_fixdfdi.o)
 .data          0x00000000        0x0 c:/arm_gcc/bin/../lib/gcc/arm-none-eabi/9.2.1/thumb/v7e-m+fp/hard\libgcc.a(_fixunsdfdi.o)
 .bss           0x00000000        0x0 c:/arm_gcc/bin/../lib/gcc/arm-none-eabi/9.2.1/thumb/v7e-m+fp/hard\libgcc.a(_fixunsdfdi.o)
 .data          0x00000000        0x0 c:/arm_gcc/bin/../lib/gcc/arm-none-eabi/9.2.1/thumb/v7e-m+fp/hard\libgcc.a(_udivmoddi4.o)
 .bss           0x00000000        0x0 c:/arm_gcc/bin/../lib/gcc/arm-none-eabi/9.2.1/thumb/v7e-m+fp/hard\libgcc.a(_udivmoddi4.o)
 .ARM.extab     0x00000000        0x0 c:/arm_gcc/bin/../lib/gcc/arm-none-eabi/9.2.1/thumb/v7e-m+fp/hard\libgcc.a(_udivmoddi4.o)
 .data          0x00000000        0x0 c:/arm_gcc/bin/../lib/gcc/arm-none-eabi/9.2.1/thumb/v7e-m+fp/hard\libgcc.a(_dvmd_tls.o)
 .bss           0x00000000        0x0 c:/arm_gcc/bin/../lib/gcc/arm-none-eabi/9.2.1/thumb/v7e-m+fp/hard\libgcc.a(_dvmd_tls.o)
 .text          0x00000000        0x0 c:/arm_gcc/bin/../lib/gcc/arm-none-eabi/9.2.1/../../../../arm-none-eabi/lib/thumb/v7e-m+fp/hard\libc_nano.a(lib_a-errno.o)
 .data          0x00000000        0x0 c:/arm_gcc/bin/../lib/gcc/arm-none-eabi/9.2.1/../../../../arm-none-eabi/lib/thumb/v7e-m+fp/hard\libc_nano.a(lib_a-errno.o)
 .bss           0x00000000        0x0 c:/arm_gcc/bin/../lib/gcc/arm-none-eabi/9.2.1/../../../../arm-none-eabi/lib/thumb/v7e-m+fp/hard\libc_nano.a(lib_a-errno.o)
 .text          0x00000000        0x0 c:/arm_gcc/bin/../lib/gcc/arm-none-eabi/9.2.1/thumb/v7e-m+fp/hard/crtend.o
 .data          0x00000000        0x0 c:/arm_gcc/bin/../lib/gcc/arm-none-eabi/9.2.1/thumb/v7e-m+fp/hard/crtend.o
 .bss           0x00000000        0x0 c:/arm_gcc/bin/../lib/gcc/arm-none-eabi/9.2.1/thumb/v7e-m+fp/hard/crtend.o
 .eh_frame      0x00000000        0x4 c:/arm_gcc/bin/../lib/gcc/arm-none-eabi/9.2.1/thumb/v7e-m+fp/hard/crtend.o
 .ARM.attributes
                0x00000000       0x32 c:/arm_gcc/bin/../lib/gcc/arm-none-eabi/9.2.1/thumb/v7e-m+fp/hard/crtend.o
 .text          0x00000000        0x0 c:/arm_gcc/bin/../lib/gcc/arm-none-eabi/9.2.1/thumb/v7e-m+fp/hard/crtn.o
 .data          0x00000000        0x0 c:/arm_gcc/bin/../lib/gcc/arm-none-eabi/9.2.1/thumb/v7e-m+fp/hard/crtn.o
 .bss           0x00000000        0x0 c:/arm_gcc/bin/../lib/gcc/arm-none-eabi/9.2.1/thumb/v7e-m+fp/hard/crtn.o

Memory Configuration

Name             Origin             Length             Attributes
RAM              0x20000000         0x00020000         xrw
CCMRAM           0x10000000         0x00010000         rw
FLASH            0x08000000         0x00100000         xr
*default*        0x00000000         0xffffffff

Linker script and memory map

LOAD c:/arm_gcc/bin/../lib/gcc/arm-none-eabi/9.2.1/thumb/v7e-m+fp/hard/crti.o
LOAD c:/arm_gcc/bin/../lib/gcc/arm-none-eabi/9.2.1/thumb/v7e-m+fp/hard/crtbegin.o
LOAD c:/arm_gcc/bin/../lib/gcc/arm-none-eabi/9.2.1/../../../../arm-none-eabi/lib/thumb/v7e-m+fp/hard/crt0.o
LOAD build_my/main.o
LOAD build_my/uart_ext.o
LOAD build_my/command.o
LOAD build_my/as5047.o
LOAD build_my/pid.o
LOAD build_my/soft_i2c.o
LOAD build_my/icm20600.o
LOAD build_my/easy_angle.o
LOAD build_my/debug_utils.o
LOAD build_my/spi_slave.o
LOAD build_my/utils.o
LOAD build_my/gpio.o
LOAD build_my/SVPWM.o
LOAD build_my/parameter.o
LOAD build_my/arm_sin_cos_f32.o
LOAD build_my/arm_sin_f32.o
LOAD build_my/arm_cos_f32.o
LOAD build_my/arm_common_tables.o
LOAD build_my/foc.o
LOAD build_my/foc_spi_com.o
LOAD build_my/cmd_fun.o
LOAD build_my/dac.o
LOAD build_my/adc.o
LOAD build_my/can.o
LOAD build_my/sys.o
LOAD build_my/tim.o
LOAD build_my/usart.o
LOAD build_my/usb_otg.o
LOAD build_my/stm32f4xx_it.o
LOAD build_my/stm32f4xx_hal_msp.o
LOAD build_my/stm32f4xx_hal_adc.o
LOAD build_my/stm32f4xx_hal_dac.o
LOAD build_my/stm32f4xx_hal_adc_ex.o
LOAD build_my/stm32f4xx_hal_rcc.o
LOAD build_my/stm32f4xx_hal_rcc_ex.o
LOAD build_my/stm32f4xx_hal_flash.o
LOAD build_my/stm32f4xx_hal_flash_ex.o
LOAD build_my/stm32f4xx_hal_flash_ramfunc.o
LOAD build_my/stm32f4xx_hal_gpio.o
LOAD build_my/stm32f4xx_hal_dma_ex.o
LOAD build_my/stm32f4xx_hal_dma.o
LOAD build_my/stm32f4xx_hal_pwr.o
LOAD build_my/stm32f4xx_hal_pwr_ex.o
LOAD build_my/stm32f4xx_hal_cortex.o
LOAD build_my/stm32f4xx_hal.o
LOAD build_my/stm32f4xx_hal_exti.o
LOAD build_my/stm32f4xx_hal_can.o
LOAD build_my/stm32f4xx_hal_tim.o
LOAD build_my/stm32f4xx_hal_tim_ex.o
LOAD build_my/stm32f4xx_hal_uart.o
LOAD build_my/stm32f4xx_hal_pcd.o
LOAD build_my/stm32f4xx_hal_pcd_ex.o
LOAD build_my/stm32f4xx_ll_usb.o
LOAD build_my/system_stm32f4xx.o
LOAD build_my/dma.o
LOAD build_my/spi.o
LOAD build_my/stm32f4xx_hal_spi.o
LOAD build_my/startup_stm32f405xx.o
LOAD c:/arm_gcc/bin/../lib/gcc/arm-none-eabi/9.2.1/../../../../arm-none-eabi/lib/thumb/v7e-m+fp/hard\libc_nano.a
LOAD c:/arm_gcc/bin/../lib/gcc/arm-none-eabi/9.2.1/../../../../arm-none-eabi/lib/thumb/v7e-m+fp/hard\libm.a
LOAD c:/arm_gcc/bin/../lib/gcc/arm-none-eabi/9.2.1/../../../../arm-none-eabi/lib/thumb/v7e-m+fp/hard\libnosys.a
LOAD c:/arm_gcc/bin/../lib/gcc/arm-none-eabi/9.2.1/../../../../arm-none-eabi/lib/thumb/v7e-m+fp/hard\librdimon_nano.a
START GROUP
LOAD c:/arm_gcc/bin/../lib/gcc/arm-none-eabi/9.2.1/thumb/v7e-m+fp/hard\libgcc.a
LOAD c:/arm_gcc/bin/../lib/gcc/arm-none-eabi/9.2.1/../../../../arm-none-eabi/lib/thumb/v7e-m+fp/hard\libc_nano.a
END GROUP
START GROUP
LOAD c:/arm_gcc/bin/../lib/gcc/arm-none-eabi/9.2.1/thumb/v7e-m+fp/hard\libgcc.a
LOAD c:/arm_gcc/bin/../lib/gcc/arm-none-eabi/9.2.1/../../../../arm-none-eabi/lib/thumb/v7e-m+fp/hard\libc_nano.a
END GROUP
LOAD c:/arm_gcc/bin/../lib/gcc/arm-none-eabi/9.2.1/thumb/v7e-m+fp/hard/crtend.o
LOAD c:/arm_gcc/bin/../lib/gcc/arm-none-eabi/9.2.1/thumb/v7e-m+fp/hard/crtn.o
                0x20020000                _estack = 0x20020000
                0x00000200                _Min_Heap_Size = 0x200
                0x00000400                _Min_Stack_Size = 0x400

.isr_vector     0x08000000      0x188
                0x08000000                . = ALIGN (0x4)
 *(.isr_vector)
 .isr_vector    0x08000000      0x188 build_my/startup_stm32f405xx.o
                0x08000000                g_pfnVectors
                0x08000188                . = ALIGN (0x4)

.text           0x08000190     0xb8bc
                0x08000190                . = ALIGN (0x4)
 *(.text)
 .text          0x08000190       0x40 c:/arm_gcc/bin/../lib/gcc/arm-none-eabi/9.2.1/thumb/v7e-m+fp/hard/crtbegin.o
 .text          0x080001d0       0x10 c:/arm_gcc/bin/../lib/gcc/arm-none-eabi/9.2.1/../../../../arm-none-eabi/lib/thumb/v7e-m+fp/hard\libc_nano.a(lib_a-strlen.o)
                0x080001d0                strlen
 .text          0x080001e0       0xa0 c:/arm_gcc/bin/../lib/gcc/arm-none-eabi/9.2.1/../../../../arm-none-eabi/lib/thumb/v7e-m+fp/hard\libc_nano.a(lib_a-memchr.o)
                0x080001e0                memchr
 .text          0x08000280      0x378 c:/arm_gcc/bin/../lib/gcc/arm-none-eabi/9.2.1/thumb/v7e-m+fp/hard\libgcc.a(_arm_addsubdf3.o)
                0x08000280                __aeabi_drsub
                0x08000288                __aeabi_dsub
                0x08000288                __subdf3
                0x0800028c                __aeabi_dadd
                0x0800028c                __adddf3
                0x08000504                __floatunsidf
                0x08000504                __aeabi_ui2d
                0x08000524                __floatsidf
                0x08000524                __aeabi_i2d
                0x08000548                __aeabi_f2d
                0x08000548                __extendsfdf2
                0x0800058c                __floatundidf
                0x0800058c                __aeabi_ul2d
                0x0800059c                __floatdidf
                0x0800059c                __aeabi_l2d
 .text          0x080005f8      0x424 c:/arm_gcc/bin/../lib/gcc/arm-none-eabi/9.2.1/thumb/v7e-m+fp/hard\libgcc.a(_arm_muldivdf3.o)
                0x080005f8                __aeabi_dmul
                0x080005f8                __muldf3
                0x0800084c                __divdf3
                0x0800084c                __aeabi_ddiv
 .text          0x08000a1c      0x110 c:/arm_gcc/bin/../lib/gcc/arm-none-eabi/9.2.1/thumb/v7e-m+fp/hard\libgcc.a(_arm_cmpdf2.o)
                0x08000a1c                __gtdf2
                0x08000a1c                __gedf2
                0x08000a24                __ltdf2
                0x08000a24                __ledf2
                0x08000a2c                __nedf2
                0x08000a2c                __eqdf2
                0x08000a2c                __cmpdf2
                0x08000aa8                __aeabi_cdrcmple
                0x08000ab8                __aeabi_cdcmpeq
                0x08000ab8                __aeabi_cdcmple
                0x08000ac8                __aeabi_dcmpeq
                0x08000adc                __aeabi_dcmplt
                0x08000af0                __aeabi_dcmple
                0x08000b04                __aeabi_dcmpge
                0x08000b18                __aeabi_dcmpgt
 .text          0x08000b2c       0x2c c:/arm_gcc/bin/../lib/gcc/arm-none-eabi/9.2.1/thumb/v7e-m+fp/hard\libgcc.a(_arm_unorddf2.o)
                0x08000b2c                __unorddf2
                0x08000b2c                __aeabi_dcmpun
 .text          0x08000b58       0x50 c:/arm_gcc/bin/../lib/gcc/arm-none-eabi/9.2.1/thumb/v7e-m+fp/hard\libgcc.a(_arm_fixdfsi.o)
                0x08000b58                __aeabi_d2iz
                0x08000b58                __fixdfsi
 .text          0x08000ba8       0x40 c:/arm_gcc/bin/../lib/gcc/arm-none-eabi/9.2.1/thumb/v7e-m+fp/hard\libgcc.a(_arm_fixunsdfsi.o)
                0x08000ba8                __aeabi_d2uiz
                0x08000ba8                __fixunsdfsi
 .text          0x08000be8       0xa0 c:/arm_gcc/bin/../lib/gcc/arm-none-eabi/9.2.1/thumb/v7e-m+fp/hard\libgcc.a(_arm_truncdfsf2.o)
                0x08000be8                __truncdfsf2
                0x08000be8                __aeabi_d2f
 .text          0x08000c88       0x30 c:/arm_gcc/bin/../lib/gcc/arm-none-eabi/9.2.1/thumb/v7e-m+fp/hard\libgcc.a(_aeabi_uldivmod.o)
                0x08000c88                __aeabi_uldivmod
 .text          0x08000cb8       0x30 c:/arm_gcc/bin/../lib/gcc/arm-none-eabi/9.2.1/thumb/v7e-m+fp/hard\libgcc.a(_fixdfdi.o)
                0x08000cb8                __fixdfdi
                0x08000cb8                __aeabi_d2lz
 .text          0x08000ce8       0x3c c:/arm_gcc/bin/../lib/gcc/arm-none-eabi/9.2.1/thumb/v7e-m+fp/hard\libgcc.a(_fixunsdfdi.o)
                0x08000ce8                __fixunsdfdi
                0x08000ce8                __aeabi_d2ulz
 .text          0x08000d24      0x2c4 c:/arm_gcc/bin/../lib/gcc/arm-none-eabi/9.2.1/thumb/v7e-m+fp/hard\libgcc.a(_udivmoddi4.o)
                0x08000d24                __udivmoddi4
 .text          0x08000fe8        0x4 c:/arm_gcc/bin/../lib/gcc/arm-none-eabi/9.2.1/thumb/v7e-m+fp/hard\libgcc.a(_dvmd_tls.o)
                0x08000fe8                __aeabi_idiv0
                0x08000fe8                __aeabi_ldiv0
 *(.text*)
 .text.SystemClock_Config
                0x08000fec       0x98 build_my/main.o
                0x08000fec                SystemClock_Config
 .text.main     0x08001084       0xa0 build_my/main.o
                0x08001084                main
 .text.Error_Handler
                0x08001124        0x2 build_my/main.o
                0x08001124                Error_Handler
 *fill*         0x08001126        0x2 
 .text.UART_Send
                0x08001128       0x44 build_my/uart_ext.o
 .text.UART_Start_Receive
                0x0800116c       0x48 build_my/uart_ext.o
                0x0800116c                UART_Start_Receive
 .text.debug_uart_init
                0x080011b4       0x24 build_my/uart_ext.o
                0x080011b4                debug_uart_init
 .text.send_wave
                0x080011d8       0x40 build_my/uart_ext.o
                0x080011d8                send_wave
 .text.uprintf_polling
                0x08001218       0x3c build_my/uart_ext.o
                0x08001218                uprintf_polling
 .text.uprintf  0x08001254       0x30 build_my/uart_ext.o
                0x08001254                uprintf
 .text.HAL_UART_RxCpltCallback
                0x08001284       0x5c build_my/uart_ext.o
                0x08001284                HAL_UART_RxCpltCallback
 .text.HAL_UART_IDLECallback
                0x080012e0       0x3c build_my/uart_ext.o
                0x080012e0                HAL_UART_IDLECallback
 .text.UART_Command_Analize_And_Call
                0x0800131c       0x1c build_my/uart_ext.o
                0x0800131c                UART_Command_Analize_And_Call
 .text.get_prams
                0x08001338      0x160 build_my/command.o
 .text.add_cmd  0x08001498       0x28 build_my/command.o
                0x08001498                add_cmd
 .text.compare_cmd
                0x080014c0       0x30 build_my/command.o
                0x080014c0                compare_cmd
 .text.compare_string
                0x080014f0       0x2a build_my/command.o
                0x080014f0                compare_string
 *fill*         0x0800151a        0x2 
 .text.analize  0x0800151c       0x74 build_my/command.o
                0x0800151c                analize
 .text.spi_delay
                0x08001590        0x6 build_my/as5047.o
 .text.Count_PARC
                0x08001596       0x32 build_my/as5047.o
 .text.Command  0x080015c8       0x14 build_my/as5047.o
 .text.Soft_SPI_Read_Write
                0x080015dc       0xc8 build_my/as5047.o
                0x080015dc                Soft_SPI_Read_Write
 .text.SPI_Write
                0x080016a4       0x3c build_my/as5047.o
                0x080016a4                SPI_Write
 .text.As5047_Init
                0x080016e0       0x38 build_my/as5047.o
                0x080016e0                As5047_Init
 .text.Read_Reg
                0x08001718       0xf4 build_my/as5047.o
                0x08001718                Read_Reg
 .text.Get_Position
                0x0800180c       0x1c build_my/as5047.o
                0x0800180c                Get_Position
 .text.Position_to_Rad_Dgree
                0x08001828       0x40 build_my/as5047.o
                0x08001828                Position_to_Rad_Dgree
 .text.AS5047_Set_Direction
                0x08001868      0x104 build_my/as5047.o
                0x08001868                AS5047_Set_Direction
 .text.PID_Control
                0x0800196c       0xac build_my/pid.o
                0x0800196c                PID_Control
 .text.send_debug_wave
                0x08001a18       0x3c build_my/debug_utils.o
                0x08001a18                send_debug_wave
 .text.SPI_Slave_TransmitReceive
                0x08001a54       0x1c build_my/spi_slave.o
                0x08001a54                SPI_Slave_TransmitReceive
 .text.SPI_Slave_CSN_Handler
                0x08001a70       0x30 build_my/spi_slave.o
                0x08001a70                SPI_Slave_CSN_Handler
 .text.SPI_Slave_Init
                0x08001aa0       0x14 build_my/spi_slave.o
                0x08001aa0                SPI_Slave_Init
 .text.SPI_Slave_Normal_Hanlder
                0x08001ab4       0x9c build_my/spi_slave.o
                0x08001ab4                SPI_Slave_Normal_Hanlder
 .text.HAL_SPI_TxRxCpltCallback
                0x08001b50       0x18 build_my/spi_slave.o
                0x08001b50                HAL_SPI_TxRxCpltCallback
 .text.MX_GPIO_Init
                0x08001b68       0xe0 build_my/gpio.o
                0x08001b68                MX_GPIO_Init
 .text.get_area_u
                0x08001c48       0x9c build_my/SVPWM.o
 .text.SVPWM_Normal_CalT1T2
                0x08001ce4       0xd0 build_my/SVPWM.o
 .text.SVPWM_Step
                0x08001db4       0x5c build_my/SVPWM.o
                0x08001db4                SVPWM_Step
 .text.Set_Vector
                0x08001e10       0x5c build_my/SVPWM.o
                0x08001e10                Set_Vector
 .text.Set_to_Un
                0x08001e6c       0x40 build_my/SVPWM.o
                0x08001e6c                Set_to_Un
 .text.Get_CCR_Duty
                0x08001eac       0xf4 build_my/SVPWM.o
                0x08001eac                Get_CCR_Duty
 .text.SVPWM    0x08001fa0       0xf0 build_my/SVPWM.o
                0x08001fa0                SVPWM
 .text.SVPWM_Alpha_Beta
                0x08002090       0x88 build_my/SVPWM.o
                0x08002090                SVPWM_Alpha_Beta
 .text.Print_Parameters
                0x08002118       0xd4 build_my/parameter.o
                0x08002118                Print_Parameters
 .text.Write_Parameter
                0x080021ec       0xa4 build_my/parameter.o
                0x080021ec                Write_Parameter
 .text.Read_Parameters
                0x08002290       0x90 build_my/parameter.o
                0x08002290                Read_Parameters
 .text.arm_sin_cos_f32
                0x08002320      0x12c build_my/arm_sin_cos_f32.o
                0x08002320                arm_sin_cos_f32
 .text.arm_cos_f32
                0x0800244c       0x88 build_my/arm_cos_f32.o
                0x0800244c                arm_cos_f32
 *fill*         0x080024d4        0x4 
 .text.Get_Speed
                0x080024d8       0xb4 build_my/foc.o
 .text.Position_Control
                0x0800258c       0xb4 build_my/foc.o
 .text.Speed_Control
                0x08002640       0x2c build_my/foc.o
 .text.PID_I_Clear
                0x0800266c       0x24 build_my/foc.o
                0x0800266c                PID_I_Clear
 .text.Current_ADC_Init
                0x08002690       0x64 build_my/foc.o
                0x08002690                Current_ADC_Init
 .text.Foc_Init
                0x080026f4       0x98 build_my/foc.o
                0x080026f4                Foc_Init
 .text.Clark_Conv
                0x0800278c       0x2c build_my/foc.o
                0x0800278c                Clark_Conv
 .text.Park_Conv
                0x080027b8       0x56 build_my/foc.o
                0x080027b8                Park_Conv
 .text.Reverse_Park_Conv
                0x0800280e       0x56 build_my/foc.o
                0x0800280e                Reverse_Park_Conv
 .text.Current_Control
                0x08002864       0xe8 build_my/foc.o
                0x08002864                Current_Control
 .text.Test_Direction
                0x0800294c       0xa8 build_my/foc.o
                0x0800294c                Test_Direction
 .text.Measure_Ind_Handler
                0x080029f4      0x2a8 build_my/foc.o
                0x080029f4                Measure_Ind_Handler
 *fill*         0x08002c9c        0x4 
 .text.HAL_ADC_ConvCpltCallback
                0x08002ca0      0x42c build_my/foc.o
                0x08002ca0                HAL_ADC_ConvCpltCallback
 .text.Measure_Res
                0x080030cc      0x180 build_my/foc.o
                0x080030cc                Measure_Res
 .text.Measure_Ind
                0x0800324c      0x228 build_my/foc.o
                0x0800324c                Measure_Ind
 .text.Detect_Encoder
                0x08003474      0x220 build_my/foc.o
                0x08003474                Detect_Encoder
 .text.SPI_Com_Init
                0x08003694       0x10 build_my/foc_spi_com.o
                0x08003694                SPI_Com_Init
 .text.wave     0x080036a4       0x40 build_my/cmd_fun.o
                0x080036a4                wave
 .text.position
                0x080036e4       0x20 build_my/cmd_fun.o
                0x080036e4                position
 .text.set_mode
                0x08003704       0x48 build_my/cmd_fun.o
                0x08003704                set_mode
 .text.set_pos_off_here
                0x0800374c       0x34 build_my/cmd_fun.o
                0x0800374c                set_pos_off_here
 .text.test     0x08003780       0x80 build_my/cmd_fun.o
 .text.set_val  0x08003800       0xe8 build_my/cmd_fun.o
                0x08003800                set_val
 .text.set_PID  0x080038e8       0xe4 build_my/cmd_fun.o
                0x080038e8                set_PID
 .text.set_to_u4
                0x080039cc       0x60 build_my/cmd_fun.o
                0x080039cc                set_to_u4
 .text.test_spi_com
                0x08003a2c       0x38 build_my/cmd_fun.o
                0x08003a2c                test_spi_com
 .text.test_direction
                0x08003a64       0x14 build_my/cmd_fun.o
                0x08003a64                test_direction
 .text.detect   0x08003a78       0x14 build_my/cmd_fun.o
                0x08003a78                detect
 .text.start    0x08003a8c       0x88 build_my/cmd_fun.o
                0x08003a8c                start
 .text.measure_res
                0x08003b14       0x14 build_my/cmd_fun.o
                0x08003b14                measure_res
 .text.measure_ind
                0x08003b28       0x14 build_my/cmd_fun.o
                0x08003b28                measure_ind
 .text.wrtie_param
                0x08003b3c       0x14 build_my/cmd_fun.o
                0x08003b3c                wrtie_param
 .text.command_init
                0x08003b50       0xf4 build_my/cmd_fun.o
                0x08003b50                command_init
 .text.MX_DAC_Init
                0x08003c44       0x58 build_my/dac.o
                0x08003c44                MX_DAC_Init
 .text.HAL_DAC_MspInit
                0x08003c9c       0x78 build_my/dac.o
                0x08003c9c                HAL_DAC_MspInit
 .text.MX_ADC1_Init
                0x08003d14       0x94 build_my/adc.o
                0x08003d14                MX_ADC1_Init
 .text.MX_ADC2_Init
                0x08003da8       0x64 build_my/adc.o
                0x08003da8                MX_ADC2_Init
 .text.MX_ADC3_Init
                0x08003e0c       0x64 build_my/adc.o
                0x08003e0c                MX_ADC3_Init
 .text.HAL_ADC_MspInit
                0x08003e70      0x100 build_my/adc.o
                0x08003e70                HAL_ADC_MspInit
 .text.MX_TIM6_Init
                0x08003f70       0x48 build_my/tim.o
                0x08003f70                MX_TIM6_Init
 .text.MX_TIM7_Init
                0x08003fb8       0x50 build_my/tim.o
                0x08003fb8                MX_TIM7_Init
 .text.MX_TIM8_Init
                0x08004008       0xe8 build_my/tim.o
                0x08004008                MX_TIM8_Init
 .text.HAL_TIM_PWM_MspInit
                0x080040f0       0x40 build_my/tim.o
                0x080040f0                HAL_TIM_PWM_MspInit
 .text.HAL_TIM_Base_MspInit
                0x08004130       0x98 build_my/tim.o
                0x08004130                HAL_TIM_Base_MspInit
 .text.HAL_TIM_MspPostInit
                0x080041c8       0x88 build_my/tim.o
                0x080041c8                HAL_TIM_MspPostInit
 .text.conf_general_calculate_deadtime
                0x08004250      0x190 build_my/tim.o
                0x08004250                conf_general_calculate_deadtime
 .text.MX_TIM1_Init
                0x080043e0       0xf8 build_my/tim.o
                0x080043e0                MX_TIM1_Init
 .text.MX_UART5_Init
                0x080044d8       0x34 build_my/usart.o
                0x080044d8                MX_UART5_Init
 .text.HAL_UART_MspInit
                0x0800450c      0x138 build_my/usart.o
                0x0800450c                HAL_UART_MspInit
 .text.NMI_Handler
                0x08004644        0x2 build_my/stm32f4xx_it.o
                0x08004644                NMI_Handler
 .text.HardFault_Handler
                0x08004646        0x2 build_my/stm32f4xx_it.o
                0x08004646                HardFault_Handler
 .text.MemManage_Handler
                0x08004648        0x2 build_my/stm32f4xx_it.o
                0x08004648                MemManage_Handler
 .text.BusFault_Handler
                0x0800464a        0x2 build_my/stm32f4xx_it.o
                0x0800464a                BusFault_Handler
 .text.UsageFault_Handler
                0x0800464c        0x2 build_my/stm32f4xx_it.o
                0x0800464c                UsageFault_Handler
 .text.SVC_Handler
                0x0800464e        0x2 build_my/stm32f4xx_it.o
                0x0800464e                SVC_Handler
 .text.DebugMon_Handler
                0x08004650        0x2 build_my/stm32f4xx_it.o
                0x08004650                DebugMon_Handler
 .text.PendSV_Handler
                0x08004652        0x2 build_my/stm32f4xx_it.o
                0x08004652                PendSV_Handler
 .text.SysTick_Handler
                0x08004654        0x8 build_my/stm32f4xx_it.o
                0x08004654                SysTick_Handler
 .text.DMA1_Stream0_IRQHandler
                0x0800465c       0x10 build_my/stm32f4xx_it.o
                0x0800465c                DMA1_Stream0_IRQHandler
 .text.TIM1_UP_TIM10_IRQHandler
                0x0800466c       0x10 build_my/stm32f4xx_it.o
                0x0800466c                TIM1_UP_TIM10_IRQHandler
 .text.DMA1_Stream7_IRQHandler
                0x0800467c       0x10 build_my/stm32f4xx_it.o
                0x0800467c                DMA1_Stream7_IRQHandler
 .text.UART5_IRQHandler
                0x0800468c       0x24 build_my/stm32f4xx_it.o
                0x0800468c                UART5_IRQHandler
 .text.TIM6_DAC_IRQHandler
                0x080046b0       0x10 build_my/stm32f4xx_it.o
                0x080046b0                TIM6_DAC_IRQHandler
 .text.TIM7_IRQHandler
                0x080046c0       0x10 build_my/stm32f4xx_it.o
                0x080046c0                TIM7_IRQHandler
 .text.DMA2_Stream0_IRQHandler
                0x080046d0       0x10 build_my/stm32f4xx_it.o
                0x080046d0                DMA2_Stream0_IRQHandler
 .text.DMA2_Stream2_IRQHandler
                0x080046e0       0x10 build_my/stm32f4xx_it.o
                0x080046e0                DMA2_Stream2_IRQHandler
 .text.DMA2_Stream3_IRQHandler
                0x080046f0       0x10 build_my/stm32f4xx_it.o
                0x080046f0                DMA2_Stream3_IRQHandler
 .text.EXTI4_IRQHandler
                0x08004700       0x1c build_my/stm32f4xx_it.o
                0x08004700                EXTI4_IRQHandler
 .text.SPI1_IRQHandler
                0x0800471c        0x2 build_my/stm32f4xx_it.o
                0x0800471c                SPI1_IRQHandler
 *fill*         0x0800471e        0x2 
 .text.HAL_MspInit
                0x08004720       0x38 build_my/stm32f4xx_hal_msp.o
                0x08004720                HAL_MspInit
 .text.ADC_Init
                0x08004758      0x134 build_my/stm32f4xx_hal_adc.o
 .text.HAL_ADC_Init
                0x0800488c       0x56 build_my/stm32f4xx_hal_adc.o
                0x0800488c                HAL_ADC_Init
 *fill*         0x080048e2        0x2 
 .text.HAL_ADC_Start
                0x080048e4      0x130 build_my/stm32f4xx_hal_adc.o
                0x080048e4                HAL_ADC_Start
 .text.HAL_ADC_ConvHalfCpltCallback
                0x08004a14        0x2 build_my/stm32f4xx_hal_adc.o
                0x08004a14                HAL_ADC_ConvHalfCpltCallback
 .text.HAL_ADC_ErrorCallback
                0x08004a16        0x2 build_my/stm32f4xx_hal_adc.o
                0x08004a16                HAL_ADC_ErrorCallback
 .text.HAL_ADC_ConfigChannel
                0x08004a18      0x190 build_my/stm32f4xx_hal_adc.o
                0x08004a18                HAL_ADC_ConfigChannel
 .text.HAL_DAC_Init
                0x08004ba8       0x24 build_my/stm32f4xx_hal_dac.o
                0x08004ba8                HAL_DAC_Init
 .text.HAL_DAC_Start
                0x08004bcc       0x6e build_my/stm32f4xx_hal_dac.o
                0x08004bcc                HAL_DAC_Start
 .text.HAL_DAC_ConfigChannel
                0x08004c3a       0x4a build_my/stm32f4xx_hal_dac.o
                0x08004c3a                HAL_DAC_ConfigChannel
 .text.HAL_DAC_SetValue
                0x08004c84       0x2e build_my/stm32f4xx_hal_dac.o
                0x08004c84                HAL_DAC_SetValue
 .text.ADC_MultiModeDMAError
                0x08004cb2       0x16 build_my/stm32f4xx_hal_adc_ex.o
 .text.ADC_MultiModeDMAHalfConvCplt
                0x08004cc8        0xa build_my/stm32f4xx_hal_adc_ex.o
 .text.ADC_MultiModeDMAConvCplt
                0x08004cd2       0x62 build_my/stm32f4xx_hal_adc_ex.o
 .text.HAL_ADCEx_MultiModeStart_DMA
                0x08004d34      0x120 build_my/stm32f4xx_hal_adc_ex.o
                0x08004d34                HAL_ADCEx_MultiModeStart_DMA
 .text.HAL_ADCEx_MultiModeConfigChannel
                0x08004e54       0x58 build_my/stm32f4xx_hal_adc_ex.o
                0x08004e54                HAL_ADCEx_MultiModeConfigChannel
 .text.HAL_RCC_OscConfig
                0x08004eac      0x3ec build_my/stm32f4xx_hal_rcc.o
                0x08004eac                HAL_RCC_OscConfig
 .text.HAL_RCC_GetSysClockFreq
                0x08005298       0xcc build_my/stm32f4xx_hal_rcc.o
                0x08005298                HAL_RCC_GetSysClockFreq
 .text.HAL_RCC_ClockConfig
                0x08005364      0x160 build_my/stm32f4xx_hal_rcc.o
                0x08005364                HAL_RCC_ClockConfig
 .text.HAL_RCC_GetHCLKFreq
                0x080054c4        0xc build_my/stm32f4xx_hal_rcc.o
                0x080054c4                HAL_RCC_GetHCLKFreq
 .text.HAL_RCC_GetPCLK1Freq
                0x080054d0       0x20 build_my/stm32f4xx_hal_rcc.o
                0x080054d0                HAL_RCC_GetPCLK1Freq
 .text.HAL_RCC_GetPCLK2Freq
                0x080054f0       0x20 build_my/stm32f4xx_hal_rcc.o
                0x080054f0                HAL_RCC_GetPCLK2Freq
 .text.FLASH_Program_DoubleWord
                0x08005510       0x30 build_my/stm32f4xx_hal_flash.o
 .text.FLASH_Program_Word
                0x08005540       0x24 build_my/stm32f4xx_hal_flash.o
 .text.FLASH_Program_HalfWord
                0x08005564       0x24 build_my/stm32f4xx_hal_flash.o
 .text.FLASH_Program_Byte
                0x08005588       0x20 build_my/stm32f4xx_hal_flash.o
 .text.FLASH_SetErrorCode
                0x080055a8       0x8c build_my/stm32f4xx_hal_flash.o
 .text.HAL_FLASH_Unlock
                0x08005634       0x30 build_my/stm32f4xx_hal_flash.o
                0x08005634                HAL_FLASH_Unlock
 .text.HAL_FLASH_Lock
                0x08005664       0x14 build_my/stm32f4xx_hal_flash.o
                0x08005664                HAL_FLASH_Lock
 .text.FLASH_WaitForLastOperation
                0x08005678       0x60 build_my/stm32f4xx_hal_flash.o
                0x08005678                FLASH_WaitForLastOperation
 .text.HAL_FLASH_Program
                0x080056d8       0x7c build_my/stm32f4xx_hal_flash.o
                0x080056d8                HAL_FLASH_Program
 .text.FLASH_MassErase
                0x08005754       0x24 build_my/stm32f4xx_hal_flash_ex.o
 .text.FLASH_Erase_Sector
                0x08005778       0x58 build_my/stm32f4xx_hal_flash_ex.o
                0x08005778                FLASH_Erase_Sector
 .text.FLASH_FlushCaches
                0x080057d0       0x60 build_my/stm32f4xx_hal_flash_ex.o
                0x080057d0                FLASH_FlushCaches
 .text.HAL_FLASHEx_Erase
                0x08005830       0x94 build_my/stm32f4xx_hal_flash_ex.o
                0x08005830                HAL_FLASHEx_Erase
 .text.HAL_GPIO_Init
                0x080058c4      0x1cc build_my/stm32f4xx_hal_gpio.o
                0x080058c4                HAL_GPIO_Init
 .text.HAL_GPIO_ReadPin
                0x08005a90        0xe build_my/stm32f4xx_hal_gpio.o
                0x08005a90                HAL_GPIO_ReadPin
 .text.HAL_GPIO_WritePin
                0x08005a9e        0xc build_my/stm32f4xx_hal_gpio.o
                0x08005a9e                HAL_GPIO_WritePin
 .text.HAL_GPIO_EXTI_Callback
                0x08005aaa        0x2 build_my/stm32f4xx_hal_gpio.o
                0x08005aaa                HAL_GPIO_EXTI_Callback
 .text.HAL_GPIO_EXTI_IRQHandler
                0x08005aac       0x1c build_my/stm32f4xx_hal_gpio.o
                0x08005aac                HAL_GPIO_EXTI_IRQHandler
 .text.DMA_SetConfig
                0x08005ac8       0x2c build_my/stm32f4xx_hal_dma.o
 .text.DMA_CalcBaseAndBitshift
                0x08005af4       0x44 build_my/stm32f4xx_hal_dma.o
 .text.DMA_CheckFifoParam
                0x08005b38       0x8e build_my/stm32f4xx_hal_dma.o
 *fill*         0x08005bc6        0x2 
 .text.HAL_DMA_Init
                0x08005bc8       0xcc build_my/stm32f4xx_hal_dma.o
                0x08005bc8                HAL_DMA_Init
 .text.HAL_DMA_Start_IT
                0x08005c94       0x6a build_my/stm32f4xx_hal_dma.o
                0x08005c94                HAL_DMA_Start_IT
 .text.HAL_DMA_Abort
                0x08005cfe       0x94 build_my/stm32f4xx_hal_dma.o
                0x08005cfe                HAL_DMA_Abort
 .text.HAL_DMA_Abort_IT
                0x08005d92       0x26 build_my/stm32f4xx_hal_dma.o
                0x08005d92                HAL_DMA_Abort_IT
 .text.HAL_DMA_IRQHandler
                0x08005db8      0x1dc build_my/stm32f4xx_hal_dma.o
                0x08005db8                HAL_DMA_IRQHandler
 .text.HAL_NVIC_SetPriorityGrouping
                0x08005f94       0x24 build_my/stm32f4xx_hal_cortex.o
                0x08005f94                HAL_NVIC_SetPriorityGrouping
 .text.HAL_NVIC_SetPriority
                0x08005fb8       0x68 build_my/stm32f4xx_hal_cortex.o
                0x08005fb8                HAL_NVIC_SetPriority
 .text.HAL_NVIC_EnableIRQ
                0x08006020       0x1c build_my/stm32f4xx_hal_cortex.o
                0x08006020                HAL_NVIC_EnableIRQ
 .text.HAL_NVIC_DisableIRQ
                0x0800603c       0x24 build_my/stm32f4xx_hal_cortex.o
                0x0800603c                HAL_NVIC_DisableIRQ
 .text.HAL_SYSTICK_Config
                0x08006060       0x2c build_my/stm32f4xx_hal_cortex.o
                0x08006060                HAL_SYSTICK_Config
 .text.HAL_InitTick
                0x0800608c       0x4c build_my/stm32f4xx_hal.o
                0x0800608c                HAL_InitTick
 .text.HAL_Init
                0x080060d8       0x34 build_my/stm32f4xx_hal.o
                0x080060d8                HAL_Init
 .text.HAL_IncTick
                0x0800610c       0x18 build_my/stm32f4xx_hal.o
                0x0800610c                HAL_IncTick
 .text.HAL_GetTick
                0x08006124        0xc build_my/stm32f4xx_hal.o
                0x08006124                HAL_GetTick
 .text.HAL_Delay
                0x08006130       0x28 build_my/stm32f4xx_hal.o
                0x08006130                HAL_Delay
 .text.TIM_OC1_SetConfig
                0x08006158       0x68 build_my/stm32f4xx_hal_tim.o
 .text.TIM_OC3_SetConfig
                0x080061c0       0x70 build_my/stm32f4xx_hal_tim.o
 .text.TIM_OC4_SetConfig
                0x08006230       0x50 build_my/stm32f4xx_hal_tim.o
 .text.TIM_TI1_ConfigInputStage
                0x08006280       0x24 build_my/stm32f4xx_hal_tim.o
 .text.TIM_TI2_ConfigInputStage
                0x080062a4       0x26 build_my/stm32f4xx_hal_tim.o
 .text.HAL_TIM_Base_Start
                0x080062ca       0x24 build_my/stm32f4xx_hal_tim.o
                0x080062ca                HAL_TIM_Base_Start
 .text.HAL_TIM_Base_Start_IT
                0x080062ee       0x22 build_my/stm32f4xx_hal_tim.o
                0x080062ee                HAL_TIM_Base_Start_IT
 .text.HAL_TIM_OC_MspInit
                0x08006310        0x2 build_my/stm32f4xx_hal_tim.o
                0x08006310                HAL_TIM_OC_MspInit
 .text.HAL_TIM_PeriodElapsedCallback
                0x08006312        0x2 build_my/stm32f4xx_hal_tim.o
                0x08006312                HAL_TIM_PeriodElapsedCallback
 .text.HAL_TIM_OC_DelayElapsedCallback
                0x08006314        0x2 build_my/stm32f4xx_hal_tim.o
                0x08006314                HAL_TIM_OC_DelayElapsedCallback
 .text.HAL_TIM_IC_CaptureCallback
                0x08006316        0x2 build_my/stm32f4xx_hal_tim.o
                0x08006316                HAL_TIM_IC_CaptureCallback
 .text.HAL_TIM_PWM_PulseFinishedCallback
                0x08006318        0x2 build_my/stm32f4xx_hal_tim.o
                0x08006318                HAL_TIM_PWM_PulseFinishedCallback
 .text.HAL_TIM_TriggerCallback
                0x0800631a        0x2 build_my/stm32f4xx_hal_tim.o
                0x0800631a                HAL_TIM_TriggerCallback
 .text.HAL_TIM_IRQHandler
                0x0800631c      0x17a build_my/stm32f4xx_hal_tim.o
                0x0800631c                HAL_TIM_IRQHandler
 *fill*         0x08006496        0x2 
 .text.TIM_Base_SetConfig
                0x08006498       0xc8 build_my/stm32f4xx_hal_tim.o
                0x08006498                TIM_Base_SetConfig
 .text.HAL_TIM_Base_Init
                0x08006560       0x34 build_my/stm32f4xx_hal_tim.o
                0x08006560                HAL_TIM_Base_Init
 .text.HAL_TIM_OC_Init
                0x08006594       0x34 build_my/stm32f4xx_hal_tim.o
                0x08006594                HAL_TIM_OC_Init
 .text.HAL_TIM_PWM_Init
                0x080065c8       0x34 build_my/stm32f4xx_hal_tim.o
                0x080065c8                HAL_TIM_PWM_Init
 .text.TIM_OC2_SetConfig
                0x080065fc       0x70 build_my/stm32f4xx_hal_tim.o
                0x080065fc                TIM_OC2_SetConfig
 .text.HAL_TIM_OC_ConfigChannel
                0x0800666c       0x5e build_my/stm32f4xx_hal_tim.o
                0x0800666c                HAL_TIM_OC_ConfigChannel
 .text.HAL_TIM_PWM_ConfigChannel
                0x080066ca       0xdc build_my/stm32f4xx_hal_tim.o
                0x080066ca                HAL_TIM_PWM_ConfigChannel
 .text.TIM_ETR_SetConfig
                0x080067a6       0x18 build_my/stm32f4xx_hal_tim.o
                0x080067a6                TIM_ETR_SetConfig
 .text.TIM_SlaveTimer_SetConfig
                0x080067be       0x8e build_my/stm32f4xx_hal_tim.o
 .text.HAL_TIM_SlaveConfigSynchro
                0x0800684c       0x52 build_my/stm32f4xx_hal_tim.o
                0x0800684c                HAL_TIM_SlaveConfigSynchro
 .text.TIM_CCxChannelCmd
                0x0800689e       0x24 build_my/stm32f4xx_hal_tim.o
                0x0800689e                TIM_CCxChannelCmd
 *fill*         0x080068c2        0x2 
 .text.HAL_TIM_PWM_Start
                0x080068c4       0x40 build_my/stm32f4xx_hal_tim.o
                0x080068c4                HAL_TIM_PWM_Start
 .text.TIM_CCxNChannelCmd
                0x08006904       0x24 build_my/stm32f4xx_hal_tim_ex.o
 .text.HAL_TIMEx_PWMN_Start
                0x08006928       0x2e build_my/stm32f4xx_hal_tim_ex.o
                0x08006928                HAL_TIMEx_PWMN_Start
 *fill*         0x08006956        0x2 
 .text.HAL_TIMEx_MasterConfigSynchronization
                0x08006958       0x88 build_my/stm32f4xx_hal_tim_ex.o
                0x08006958                HAL_TIMEx_MasterConfigSynchronization
 .text.HAL_TIMEx_ConfigBreakDeadTime
                0x080069e0       0x52 build_my/stm32f4xx_hal_tim_ex.o
                0x080069e0                HAL_TIMEx_ConfigBreakDeadTime
 .text.HAL_TIMEx_CommutCallback
                0x08006a32        0x2 build_my/stm32f4xx_hal_tim_ex.o
                0x08006a32                HAL_TIMEx_CommutCallback
 .text.HAL_TIMEx_BreakCallback
                0x08006a34        0x2 build_my/stm32f4xx_hal_tim_ex.o
                0x08006a34                HAL_TIMEx_BreakCallback
 .text.UART_EndTxTransfer
                0x08006a36       0x12 build_my/stm32f4xx_hal_uart.o
 .text.UART_EndRxTransfer
                0x08006a48       0x1c build_my/stm32f4xx_hal_uart.o
 .text.UART_Transmit_IT
                0x08006a64       0x66 build_my/stm32f4xx_hal_uart.o
 *fill*         0x08006aca        0x2 
 .text.UART_SetConfig
                0x08006acc      0x1e8 build_my/stm32f4xx_hal_uart.o
 .text.UART_WaitOnFlagUntilTimeout
                0x08006cb4       0x68 build_my/stm32f4xx_hal_uart.o
 .text.HAL_UART_Init
                0x08006d1c       0x5e build_my/stm32f4xx_hal_uart.o
                0x08006d1c                HAL_UART_Init
 .text.HAL_UART_Transmit
                0x08006d7a       0xe2 build_my/stm32f4xx_hal_uart.o
                0x08006d7a                HAL_UART_Transmit
 .text.HAL_UART_Transmit_IT
                0x08006e5c       0x48 build_my/stm32f4xx_hal_uart.o
                0x08006e5c                HAL_UART_Transmit_IT
 .text.HAL_UART_Receive_IT
                0x08006ea4       0x5c build_my/stm32f4xx_hal_uart.o
                0x08006ea4                HAL_UART_Receive_IT
 .text.HAL_UART_Transmit_DMA
                0x08006f00       0x8c build_my/stm32f4xx_hal_uart.o
                0x08006f00                HAL_UART_Transmit_DMA
 .text.HAL_UART_Receive_DMA
                0x08006f8c       0xa8 build_my/stm32f4xx_hal_uart.o
                0x08006f8c                HAL_UART_Receive_DMA
 .text.HAL_UART_DMAStop
                0x08007034       0x64 build_my/stm32f4xx_hal_uart.o
                0x08007034                HAL_UART_DMAStop
 .text.HAL_UART_TxCpltCallback
                0x08007098        0x2 build_my/stm32f4xx_hal_uart.o
                0x08007098                HAL_UART_TxCpltCallback
 .text.UART_DMATransmitCplt
                0x0800709a       0x30 build_my/stm32f4xx_hal_uart.o
 .text.UART_EndTransmit_IT
                0x080070ca       0x1a build_my/stm32f4xx_hal_uart.o
 .text.HAL_UART_TxHalfCpltCallback
                0x080070e4        0x2 build_my/stm32f4xx_hal_uart.o
                0x080070e4                HAL_UART_TxHalfCpltCallback
 .text.UART_DMATxHalfCplt
                0x080070e6        0xa build_my/stm32f4xx_hal_uart.o
 .text.UART_DMAReceiveCplt
                0x080070f0       0x3e build_my/stm32f4xx_hal_uart.o
 .text.UART_Receive_IT
                0x0800712e       0x9e build_my/stm32f4xx_hal_uart.o
 .text.HAL_UART_RxHalfCpltCallback
                0x080071cc        0x2 build_my/stm32f4xx_hal_uart.o
                0x080071cc                HAL_UART_RxHalfCpltCallback
 .text.UART_DMARxHalfCplt
                0x080071ce        0xa build_my/stm32f4xx_hal_uart.o
 .text.HAL_UART_ErrorCallback
                0x080071d8        0x2 build_my/stm32f4xx_hal_uart.o
                0x080071d8                HAL_UART_ErrorCallback
 .text.UART_DMAError
                0x080071da       0x58 build_my/stm32f4xx_hal_uart.o
 *fill*         0x08007232        0x2 
 .text.HAL_UART_IRQHandler
                0x08007234      0x128 build_my/stm32f4xx_hal_uart.o
                0x08007234                HAL_UART_IRQHandler
 .text.UART_DMAAbortOnError
                0x0800735c       0x10 build_my/stm32f4xx_hal_uart.o
 .text.SystemInit
                0x0800736c       0x1c build_my/system_stm32f4xx.o
                0x0800736c                SystemInit
 .text.MX_DMA_Init
                0x08007388       0x78 build_my/dma.o
                0x08007388                MX_DMA_Init
 .text.MX_SPI3_Init
                0x08007400       0x48 build_my/spi.o
                0x08007400                MX_SPI3_Init
 .text.MX_SPI1_Init
                0x08007448       0x40 build_my/spi.o
                0x08007448                MX_SPI1_Init
 .text.HAL_SPI_MspInit
                0x08007488      0x158 build_my/spi.o
                0x08007488                HAL_SPI_MspInit
 .text.SPI_AbortRx_ISR
                0x080075e0       0x60 build_my/stm32f4xx_hal_spi.o
 .text.SPI_AbortTx_ISR
                0x08007640       0x1c build_my/stm32f4xx_hal_spi.o
 .text.SPI_WaitFlagStateUntilTimeout
                0x0800765c       0x94 build_my/stm32f4xx_hal_spi.o
 .text.SPI_EndRxTxTransaction
                0x080076f0       0x68 build_my/stm32f4xx_hal_spi.o
 .text.SPI_EndRxTransaction
                0x08007758       0x8c build_my/stm32f4xx_hal_spi.o
 .text.HAL_SPI_Init
                0x080077e4       0x80 build_my/stm32f4xx_hal_spi.o
                0x080077e4                HAL_SPI_Init
 .text.HAL_SPI_TransmitReceive
                0x08007864      0x238 build_my/stm32f4xx_hal_spi.o
                0x08007864                HAL_SPI_TransmitReceive
 .text.HAL_SPI_TransmitReceive_DMA
                0x08007a9c      0x150 build_my/stm32f4xx_hal_spi.o
                0x08007a9c                HAL_SPI_TransmitReceive_DMA
 .text.HAL_SPI_Abort
                0x08007bec      0x144 build_my/stm32f4xx_hal_spi.o
                0x08007bec                HAL_SPI_Abort
 .text.HAL_SPI_RxCpltCallback
                0x08007d30        0x2 build_my/stm32f4xx_hal_spi.o
                0x08007d30                HAL_SPI_RxCpltCallback
 .text.HAL_SPI_RxHalfCpltCallback
                0x08007d32        0x2 build_my/stm32f4xx_hal_spi.o
                0x08007d32                HAL_SPI_RxHalfCpltCallback
 .text.SPI_DMAHalfReceiveCplt
                0x08007d34        0xa build_my/stm32f4xx_hal_spi.o
 .text.HAL_SPI_TxRxHalfCpltCallback
                0x08007d3e        0x2 build_my/stm32f4xx_hal_spi.o
                0x08007d3e                HAL_SPI_TxRxHalfCpltCallback
 .text.SPI_DMAHalfTransmitReceiveCplt
                0x08007d40        0xa build_my/stm32f4xx_hal_spi.o
 .text.HAL_SPI_ErrorCallback
                0x08007d4a        0x2 build_my/stm32f4xx_hal_spi.o
                0x08007d4a                HAL_SPI_ErrorCallback
 .text.SPI_DMAError
                0x08007d4c       0x22 build_my/stm32f4xx_hal_spi.o
 .text.SPI_DMAReceiveCplt
                0x08007d6e       0x56 build_my/stm32f4xx_hal_spi.o
 .text.SPI_DMATransmitReceiveCplt
                0x08007dc4       0x5c build_my/stm32f4xx_hal_spi.o
 .text.Reset_Handler
                0x08007e20       0x50 build_my/startup_stm32f405xx.o
                0x08007e20                Reset_Handler
 .text.Default_Handler
                0x08007e70        0x2 build_my/startup_stm32f405xx.o
                0x08007e70                RTC_Alarm_IRQHandler
                0x08007e70                HASH_RNG_IRQHandler
                0x08007e70                EXTI2_IRQHandler
                0x08007e70                TIM8_CC_IRQHandler
                0x08007e70                TIM1_CC_IRQHandler
                0x08007e70                DMA2_Stream5_IRQHandler
                0x08007e70                DMA1_Stream5_IRQHandler
                0x08007e70                PVD_IRQHandler
                0x08007e70                SDIO_IRQHandler
                0x08007e70                TAMP_STAMP_IRQHandler
                0x08007e70                CAN2_RX1_IRQHandler
                0x08007e70                EXTI3_IRQHandler
                0x08007e70                TIM8_TRG_COM_TIM14_IRQHandler
                0x08007e70                TIM8_UP_TIM13_IRQHandler
                0x08007e70                I2C3_ER_IRQHandler
                0x08007e70                EXTI0_IRQHandler
                0x08007e70                I2C2_EV_IRQHandler
                0x08007e70                DMA1_Stream2_IRQHandler
                0x08007e70                CAN1_RX0_IRQHandler
                0x08007e70                FPU_IRQHandler
                0x08007e70                OTG_HS_WKUP_IRQHandler
                0x08007e70                CAN2_SCE_IRQHandler
                0x08007e70                TIM1_BRK_TIM9_IRQHandler
                0x08007e70                CAN2_RX0_IRQHandler
                0x08007e70                USART6_IRQHandler
                0x08007e70                USART3_IRQHandler
                0x08007e70                CAN1_RX1_IRQHandler
                0x08007e70                TIM4_IRQHandler
                0x08007e70                I2C1_EV_IRQHandler
                0x08007e70                DMA1_Stream6_IRQHandler
                0x08007e70                DMA1_Stream1_IRQHandler
                0x08007e70                UART4_IRQHandler
                0x08007e70                TIM3_IRQHandler
                0x08007e70                RCC_IRQHandler
                0x08007e70                TIM8_BRK_TIM12_IRQHandler
                0x08007e70                Default_Handler
                0x08007e70                EXTI15_10_IRQHandler
                0x08007e70                ADC_IRQHandler
                0x08007e70                CAN2_TX_IRQHandler
                0x08007e70                TIM5_IRQHandler
                0x08007e70                DMA2_Stream7_IRQHandler
                0x08007e70                I2C3_EV_IRQHandler
                0x08007e70                EXTI9_5_IRQHandler
                0x08007e70                RTC_WKUP_IRQHandler
                0x08007e70                SPI2_IRQHandler
                0x08007e70                OTG_HS_EP1_IN_IRQHandler
                0x08007e70                CAN1_TX_IRQHandler
                0x08007e70                FSMC_IRQHandler
                0x08007e70                OTG_HS_EP1_OUT_IRQHandler
                0x08007e70                WWDG_IRQHandler
                0x08007e70                TIM2_IRQHandler
                0x08007e70                OTG_FS_WKUP_IRQHandler
                0x08007e70                TIM1_TRG_COM_TIM11_IRQHandler
                0x08007e70                OTG_HS_IRQHandler
                0x08007e70                EXTI1_IRQHandler
                0x08007e70                USART2_IRQHandler
                0x08007e70                I2C2_ER_IRQHandler
                0x08007e70                DMA2_Stream1_IRQHandler
                0x08007e70                CAN1_SCE_IRQHandler
                0x08007e70                FLASH_IRQHandler
                0x08007e70                DMA2_Stream4_IRQHandler
                0x08007e70                USART1_IRQHandler
                0x08007e70                OTG_FS_IRQHandler
                0x08007e70                SPI3_IRQHandler
                0x08007e70                DMA1_Stream4_IRQHandler
                0x08007e70                I2C1_ER_IRQHandler
                0x08007e70                DMA2_Stream6_IRQHandler
                0x08007e70                DMA1_Stream3_IRQHandler
 .text.atof     0x08007e72        0x6 c:/arm_gcc/bin/../lib/gcc/arm-none-eabi/9.2.1/../../../../arm-none-eabi/lib/thumb/v7e-m+fp/hard\libc_nano.a(lib_a-atof.o)
                0x08007e72                atof
 .text.__libc_init_array
                0x08007e78       0x48 c:/arm_gcc/bin/../lib/gcc/arm-none-eabi/9.2.1/../../../../arm-none-eabi/lib/thumb/v7e-m+fp/hard\libc_nano.a(lib_a-init.o)
                0x08007e78                __libc_init_array
 .text.malloc   0x08007ec0       0x10 c:/arm_gcc/bin/../lib/gcc/arm-none-eabi/9.2.1/../../../../arm-none-eabi/lib/thumb/v7e-m+fp/hard\libc_nano.a(lib_a-malloc.o)
                0x08007ec0                malloc
 .text.free     0x08007ed0       0x10 c:/arm_gcc/bin/../lib/gcc/arm-none-eabi/9.2.1/../../../../arm-none-eabi/lib/thumb/v7e-m+fp/hard\libc_nano.a(lib_a-malloc.o)
                0x08007ed0                free
 .text.memcpy   0x08007ee0       0x1c c:/arm_gcc/bin/../lib/gcc/arm-none-eabi/9.2.1/../../../../arm-none-eabi/lib/thumb/v7e-m+fp/hard\libc_nano.a(lib_a-memcpy-stub.o)
                0x08007ee0                memcpy
 .text.memset   0x08007efc       0x10 c:/arm_gcc/bin/../lib/gcc/arm-none-eabi/9.2.1/../../../../arm-none-eabi/lib/thumb/v7e-m+fp/hard\libc_nano.a(lib_a-memset.o)
                0x08007efc                memset
 .text._free_r  0x08007f0c       0xa0 c:/arm_gcc/bin/../lib/gcc/arm-none-eabi/9.2.1/../../../../arm-none-eabi/lib/thumb/v7e-m+fp/hard\libc_nano.a(lib_a-nano-freer.o)
                0x08007f0c                _free_r
 .text._malloc_r
                0x08007fac       0xb4 c:/arm_gcc/bin/../lib/gcc/arm-none-eabi/9.2.1/../../../../arm-none-eabi/lib/thumb/v7e-m+fp/hard\libc_nano.a(lib_a-nano-mallocr.o)
                0x08007fac                _malloc_r
 .text.__cvt    0x08008060       0xc4 c:/arm_gcc/bin/../lib/gcc/arm-none-eabi/9.2.1/../../../../arm-none-eabi/lib/thumb/v7e-m+fp/hard\libc_nano.a(lib_a-nano-vfprintf_float.o)
                0x08008060                __cvt
 .text.__exponent
                0x08008124       0x7c c:/arm_gcc/bin/../lib/gcc/arm-none-eabi/9.2.1/../../../../arm-none-eabi/lib/thumb/v7e-m+fp/hard\libc_nano.a(lib_a-nano-vfprintf_float.o)
                0x08008124                __exponent
 .text._printf_float
                0x080081a0      0x46c c:/arm_gcc/bin/../lib/gcc/arm-none-eabi/9.2.1/../../../../arm-none-eabi/lib/thumb/v7e-m+fp/hard\libc_nano.a(lib_a-nano-vfprintf_float.o)
                0x080081a0                _printf_float
 .text._printf_common
                0x0800860c       0xda c:/arm_gcc/bin/../lib/gcc/arm-none-eabi/9.2.1/../../../../arm-none-eabi/lib/thumb/v7e-m+fp/hard\libc_nano.a(lib_a-nano-vfprintf_i.o)
                0x0800860c                _printf_common
 *fill*         0x080086e6        0x2 
 .text._printf_i
                0x080086e8      0x24c c:/arm_gcc/bin/../lib/gcc/arm-none-eabi/9.2.1/../../../../arm-none-eabi/lib/thumb/v7e-m+fp/hard\libc_nano.a(lib_a-nano-vfprintf_i.o)
                0x080086e8                _printf_i
 .text._sbrk_r  0x08008934       0x20 c:/arm_gcc/bin/../lib/gcc/arm-none-eabi/9.2.1/../../../../arm-none-eabi/lib/thumb/v7e-m+fp/hard\libc_nano.a(lib_a-sbrkr.o)
                0x08008934                _sbrk_r
 .text.sulp     0x08008954       0x38 c:/arm_gcc/bin/../lib/gcc/arm-none-eabi/9.2.1/../../../../arm-none-eabi/lib/thumb/v7e-m+fp/hard\libc_nano.a(lib_a-strtod.o)
 *fill*         0x0800898c        0x4 
 .text._strtod_l
                0x08008990      0xc14 c:/arm_gcc/bin/../lib/gcc/arm-none-eabi/9.2.1/../../../../arm-none-eabi/lib/thumb/v7e-m+fp/hard\libc_nano.a(lib_a-strtod.o)
                0x08008990                _strtod_l
 .text.strtod   0x080095a4       0x18 c:/arm_gcc/bin/../lib/gcc/arm-none-eabi/9.2.1/../../../../arm-none-eabi/lib/thumb/v7e-m+fp/hard\libc_nano.a(lib_a-strtod.o)
                0x080095a4                strtod
 .text._vsnprintf_r
                0x080095bc       0x58 c:/arm_gcc/bin/../lib/gcc/arm-none-eabi/9.2.1/../../../../arm-none-eabi/lib/thumb/v7e-m+fp/hard\libc_nano.a(lib_a-vsnprintf.o)
                0x080095bc                _vsniprintf_r
                0x080095bc                _vsnprintf_r
 .text.vsnprintf
                0x08009614       0x1c c:/arm_gcc/bin/../lib/gcc/arm-none-eabi/9.2.1/../../../../arm-none-eabi/lib/thumb/v7e-m+fp/hard\libc_nano.a(lib_a-vsnprintf.o)
                0x08009614                vsniprintf
                0x08009614                vsnprintf
 .text.quorem   0x08009630      0x116 c:/arm_gcc/bin/../lib/gcc/arm-none-eabi/9.2.1/../../../../arm-none-eabi/lib/thumb/v7e-m+fp/hard\libc_nano.a(lib_a-dtoa.o)
 *fill*         0x08009746        0x2 
 .text._dtoa_r  0x08009748      0xbbc c:/arm_gcc/bin/../lib/gcc/arm-none-eabi/9.2.1/../../../../arm-none-eabi/lib/thumb/v7e-m+fp/hard\libc_nano.a(lib_a-dtoa.o)
                0x08009748                _dtoa_r
 .text.rshift   0x0800a304       0xa4 c:/arm_gcc/bin/../lib/gcc/arm-none-eabi/9.2.1/../../../../arm-none-eabi/lib/thumb/v7e-m+fp/hard\libc_nano.a(lib_a-gdtoa-gethex.o)
 .text.__hexdig_fun
                0x0800a3a8       0x2a c:/arm_gcc/bin/../lib/gcc/arm-none-eabi/9.2.1/../../../../arm-none-eabi/lib/thumb/v7e-m+fp/hard\libc_nano.a(lib_a-gdtoa-gethex.o)
                0x0800a3a8                __hexdig_fun
 *fill*         0x0800a3d2        0x2 
 .text.__gethex
                0x0800a3d4      0x468 c:/arm_gcc/bin/../lib/gcc/arm-none-eabi/9.2.1/../../../../arm-none-eabi/lib/thumb/v7e-m+fp/hard\libc_nano.a(lib_a-gdtoa-gethex.o)
                0x0800a3d4                __gethex
 .text.L_shift  0x0800a83c       0x24 c:/arm_gcc/bin/../lib/gcc/arm-none-eabi/9.2.1/../../../../arm-none-eabi/lib/thumb/v7e-m+fp/hard\libc_nano.a(lib_a-gdtoa-hexnan.o)
 .text.__match  0x0800a860       0x28 c:/arm_gcc/bin/../lib/gcc/arm-none-eabi/9.2.1/../../../../arm-none-eabi/lib/thumb/v7e-m+fp/hard\libc_nano.a(lib_a-gdtoa-hexnan.o)
                0x0800a860                __match
 .text.__hexnan
                0x0800a888      0x138 c:/arm_gcc/bin/../lib/gcc/arm-none-eabi/9.2.1/../../../../arm-none-eabi/lib/thumb/v7e-m+fp/hard\libc_nano.a(lib_a-gdtoa-hexnan.o)
                0x0800a888                __hexnan
 .text._localeconv_r
                0x0800a9c0        0x8 c:/arm_gcc/bin/../lib/gcc/arm-none-eabi/9.2.1/../../../../arm-none-eabi/lib/thumb/v7e-m+fp/hard\libc_nano.a(lib_a-localeconv.o)
                0x0800a9c0                _localeconv_r
 .text.__ascii_mbtowc
                0x0800a9c8       0x24 c:/arm_gcc/bin/../lib/gcc/arm-none-eabi/9.2.1/../../../../arm-none-eabi/lib/thumb/v7e-m+fp/hard\libc_nano.a(lib_a-mbtowc_r.o)
                0x0800a9c8                __ascii_mbtowc
 .text.__malloc_lock
                0x0800a9ec        0xc c:/arm_gcc/bin/../lib/gcc/arm-none-eabi/9.2.1/../../../../arm-none-eabi/lib/thumb/v7e-m+fp/hard\libc_nano.a(lib_a-mlock.o)
                0x0800a9ec                __malloc_lock
 .text.__malloc_unlock
                0x0800a9f8        0xc c:/arm_gcc/bin/../lib/gcc/arm-none-eabi/9.2.1/../../../../arm-none-eabi/lib/thumb/v7e-m+fp/hard\libc_nano.a(lib_a-mlock.o)
                0x0800a9f8                __malloc_unlock
 .text._Balloc  0x0800aa04       0x68 c:/arm_gcc/bin/../lib/gcc/arm-none-eabi/9.2.1/../../../../arm-none-eabi/lib/thumb/v7e-m+fp/hard\libc_nano.a(lib_a-mprec.o)
                0x0800aa04                _Balloc
 .text._Bfree   0x0800aa6c       0x2e c:/arm_gcc/bin/../lib/gcc/arm-none-eabi/9.2.1/../../../../arm-none-eabi/lib/thumb/v7e-m+fp/hard\libc_nano.a(lib_a-mprec.o)
                0x0800aa6c                _Bfree
 .text.__multadd
                0x0800aa9a       0x7c c:/arm_gcc/bin/../lib/gcc/arm-none-eabi/9.2.1/../../../../arm-none-eabi/lib/thumb/v7e-m+fp/hard\libc_nano.a(lib_a-mprec.o)
                0x0800aa9a                __multadd
 .text.__s2b    0x0800ab16       0x7c c:/arm_gcc/bin/../lib/gcc/arm-none-eabi/9.2.1/../../../../arm-none-eabi/lib/thumb/v7e-m+fp/hard\libc_nano.a(lib_a-mprec.o)
                0x0800ab16                __s2b
 .text.__hi0bits
                0x0800ab92       0x40 c:/arm_gcc/bin/../lib/gcc/arm-none-eabi/9.2.1/../../../../arm-none-eabi/lib/thumb/v7e-m+fp/hard\libc_nano.a(lib_a-mprec.o)
                0x0800ab92                __hi0bits
 .text.__lo0bits
                0x0800abd2       0x60 c:/arm_gcc/bin/../lib/gcc/arm-none-eabi/9.2.1/../../../../arm-none-eabi/lib/thumb/v7e-m+fp/hard\libc_nano.a(lib_a-mprec.o)
                0x0800abd2                __lo0bits
 .text.__i2b    0x0800ac32       0x12 c:/arm_gcc/bin/../lib/gcc/arm-none-eabi/9.2.1/../../../../arm-none-eabi/lib/thumb/v7e-m+fp/hard\libc_nano.a(lib_a-mprec.o)
                0x0800ac32                __i2b
 .text.__multiply
                0x0800ac44      0x138 c:/arm_gcc/bin/../lib/gcc/arm-none-eabi/9.2.1/../../../../arm-none-eabi/lib/thumb/v7e-m+fp/hard\libc_nano.a(lib_a-mprec.o)
                0x0800ac44                __multiply
 .text.__pow5mult
                0x0800ad7c       0x9c c:/arm_gcc/bin/../lib/gcc/arm-none-eabi/9.2.1/../../../../arm-none-eabi/lib/thumb/v7e-m+fp/hard\libc_nano.a(lib_a-mprec.o)
                0x0800ad7c                __pow5mult
 .text.__lshift
                0x0800ae18       0xbe c:/arm_gcc/bin/../lib/gcc/arm-none-eabi/9.2.1/../../../../arm-none-eabi/lib/thumb/v7e-m+fp/hard\libc_nano.a(lib_a-mprec.o)
                0x0800ae18                __lshift
 .text.__mcmp   0x0800aed6       0x38 c:/arm_gcc/bin/../lib/gcc/arm-none-eabi/9.2.1/../../../../arm-none-eabi/lib/thumb/v7e-m+fp/hard\libc_nano.a(lib_a-mprec.o)
                0x0800aed6                __mcmp
 .text.__mdiff  0x0800af0e       0xec c:/arm_gcc/bin/../lib/gcc/arm-none-eabi/9.2.1/../../../../arm-none-eabi/lib/thumb/v7e-m+fp/hard\libc_nano.a(lib_a-mprec.o)
                0x0800af0e                __mdiff
 *fill*         0x0800affa        0x2 
 .text.__ulp    0x0800affc       0x58 c:/arm_gcc/bin/../lib/gcc/arm-none-eabi/9.2.1/../../../../arm-none-eabi/lib/thumb/v7e-m+fp/hard\libc_nano.a(lib_a-mprec.o)
                0x0800affc                __ulp
 .text.__b2d    0x0800b054       0xa0 c:/arm_gcc/bin/../lib/gcc/arm-none-eabi/9.2.1/../../../../arm-none-eabi/lib/thumb/v7e-m+fp/hard\libc_nano.a(lib_a-mprec.o)
                0x0800b054                __b2d
 .text.__d2b    0x0800b0f4       0xa0 c:/arm_gcc/bin/../lib/gcc/arm-none-eabi/9.2.1/../../../../arm-none-eabi/lib/thumb/v7e-m+fp/hard\libc_nano.a(lib_a-mprec.o)
                0x0800b0f4                __d2b
 .text.__ratio  0x0800b194       0x66 c:/arm_gcc/bin/../lib/gcc/arm-none-eabi/9.2.1/../../../../arm-none-eabi/lib/thumb/v7e-m+fp/hard\libc_nano.a(lib_a-mprec.o)
                0x0800b194                __ratio
 .text.__copybits
                0x0800b1fa       0x46 c:/arm_gcc/bin/../lib/gcc/arm-none-eabi/9.2.1/../../../../arm-none-eabi/lib/thumb/v7e-m+fp/hard\libc_nano.a(lib_a-mprec.o)
                0x0800b1fa                __copybits
 .text.__any_on
                0x0800b240       0x42 c:/arm_gcc/bin/../lib/gcc/arm-none-eabi/9.2.1/../../../../arm-none-eabi/lib/thumb/v7e-m+fp/hard\libc_nano.a(lib_a-mprec.o)
                0x0800b240                __any_on
 .text._calloc_r
                0x0800b282       0x1e c:/arm_gcc/bin/../lib/gcc/arm-none-eabi/9.2.1/../../../../arm-none-eabi/lib/thumb/v7e-m+fp/hard\libc_nano.a(lib_a-nano-callocr.o)
                0x0800b282                _calloc_r
 .text.__ssputs_r
                0x0800b2a0       0xb6 c:/arm_gcc/bin/../lib/gcc/arm-none-eabi/9.2.1/../../../../arm-none-eabi/lib/thumb/v7e-m+fp/hard\libc_nano.a(lib_a-nano-svfprintf.o)
                0x0800b2a0                __ssputs_r
 *fill*         0x0800b356        0x2 
 .text._svfprintf_r
                0x0800b358      0x200 c:/arm_gcc/bin/../lib/gcc/arm-none-eabi/9.2.1/../../../../arm-none-eabi/lib/thumb/v7e-m+fp/hard\libc_nano.a(lib_a-nano-svfprintf.o)
                0x0800b358                _svfiprintf_r
                0x0800b358                _svfprintf_r
 .text.nan      0x0800b558       0x10 c:/arm_gcc/bin/../lib/gcc/arm-none-eabi/9.2.1/../../../../arm-none-eabi/lib/thumb/v7e-m+fp/hard\libc_nano.a(lib_a-s_nan.o)
                0x0800b558                nan
 .text.strncmp  0x0800b568       0x24 c:/arm_gcc/bin/../lib/gcc/arm-none-eabi/9.2.1/../../../../arm-none-eabi/lib/thumb/v7e-m+fp/hard\libc_nano.a(lib_a-strncmp.o)
                0x0800b568                strncmp
 .text.__ascii_wctomb
                0x0800b58c       0x1a c:/arm_gcc/bin/../lib/gcc/arm-none-eabi/9.2.1/../../../../arm-none-eabi/lib/thumb/v7e-m+fp/hard\libc_nano.a(lib_a-wctomb_r.o)
                0x0800b58c                __ascii_wctomb
 .text.__retarget_lock_acquire_recursive
                0x0800b5a6        0x2 c:/arm_gcc/bin/../lib/gcc/arm-none-eabi/9.2.1/../../../../arm-none-eabi/lib/thumb/v7e-m+fp/hard\libc_nano.a(lib_a-lock.o)
                0x0800b5a6                __retarget_lock_acquire_recursive
 .text.__retarget_lock_release_recursive
                0x0800b5a8        0x2 c:/arm_gcc/bin/../lib/gcc/arm-none-eabi/9.2.1/../../../../arm-none-eabi/lib/thumb/v7e-m+fp/hard\libc_nano.a(lib_a-lock.o)
                0x0800b5a8                __retarget_lock_release_recursive
 .text.memmove  0x0800b5aa       0x34 c:/arm_gcc/bin/../lib/gcc/arm-none-eabi/9.2.1/../../../../arm-none-eabi/lib/thumb/v7e-m+fp/hard\libc_nano.a(lib_a-memmove.o)
                0x0800b5aa                memmove
 .text._realloc_r
                0x0800b5de       0x4c c:/arm_gcc/bin/../lib/gcc/arm-none-eabi/9.2.1/../../../../arm-none-eabi/lib/thumb/v7e-m+fp/hard\libc_nano.a(lib_a-nano-reallocr.o)
                0x0800b5de                _realloc_r
 .text._malloc_usable_size_r
                0x0800b62a       0x10 c:/arm_gcc/bin/../lib/gcc/arm-none-eabi/9.2.1/../../../../arm-none-eabi/lib/thumb/v7e-m+fp/hard\libc_nano.a(lib_a-nano-msizer.o)
                0x0800b62a                _malloc_usable_size_r
 *fill*         0x0800b63a        0x2 
 .text.atan2f   0x0800b63c        0x4 c:/arm_gcc/bin/../lib/gcc/arm-none-eabi/9.2.1/../../../../arm-none-eabi/lib/thumb/v7e-m+fp/hard\libm.a(lib_a-wf_atan2.o)
                0x0800b63c                atan2f
 .text.sqrtf    0x0800b640       0xb0 c:/arm_gcc/bin/../lib/gcc/arm-none-eabi/9.2.1/../../../../arm-none-eabi/lib/thumb/v7e-m+fp/hard\libm.a(lib_a-wf_sqrt.o)
                0x0800b640                sqrtf
 .text.__ieee754_atan2f
                0x0800b6f0      0x150 c:/arm_gcc/bin/../lib/gcc/arm-none-eabi/9.2.1/../../../../arm-none-eabi/lib/thumb/v7e-m+fp/hard\libm.a(lib_a-ef_atan2.o)
                0x0800b6f0                __ieee754_atan2f
 .text.__ieee754_sqrtf
                0x0800b840        0x8 c:/arm_gcc/bin/../lib/gcc/arm-none-eabi/9.2.1/../../../../arm-none-eabi/lib/thumb/v7e-m+fp/hard\libm.a(lib_a-ef_sqrt.o)
                0x0800b840                __ieee754_sqrtf
 .text.matherr  0x0800b848        0x4 c:/arm_gcc/bin/../lib/gcc/arm-none-eabi/9.2.1/../../../../arm-none-eabi/lib/thumb/v7e-m+fp/hard\libm.a(lib_a-s_matherr.o)
                0x0800b848                matherr
 .text.atanf    0x0800b84c      0x1b0 c:/arm_gcc/bin/../lib/gcc/arm-none-eabi/9.2.1/../../../../arm-none-eabi/lib/thumb/v7e-m+fp/hard\libm.a(lib_a-sf_atan.o)
                0x0800b84c                atanf
 .text.fabsf    0x0800b9fc       0x10 c:/arm_gcc/bin/../lib/gcc/arm-none-eabi/9.2.1/../../../../arm-none-eabi/lib/thumb/v7e-m+fp/hard\libm.a(lib_a-sf_fabs.o)
                0x0800b9fc                fabsf
 .text._sbrk    0x0800ba0c       0x1c c:/arm_gcc/bin/../lib/gcc/arm-none-eabi/9.2.1/../../../../arm-none-eabi/lib/thumb/v7e-m+fp/hard\libnosys.a(sbrk.o)
                0x0800ba0c                _sbrk
 .text.__errno  0x0800ba28        0xc c:/arm_gcc/bin/../lib/gcc/arm-none-eabi/9.2.1/../../../../arm-none-eabi/lib/thumb/v7e-m+fp/hard\libc_nano.a(lib_a-errno.o)
                0x0800ba28                __errno
 *(.glue_7)
 .glue_7        0x0800ba34        0x0 linker stubs
 *(.glue_7t)
 .glue_7t       0x0800ba34        0x0 linker stubs
 *(.eh_frame)
 .eh_frame      0x0800ba34        0x0 c:/arm_gcc/bin/../lib/gcc/arm-none-eabi/9.2.1/thumb/v7e-m+fp/hard/crtbegin.o
 *(.init)
 .init          0x0800ba34        0x4 c:/arm_gcc/bin/../lib/gcc/arm-none-eabi/9.2.1/thumb/v7e-m+fp/hard/crti.o
                0x0800ba34                _init
 .init          0x0800ba38        0x8 c:/arm_gcc/bin/../lib/gcc/arm-none-eabi/9.2.1/thumb/v7e-m+fp/hard/crtn.o
 *(.fini)
 .fini          0x0800ba40        0x4 c:/arm_gcc/bin/../lib/gcc/arm-none-eabi/9.2.1/thumb/v7e-m+fp/hard/crti.o
                0x0800ba40                _fini
 .fini          0x0800ba44        0x8 c:/arm_gcc/bin/../lib/gcc/arm-none-eabi/9.2.1/thumb/v7e-m+fp/hard/crtn.o
                0x0800ba4c                . = ALIGN (0x4)
                0x0800ba4c                _etext = .

.vfp11_veneer   0x0800ba4c        0x0
 .vfp11_veneer  0x0800ba4c        0x0 linker stubs

.v4_bx          0x0800ba4c        0x0
 .v4_bx         0x0800ba4c        0x0 linker stubs

.iplt           0x0800ba4c        0x0
 .iplt          0x0800ba4c        0x0 c:/arm_gcc/bin/../lib/gcc/arm-none-eabi/9.2.1/thumb/v7e-m+fp/hard/crtbegin.o

.rodata         0x0800ba50     0x10e8
                0x0800ba50                . = ALIGN (0x4)
 *(.rodata)
 *(.rodata*)
 .rodata.main.str1.4
                0x0800ba50       0x20 build_my/main.o
 .rodata.analize.str1.4
                0x0800ba70       0x11 build_my/command.o
 *fill*         0x0800ba81        0x3 
 .rodata.Print_Parameters.str1.4
                0x0800ba84       0x91 build_my/parameter.o
 *fill*         0x0800bb15        0x3 
 .rodata.Read_Parameters.str1.4
                0x0800bb18       0x2e build_my/parameter.o
 *fill*         0x0800bb46        0x2 
 .rodata.sinTable_f32
                0x0800bb48      0x804 build_my/arm_common_tables.o
                0x0800bb48                sinTable_f32
 .rodata.Current_ADC_Init.str1.4
                0x0800c34c       0x22 build_my/foc.o
 *fill*         0x0800c36e        0x2 
 .rodata.Test_Direction.str1.4
                0x0800c370       0x1a build_my/foc.o
 *fill*         0x0800c38a        0x2 
 .rodata.Measure_Res.str1.4
                0x0800c38c        0xb build_my/foc.o
 *fill*         0x0800c397        0x1 
 .rodata.Measure_Ind.str1.4
                0x0800c398      0x11f build_my/foc.o
 *fill*         0x0800c4b7        0x1 
 .rodata.Detect_Encoder.str1.4
                0x0800c4b8       0x87 build_my/foc.o
 *fill*         0x0800c53f        0x1 
 .rodata.wave.str1.4
                0x0800c540       0x10 build_my/cmd_fun.o
 .rodata.position.str1.4
                0x0800c550       0x10 build_my/cmd_fun.o
 .rodata.set_mode.str1.4
                0x0800c560       0x2d build_my/cmd_fun.o
 *fill*         0x0800c58d        0x3 
 .rodata.set_pos_off_here.str1.4
                0x0800c590       0x12 build_my/cmd_fun.o
 *fill*         0x0800c5a2        0x2 
 .rodata.test.str1.4
                0x0800c5a4       0x4b build_my/cmd_fun.o
 *fill*         0x0800c5ef        0x1 
 .rodata.set_val.str1.4
                0x0800c5f0       0x2d build_my/cmd_fun.o
                                 0x31 (size before relaxing)
 *fill*         0x0800c61d        0x3 
 .rodata.set_PID.str1.4
                0x0800c620       0x33 build_my/cmd_fun.o
 *fill*         0x0800c653        0x1 
 .rodata.set_to_u4.str1.4
                0x0800c654       0x35 build_my/cmd_fun.o
 *fill*         0x0800c689        0x3 
 .rodata.test_spi_com.str1.4
                0x0800c68c       0x17 build_my/cmd_fun.o
 *fill*         0x0800c6a3        0x1 
 .rodata.test_direction.str1.4
                0x0800c6a4       0x1b build_my/cmd_fun.o
 *fill*         0x0800c6bf        0x1 
 .rodata.detect.str1.4
                0x0800c6c0       0x1b build_my/cmd_fun.o
 *fill*         0x0800c6db        0x1 
 .rodata.start.str1.4
                0x0800c6dc        0xe build_my/cmd_fun.o
 *fill*         0x0800c6ea        0x2 
 .rodata.measure_res.str1.4
                0x0800c6ec       0x1b build_my/cmd_fun.o
 *fill*         0x0800c707        0x1 
 .rodata.measure_ind.str1.4
                0x0800c708       0x1b build_my/cmd_fun.o
 *fill*         0x0800c723        0x1 
 .rodata.wrtie_param.str1.4
                0x0800c724       0x11 build_my/cmd_fun.o
 *fill*         0x0800c735        0x3 
 .rodata.command_init.str1.4
                0x0800c738       0x89 build_my/cmd_fun.o
 *fill*         0x0800c7c1        0x3 
 .rodata.str1.4
                0x0800c7c4       0x54 build_my/cmd_fun.o
 .rodata.flagBitshiftOffset.9010
                0x0800c818        0x8 build_my/stm32f4xx_hal_dma.o
 .rodata.AHBPrescTable
                0x0800c820       0x10 build_my/system_stm32f4xx.o
                0x0800c820                AHBPrescTable
 .rodata.APBPrescTable
                0x0800c830        0x8 build_my/system_stm32f4xx.o
                0x0800c830                APBPrescTable
 .rodata._ctype_
                0x0800c838      0x101 c:/arm_gcc/bin/../lib/gcc/arm-none-eabi/9.2.1/../../../../arm-none-eabi/lib/thumb/v7e-m+fp/hard\libc_nano.a(lib_a-ctype_.o)
                0x0800c838                _ctype_
 .rodata._printf_float.str1.1
                0x0800c939       0x12 c:/arm_gcc/bin/../lib/gcc/arm-none-eabi/9.2.1/../../../../arm-none-eabi/lib/thumb/v7e-m+fp/hard\libc_nano.a(lib_a-nano-vfprintf_float.o)
 .rodata._printf_i.str1.1
                0x0800c94b       0x22 c:/arm_gcc/bin/../lib/gcc/arm-none-eabi/9.2.1/../../../../arm-none-eabi/lib/thumb/v7e-m+fp/hard\libc_nano.a(lib_a-nano-vfprintf_i.o)
 .rodata._strtod_l.str1.1
                0x0800c96d       0x22 c:/arm_gcc/bin/../lib/gcc/arm-none-eabi/9.2.1/../../../../arm-none-eabi/lib/thumb/v7e-m+fp/hard\libc_nano.a(lib_a-strtod.o)
                                  0xd (size before relaxing)
 *fill*         0x0800c96d        0x3 
 .rodata.fpi.7566
                0x0800c970       0x14 c:/arm_gcc/bin/../lib/gcc/arm-none-eabi/9.2.1/../../../../arm-none-eabi/lib/thumb/v7e-m+fp/hard\libc_nano.a(lib_a-strtod.o)
 .rodata.fpinan.7602
                0x0800c984       0x14 c:/arm_gcc/bin/../lib/gcc/arm-none-eabi/9.2.1/../../../../arm-none-eabi/lib/thumb/v7e-m+fp/hard\libc_nano.a(lib_a-strtod.o)
 .rodata.tinytens
                0x0800c998       0x28 c:/arm_gcc/bin/../lib/gcc/arm-none-eabi/9.2.1/../../../../arm-none-eabi/lib/thumb/v7e-m+fp/hard\libc_nano.a(lib_a-strtod.o)
 .rodata._dtoa_r.str1.1
                0x0800c9c0        0xd c:/arm_gcc/bin/../lib/gcc/arm-none-eabi/9.2.1/../../../../arm-none-eabi/lib/thumb/v7e-m+fp/hard\libc_nano.a(lib_a-dtoa.o)
                                  0xf (size before relaxing)
 .rodata.str1.1
                0x0800c9cd        0x2 c:/arm_gcc/bin/../lib/gcc/arm-none-eabi/9.2.1/../../../../arm-none-eabi/lib/thumb/v7e-m+fp/hard\libc_nano.a(lib_a-lnumeric.o)
                                  0x3 (size before relaxing)
 *fill*         0x0800c9cf        0x1 
 .rodata._C_numeric_locale
                0x0800c9d0        0xc c:/arm_gcc/bin/../lib/gcc/arm-none-eabi/9.2.1/../../../../arm-none-eabi/lib/thumb/v7e-m+fp/hard\libc_nano.a(lib_a-lnumeric.o)
                0x0800c9d0                _C_numeric_locale
 .rodata._setlocale_r.str1.1
                0x0800c9dc        0x8 c:/arm_gcc/bin/../lib/gcc/arm-none-eabi/9.2.1/../../../../arm-none-eabi/lib/thumb/v7e-m+fp/hard\libc_nano.a(lib_a-locale.o)
                                  0x9 (size before relaxing)
 .rodata.str1.1
                0x0800c9e4        0x2 c:/arm_gcc/bin/../lib/gcc/arm-none-eabi/9.2.1/../../../../arm-none-eabi/lib/thumb/v7e-m+fp/hard\libc_nano.a(lib_a-locale.o)
 *fill*         0x0800c9e4        0x4 
 .rodata.__mprec_bigtens
                0x0800c9e8       0x28 c:/arm_gcc/bin/../lib/gcc/arm-none-eabi/9.2.1/../../../../arm-none-eabi/lib/thumb/v7e-m+fp/hard\libc_nano.a(lib_a-mprec.o)
                0x0800c9e8                __mprec_bigtens
 .rodata.__mprec_tens
                0x0800ca10       0xc8 c:/arm_gcc/bin/../lib/gcc/arm-none-eabi/9.2.1/../../../../arm-none-eabi/lib/thumb/v7e-m+fp/hard\libc_nano.a(lib_a-mprec.o)
                0x0800ca10                __mprec_tens
 .rodata.p05.7490
                0x0800cad8        0xc c:/arm_gcc/bin/../lib/gcc/arm-none-eabi/9.2.1/../../../../arm-none-eabi/lib/thumb/v7e-m+fp/hard\libc_nano.a(lib_a-mprec.o)
 .rodata._svfprintf_r.str1.1
                0x0800cae4       0x11 c:/arm_gcc/bin/../lib/gcc/arm-none-eabi/9.2.1/../../../../arm-none-eabi/lib/thumb/v7e-m+fp/hard\libc_nano.a(lib_a-nano-svfprintf.o)
 *fill*         0x0800caf5        0x3 
 .rodata.sqrtf.str1.4
                0x0800caf8        0x6 c:/arm_gcc/bin/../lib/gcc/arm-none-eabi/9.2.1/../../../../arm-none-eabi/lib/thumb/v7e-m+fp/hard\libm.a(lib_a-wf_sqrt.o)
 *fill*         0x0800cafe        0x2 
 .rodata.CSWTCH.8
                0x0800cb00        0xc c:/arm_gcc/bin/../lib/gcc/arm-none-eabi/9.2.1/../../../../arm-none-eabi/lib/thumb/v7e-m+fp/hard\libm.a(lib_a-ef_atan2.o)
 .rodata.CSWTCH.9
                0x0800cb0c        0xc c:/arm_gcc/bin/../lib/gcc/arm-none-eabi/9.2.1/../../../../arm-none-eabi/lib/thumb/v7e-m+fp/hard\libm.a(lib_a-ef_atan2.o)
 .rodata.atanhi
                0x0800cb18       0x10 c:/arm_gcc/bin/../lib/gcc/arm-none-eabi/9.2.1/../../../../arm-none-eabi/lib/thumb/v7e-m+fp/hard\libm.a(lib_a-sf_atan.o)
 .rodata.atanlo
                0x0800cb28       0x10 c:/arm_gcc/bin/../lib/gcc/arm-none-eabi/9.2.1/../../../../arm-none-eabi/lib/thumb/v7e-m+fp/hard\libm.a(lib_a-sf_atan.o)
                0x0800cb38                . = ALIGN (0x4)

.ARM.extab
 *(.ARM.extab* .gnu.linkonce.armextab.*)

.ARM            0x0800cb38        0x8
                0x0800cb38                __exidx_start = .
 *(.ARM.exidx*)
 .ARM.exidx     0x0800cb38        0x8 c:/arm_gcc/bin/../lib/gcc/arm-none-eabi/9.2.1/thumb/v7e-m+fp/hard\libgcc.a(_udivmoddi4.o)
                0x0800cb40                __exidx_end = .

.rel.dyn        0x0800cb40        0x0
 .rel.iplt      0x0800cb40        0x0 c:/arm_gcc/bin/../lib/gcc/arm-none-eabi/9.2.1/thumb/v7e-m+fp/hard/crtbegin.o

.preinit_array  0x0800cb40        0x0
                0x0800cb40                PROVIDE (__preinit_array_start = .)
 *(.preinit_array*)
                0x0800cb40                PROVIDE (__preinit_array_end = .)

.init_array     0x0800cb40        0x4
                0x0800cb40                PROVIDE (__init_array_start = .)
 *(SORT_BY_NAME(.init_array.*))
 *(.init_array*)
 .init_array    0x0800cb40        0x4 c:/arm_gcc/bin/../lib/gcc/arm-none-eabi/9.2.1/thumb/v7e-m+fp/hard/crtbegin.o
                0x0800cb44                PROVIDE (__init_array_end = .)

.fini_array     0x0800cb44        0x4
                [!provide]                PROVIDE (__fini_array_start = .)
 *(SORT_BY_NAME(.fini_array.*))
 *(.fini_array*)
 .fini_array    0x0800cb44        0x4 c:/arm_gcc/bin/../lib/gcc/arm-none-eabi/9.2.1/thumb/v7e-m+fp/hard/crtbegin.o
                [!provide]                PROVIDE (__fini_array_end = .)
                0x0800cb48                _sidata = LOADADDR (.data)

.data           0x20000000      0x484 load address 0x0800cb48
                0x20000000                . = ALIGN (0x4)
                0x20000000                _sdata = .
 *(.data)
 *(.data*)
 .data.Rx_Mode  0x20000000        0x1 build_my/uart_ext.o
 *fill*         0x20000001        0x3 
 .data.s        0x20000004       0x16 build_my/uart_ext.o
                0x20000004                s
 .data.Wave_ID  0x2000001a        0x1 build_my/debug_utils.o
                0x2000001a                Wave_ID
 *fill*         0x2000001b        0x1 
 .data.wg1      0x2000001c       0x14 build_my/utils.o
                0x2000001c                wg1
 .data.wg2      0x20000030       0x14 build_my/utils.o
                0x20000030                wg2
 .data.wg3      0x20000044       0x14 build_my/utils.o
                0x20000044                wg3
 .data.U1       0x20000058       0x10 build_my/SVPWM.o
                0x20000058                U1
 .data.U2       0x20000068       0x10 build_my/SVPWM.o
                0x20000068                U2
 .data.U3       0x20000078       0x10 build_my/SVPWM.o
                0x20000078                U3
 .data.U4       0x20000088       0x10 build_my/SVPWM.o
                0x20000088                U4
 .data.U5       0x20000098       0x10 build_my/SVPWM.o
                0x20000098                U5
 .data.U6       0x200000a8       0x10 build_my/SVPWM.o
                0x200000a8                U6
 .data.U7       0x200000b8       0x10 build_my/SVPWM.o
                0x200000b8                U7
 .data.Base_Duty
                0x200000c8        0x4 build_my/foc.o
                0x200000c8                Base_Duty
 .data.Base_Speed
                0x200000cc        0x4 build_my/foc.o
                0x200000cc                Base_Speed
 .data.Board_Mode
                0x200000d0        0x1 build_my/foc.o
                0x200000d0                Board_Mode
 *fill*         0x200000d1        0x3 
 .data.Id_PID   0x200000d4       0x24 build_my/foc.o
                0x200000d4                Id_PID
 .data.Iq_PID   0x200000f8       0x24 build_my/foc.o
                0x200000f8                Iq_PID
 .data.Iq_Set   0x2000011c        0x4 build_my/foc.o
                0x2000011c                Iq_Set
 .data.Last_Mode
                0x20000120        0x1 build_my/foc.o
                0x20000120                Last_Mode
 *fill*         0x20000121        0x3 
 .data.Motor    0x20000124       0x14 build_my/foc.o
                0x20000124                Motor
 .data.Phi      0x20000138        0x4 build_my/foc.o
                0x20000138                Phi
 .data.Position_Offset
                0x2000013c        0x4 build_my/foc.o
                0x2000013c                Position_Offset
 .data.Position_PID
                0x20000140       0x24 build_my/foc.o
                0x20000140                Position_PID
 .data.Special_Id_PID
                0x20000164       0x24 build_my/foc.o
                0x20000164                Special_Id_PID
 .data.Speed_Attitude
                0x20000188        0x4 build_my/foc.o
                0x20000188                Speed_Attitude
 .data.Speed_PID
                0x2000018c       0x24 build_my/foc.o
                0x2000018c                Speed_PID
 .data.Speed_Set
                0x200001b0        0x4 build_my/foc.o
                0x200001b0                Speed_Set
 .data.SPI_Com_Val_List
                0x200001b4       0x84 build_my/foc_spi_com.o
                0x200001b4                SPI_Com_Val_List
 .data.SPI_Slave_Test
                0x20000238        0x1 build_my/foc_spi_com.o
                0x20000238                SPI_Slave_Test
 *fill*         0x20000239        0x1 
 .data.SPI_Slave_Test2
                0x2000023a        0x2 build_my/foc_spi_com.o
                0x2000023a                SPI_Slave_Test2
 .data.SPI_Slave_Test3
                0x2000023c        0x4 build_my/foc_spi_com.o
                0x2000023c                SPI_Slave_Test3
 .data.Var_List
                0x20000240       0x58 build_my/cmd_fun.o
                0x20000240                Var_List
 .data.test_s   0x20000298        0x4 build_my/cmd_fun.o
                0x20000298                test_s
 .data.test_s2  0x2000029c        0x4 build_my/cmd_fun.o
                0x2000029c                test_s2
 .data.uwTickFreq
                0x200002a0        0x1 build_my/stm32f4xx_hal.o
                0x200002a0                uwTickFreq
 *fill*         0x200002a1        0x3 
 .data.uwTickPrio
                0x200002a4        0x4 build_my/stm32f4xx_hal.o
                0x200002a4                uwTickPrio
 .data.SystemCoreClock
                0x200002a8        0x4 build_my/system_stm32f4xx.o
                0x200002a8                SystemCoreClock
 .data._impure_ptr
                0x200002ac        0x4 c:/arm_gcc/bin/../lib/gcc/arm-none-eabi/9.2.1/../../../../arm-none-eabi/lib/thumb/v7e-m+fp/hard\libc_nano.a(lib_a-impure.o)
                0x200002ac                _impure_ptr
 .data.impure_data
                0x200002b0       0x60 c:/arm_gcc/bin/../lib/gcc/arm-none-eabi/9.2.1/../../../../arm-none-eabi/lib/thumb/v7e-m+fp/hard\libc_nano.a(lib_a-impure.o)
 .data.numempty
                0x20000310        0x2 c:/arm_gcc/bin/../lib/gcc/arm-none-eabi/9.2.1/../../../../arm-none-eabi/lib/thumb/v7e-m+fp/hard\libc_nano.a(lib_a-lnumeric.o)
 *fill*         0x20000312        0x2 
 .data.__global_locale
                0x20000314      0x16c c:/arm_gcc/bin/../lib/gcc/arm-none-eabi/9.2.1/../../../../arm-none-eabi/lib/thumb/v7e-m+fp/hard\libc_nano.a(lib_a-locale.o)
                0x20000314                __global_locale
 .data.__fdlib_version
                0x20000480        0x1 c:/arm_gcc/bin/../lib/gcc/arm-none-eabi/9.2.1/../../../../arm-none-eabi/lib/thumb/v7e-m+fp/hard\libm.a(lib_a-s_lib_ver.o)
                0x20000480                __fdlib_version
                0x20000484                . = ALIGN (0x4)
 *fill*         0x20000481        0x3 
                0x20000484                _edata = .
                0x0800cfcc                _siccmram = LOADADDR (.ccmram)

.igot.plt       0x20000484        0x0 load address 0x0800cfcc
 .igot.plt      0x20000484        0x0 c:/arm_gcc/bin/../lib/gcc/arm-none-eabi/9.2.1/thumb/v7e-m+fp/hard/crtbegin.o

.ccmram         0x10000000        0x0 load address 0x0800cfcc
                0x10000000                . = ALIGN (0x4)
                0x10000000                _sccmram = .
 *(.ccmram)
 *(.ccmram*)
                0x10000000                . = ALIGN (0x4)
                0x10000000                _eccmram = .
                0x10000000                . = ALIGN (0x4)

.bss            0x20000484      0x810
                0x20000484                _sbss = .
                0x20000484                __bss_start__ = _sbss
 *(.bss)
 .bss           0x20000484       0x1c c:/arm_gcc/bin/../lib/gcc/arm-none-eabi/9.2.1/thumb/v7e-m+fp/hard/crtbegin.o
 *(.bss*)
 .bss.Init_OK   0x200004a0        0x1 build_my/main.o
                0x200004a0                Init_OK
 .bss.Tx_Mode   0x200004a1        0x1 build_my/uart_ext.o
 *fill*         0x200004a2        0x2 
 .bss.buffer_rx_count
                0x200004a4        0x4 build_my/uart_ext.o
                0x200004a4                buffer_rx_count
 .bss.debug_uart
                0x200004a8        0x4 build_my/uart_ext.o
 .bss.CSN_PIN   0x200004ac        0x2 build_my/as5047.o
 *fill*         0x200004ae        0x2 
 .bss.CSN_PORT  0x200004b0        0x4 build_my/as5047.o
 .bss.OK.9591   0x200004b4        0x1 build_my/as5047.o
 *fill*         0x200004b5        0x3 
 .bss.SPI_Read_Write
                0x200004b8        0x4 build_my/as5047.o
 .bss.result.9624
                0x200004bc        0x2 build_my/as5047.o
 .bss.Wave_Flag
                0x200004be        0x1 build_my/debug_utils.o
                0x200004be                Wave_Flag
 .bss.Mode      0x200004bf        0x1 build_my/spi_slave.o
 .bss.Now_Operate_Reg_Index
                0x200004c0        0x1 build_my/spi_slave.o
 *fill*         0x200004c1        0x1 
 .bss.Reg_List_Length
                0x200004c2        0x2 build_my/spi_slave.o
 .bss.Rx_Buffer
                0x200004c4       0x1e build_my/spi_slave.o
 *fill*         0x200004e2        0x2 
 .bss.SPI_Use   0x200004e4        0x4 build_my/spi_slave.o
 .bss.Status    0x200004e8        0x1 build_my/spi_slave.o
 *fill*         0x200004e9        0x3 
 .bss.CCR_Dutys.12031
                0x200004ec        0xc build_my/SVPWM.o
 .bss.U0        0x200004f8       0x10 build_my/SVPWM.o
                0x200004f8                U0
 .bss.Duty_Amp  0x20000508        0x4 build_my/foc.o
                0x20000508                Duty_Amp
 .bss.FOC_Flag  0x2000050c        0x1 build_my/foc.o
                0x2000050c                FOC_Flag
 *fill*         0x2000050d        0x3 
 .bss.Id_Set    0x20000510        0x4 build_my/foc.o
                0x20000510                Id_Set
 .bss.Measure_Ind_Flag
                0x20000514        0x1 build_my/foc.o
                0x20000514                Measure_Ind_Flag
 .bss.Measure_Res_Flag
                0x20000515        0x1 build_my/foc.o
                0x20000515                Measure_Res_Flag
 *fill*         0x20000516        0x2 
 .bss.current   0x20000518        0x8 build_my/foc.o
                0x20000518                current
 .bss.current_adc_offset
                0x20000520        0x4 build_my/foc.o
                0x20000520                current_adc_offset
 .bss.current_adc_value
                0x20000524        0x6 build_my/foc.o
                0x20000524                current_adc_value
 *fill*         0x2000052a        0x2 
 .bss.current_control_cnt.13409
                0x2000052c        0x4 build_my/foc.o
 .bss.input_voltage
                0x20000530        0x4 build_my/foc.o
                0x20000530                input_voltage
 .bss.last_position_phase.13491
                0x20000534        0x4 build_my/foc.o
 .bss.__malloc_free_list
                0x20000538        0x4 c:/arm_gcc/bin/../lib/gcc/arm-none-eabi/9.2.1/../../../../arm-none-eabi/lib/thumb/v7e-m+fp/hard\libc_nano.a(lib_a-nano-mallocr.o)
                0x20000538                __malloc_free_list
 .bss.__malloc_sbrk_start
                0x2000053c        0x4 c:/arm_gcc/bin/../lib/gcc/arm-none-eabi/9.2.1/../../../../arm-none-eabi/lib/thumb/v7e-m+fp/hard\libc_nano.a(lib_a-nano-mallocr.o)
                0x2000053c                __malloc_sbrk_start
 .bss.heap_end.5507
                0x20000540        0x4 c:/arm_gcc/bin/../lib/gcc/arm-none-eabi/9.2.1/../../../../arm-none-eabi/lib/thumb/v7e-m+fp/hard\libnosys.a(sbrk.o)
 *(COMMON)
 COMMON         0x20000544       0x86 build_my/uart_ext.o
                0x20000544                buffer_rx
                0x20000562                buffer_rx_OK
                0x20000564                uart_buffer
                0x200005c9                buffer_rx_temp
 *fill*         0x200005ca        0x2 
 COMMON         0x200005cc      0x194 build_my/command.o
                0x200005cc                CMD
 COMMON         0x20000760        0x6 build_my/as5047.o
                0x20000760                SPI_USE
                0x20000764                AS_5047_Err
 *fill*         0x20000766        0x2 
 COMMON         0x20000768       0x3c build_my/foc.o
                0x20000768                Speed
                0x2000076c                Position
                0x20000770                Position_Degree_Set
                0x20000774                ibeta
                0x20000778                iq
                0x2000077c                id
                0x20000780                ialpha
                0x20000784                Measure_Sample
                0x2000079c                Position_Phase_Degree
                0x200007a0                Position_Degree
 COMMON         0x200007a4       0x14 build_my/dac.o
                0x200007a4                hdac
 COMMON         0x200007b8      0x138 build_my/adc.o
                0x200007b8                hadc2
                0x20000800                hadc1
                0x20000848                hadc3
                0x20000890                hdma_adc1
 COMMON         0x200008f0      0x100 build_my/tim.o
                0x200008f0                htim8
                0x20000930                htim6
                0x20000970                htim1
                0x200009b0                htim7
 COMMON         0x200009f0      0x100 build_my/usart.o
                0x200009f0                huart5
                0x20000a30                hdma_uart5_rx
                0x20000a90                hdma_uart5_tx
 COMMON         0x20000af0       0x20 build_my/stm32f4xx_hal_flash.o
                0x20000af0                pFlash
 COMMON         0x20000b10        0x4 build_my/stm32f4xx_hal.o
                0x20000b10                uwTick
 COMMON         0x20000b14      0x170 build_my/spi.o
                0x20000b14                hspi3
                0x20000b6c                hspi1
                0x20000bc4                hdma_spi1_rx
                0x20000c24                hdma_spi1_tx
 COMMON         0x20000c84        0x4 c:/arm_gcc/bin/../lib/gcc/arm-none-eabi/9.2.1/../../../../arm-none-eabi/lib/thumb/v7e-m+fp/hard\libc_nano.a(lib_a-reent.o)
                0x20000c84                errno
 COMMON         0x20000c88        0x9 c:/arm_gcc/bin/../lib/gcc/arm-none-eabi/9.2.1/../../../../arm-none-eabi/lib/thumb/v7e-m+fp/hard\libc_nano.a(lib_a-lock.o)
                0x20000c88                __lock___atexit_recursive_mutex
                0x20000c89                __lock___arc4random_mutex
                0x20000c8a                __lock___env_recursive_mutex
                0x20000c8b                __lock___sinit_recursive_mutex
                0x20000c8c                __lock___malloc_recursive_mutex
                0x20000c8d                __lock___at_quick_exit_mutex
                0x20000c8e                __lock___dd_hash_mutex
                0x20000c8f                __lock___tz_mutex
                0x20000c90                __lock___sfp_recursive_mutex
                0x20000c94                . = ALIGN (0x4)
 *fill*         0x20000c91        0x3 
                0x20000c94                _ebss = .
                0x20000c94                __bss_end__ = _ebss

._user_heap_stack
                0x20000c94      0x604
                0x20000c98                . = ALIGN (0x8)
 *fill*         0x20000c94        0x4 
                0x20000c98                PROVIDE (end = .)
                [!provide]                PROVIDE (_end = .)
                0x20000e98                . = (. + _Min_Heap_Size)
 *fill*         0x20000c98      0x200 
                0x20001298                . = (. + _Min_Stack_Size)
 *fill*         0x20000e98      0x400 
                0x20001298                . = ALIGN (0x8)

/DISCARD/
 libc.a(*)
 libm.a(*)
 libgcc.a(*)

.ARM.attributes
                0x00000000       0x30
 *(.ARM.attributes)
 .ARM.attributes
                0x00000000       0x1e c:/arm_gcc/bin/../lib/gcc/arm-none-eabi/9.2.1/thumb/v7e-m+fp/hard/crti.o
 .ARM.attributes
                0x0000001e       0x34 c:/arm_gcc/bin/../lib/gcc/arm-none-eabi/9.2.1/thumb/v7e-m+fp/hard/crtbegin.o
 .ARM.attributes
                0x00000052       0x34 build_my/main.o
 .ARM.attributes
                0x00000086       0x34 build_my/uart_ext.o
 .ARM.attributes
                0x000000ba       0x34 build_my/command.o
 .ARM.attributes
                0x000000ee       0x34 build_my/as5047.o
 .ARM.attributes
                0x00000122       0x34 build_my/pid.o
 .ARM.attributes
                0x00000156       0x34 build_my/debug_utils.o
 .ARM.attributes
                0x0000018a       0x34 build_my/spi_slave.o
 .ARM.attributes
                0x000001be       0x39 build_my/utils.o
 .ARM.attributes
                0x000001f7       0x34 build_my/gpio.o
 .ARM.attributes
                0x0000022b       0x34 build_my/SVPWM.o
 .ARM.attributes
                0x0000025f       0x34 build_my/parameter.o
 .ARM.attributes
                0x00000293       0x34 build_my/arm_sin_cos_f32.o
 .ARM.attributes
                0x000002c7       0x34 build_my/arm_cos_f32.o
 .ARM.attributes
                0x000002fb       0x39 build_my/arm_common_tables.o
 .ARM.attributes
                0x00000334       0x34 build_my/foc.o
 .ARM.attributes
                0x00000368       0x34 build_my/foc_spi_com.o
 .ARM.attributes
                0x0000039c       0x34 build_my/cmd_fun.o
 .ARM.attributes
                0x000003d0       0x34 build_my/dac.o
 .ARM.attributes
                0x00000404       0x34 build_my/adc.o
 .ARM.attributes
                0x00000438       0x34 build_my/tim.o
 .ARM.attributes
                0x0000046c       0x34 build_my/usart.o
 .ARM.attributes
                0x000004a0       0x34 build_my/stm32f4xx_it.o
 .ARM.attributes
                0x000004d4       0x34 build_my/stm32f4xx_hal_msp.o
 .ARM.attributes
                0x00000508       0x34 build_my/stm32f4xx_hal_adc.o
 .ARM.attributes
                0x0000053c       0x34 build_my/stm32f4xx_hal_dac.o
 .ARM.attributes
                0x00000570       0x34 build_my/stm32f4xx_hal_adc_ex.o
 .ARM.attributes
                0x000005a4       0x34 build_my/stm32f4xx_hal_rcc.o
 .ARM.attributes
                0x000005d8       0x34 build_my/stm32f4xx_hal_flash.o
 .ARM.attributes
                0x0000060c       0x34 build_my/stm32f4xx_hal_flash_ex.o
 .ARM.attributes
                0x00000640       0x34 build_my/stm32f4xx_hal_gpio.o
 .ARM.attributes
                0x00000674       0x34 build_my/stm32f4xx_hal_dma.o
 .ARM.attributes
                0x000006a8       0x34 build_my/stm32f4xx_hal_cortex.o
 .ARM.attributes
                0x000006dc       0x34 build_my/stm32f4xx_hal.o
 .ARM.attributes
                0x00000710       0x34 build_my/stm32f4xx_hal_tim.o
 .ARM.attributes
                0x00000744       0x34 build_my/stm32f4xx_hal_tim_ex.o
 .ARM.attributes
                0x00000778       0x34 build_my/stm32f4xx_hal_uart.o
 .ARM.attributes
                0x000007ac       0x34 build_my/system_stm32f4xx.o
 .ARM.attributes
                0x000007e0       0x34 build_my/dma.o
 .ARM.attributes
                0x00000814       0x34 build_my/spi.o
 .ARM.attributes
                0x00000848       0x34 build_my/stm32f4xx_hal_spi.o
 .ARM.attributes
                0x0000087c       0x21 build_my/startup_stm32f405xx.o
 .ARM.attributes
                0x0000089d       0x34 c:/arm_gcc/bin/../lib/gcc/arm-none-eabi/9.2.1/../../../../arm-none-eabi/lib/thumb/v7e-m+fp/hard\libc_nano.a(lib_a-atof.o)
 .ARM.attributes
                0x000008d1       0x32 c:/arm_gcc/bin/../lib/gcc/arm-none-eabi/9.2.1/../../../../arm-none-eabi/lib/thumb/v7e-m+fp/hard\libc_nano.a(lib_a-ctype_.o)
 .ARM.attributes
                0x00000903       0x32 c:/arm_gcc/bin/../lib/gcc/arm-none-eabi/9.2.1/../../../../arm-none-eabi/lib/thumb/v7e-m+fp/hard\libc_nano.a(lib_a-impure.o)
 .ARM.attributes
                0x00000935       0x34 c:/arm_gcc/bin/../lib/gcc/arm-none-eabi/9.2.1/../../../../arm-none-eabi/lib/thumb/v7e-m+fp/hard\libc_nano.a(lib_a-init.o)
 .ARM.attributes
                0x00000969       0x34 c:/arm_gcc/bin/../lib/gcc/arm-none-eabi/9.2.1/../../../../arm-none-eabi/lib/thumb/v7e-m+fp/hard\libc_nano.a(lib_a-malloc.o)
 .ARM.attributes
                0x0000099d       0x34 c:/arm_gcc/bin/../lib/gcc/arm-none-eabi/9.2.1/../../../../arm-none-eabi/lib/thumb/v7e-m+fp/hard\libc_nano.a(lib_a-memcpy-stub.o)
 .ARM.attributes
                0x000009d1       0x34 c:/arm_gcc/bin/../lib/gcc/arm-none-eabi/9.2.1/../../../../arm-none-eabi/lib/thumb/v7e-m+fp/hard\libc_nano.a(lib_a-memset.o)
 .ARM.attributes
                0x00000a05       0x34 c:/arm_gcc/bin/../lib/gcc/arm-none-eabi/9.2.1/../../../../arm-none-eabi/lib/thumb/v7e-m+fp/hard\libc_nano.a(lib_a-nano-freer.o)
 .ARM.attributes
                0x00000a39       0x34 c:/arm_gcc/bin/../lib/gcc/arm-none-eabi/9.2.1/../../../../arm-none-eabi/lib/thumb/v7e-m+fp/hard\libc_nano.a(lib_a-nano-mallocr.o)
 .ARM.attributes
                0x00000a6d       0x34 c:/arm_gcc/bin/../lib/gcc/arm-none-eabi/9.2.1/../../../../arm-none-eabi/lib/thumb/v7e-m+fp/hard\libc_nano.a(lib_a-nano-vfprintf_float.o)
 .ARM.attributes
                0x00000aa1       0x34 c:/arm_gcc/bin/../lib/gcc/arm-none-eabi/9.2.1/../../../../arm-none-eabi/lib/thumb/v7e-m+fp/hard\libc_nano.a(lib_a-nano-vfprintf_i.o)
 .ARM.attributes
                0x00000ad5       0x34 c:/arm_gcc/bin/../lib/gcc/arm-none-eabi/9.2.1/../../../../arm-none-eabi/lib/thumb/v7e-m+fp/hard\libc_nano.a(lib_a-sbrkr.o)
 .ARM.attributes
                0x00000b09       0x17 c:/arm_gcc/bin/../lib/gcc/arm-none-eabi/9.2.1/../../../../arm-none-eabi/lib/thumb/v7e-m+fp/hard\libc_nano.a(lib_a-strlen.o)
 .ARM.attributes
                0x00000b20       0x34 c:/arm_gcc/bin/../lib/gcc/arm-none-eabi/9.2.1/../../../../arm-none-eabi/lib/thumb/v7e-m+fp/hard\libc_nano.a(lib_a-strtod.o)
 .ARM.attributes
                0x00000b54       0x34 c:/arm_gcc/bin/../lib/gcc/arm-none-eabi/9.2.1/../../../../arm-none-eabi/lib/thumb/v7e-m+fp/hard\libc_nano.a(lib_a-vsnprintf.o)
 .ARM.attributes
                0x00000b88       0x34 c:/arm_gcc/bin/../lib/gcc/arm-none-eabi/9.2.1/../../../../arm-none-eabi/lib/thumb/v7e-m+fp/hard\libc_nano.a(lib_a-dtoa.o)
 .ARM.attributes
                0x00000bbc       0x34 c:/arm_gcc/bin/../lib/gcc/arm-none-eabi/9.2.1/../../../../arm-none-eabi/lib/thumb/v7e-m+fp/hard\libc_nano.a(lib_a-gdtoa-gethex.o)
 .ARM.attributes
                0x00000bf0       0x34 c:/arm_gcc/bin/../lib/gcc/arm-none-eabi/9.2.1/../../../../arm-none-eabi/lib/thumb/v7e-m+fp/hard\libc_nano.a(lib_a-gdtoa-hexnan.o)
 .ARM.attributes
                0x00000c24       0x34 c:/arm_gcc/bin/../lib/gcc/arm-none-eabi/9.2.1/../../../../arm-none-eabi/lib/thumb/v7e-m+fp/hard\libc_nano.a(lib_a-lnumeric.o)
 .ARM.attributes
                0x00000c58       0x34 c:/arm_gcc/bin/../lib/gcc/arm-none-eabi/9.2.1/../../../../arm-none-eabi/lib/thumb/v7e-m+fp/hard\libc_nano.a(lib_a-locale.o)
 .ARM.attributes
                0x00000c8c       0x34 c:/arm_gcc/bin/../lib/gcc/arm-none-eabi/9.2.1/../../../../arm-none-eabi/lib/thumb/v7e-m+fp/hard\libc_nano.a(lib_a-localeconv.o)
 .ARM.attributes
                0x00000cc0       0x34 c:/arm_gcc/bin/../lib/gcc/arm-none-eabi/9.2.1/../../../../arm-none-eabi/lib/thumb/v7e-m+fp/hard\libc_nano.a(lib_a-mbtowc_r.o)
 .ARM.attributes
                0x00000cf4       0x1c c:/arm_gcc/bin/../lib/gcc/arm-none-eabi/9.2.1/../../../../arm-none-eabi/lib/thumb/v7e-m+fp/hard\libc_nano.a(lib_a-memchr.o)
 .ARM.attributes
                0x00000d10       0x34 c:/arm_gcc/bin/../lib/gcc/arm-none-eabi/9.2.1/../../../../arm-none-eabi/lib/thumb/v7e-m+fp/hard\libc_nano.a(lib_a-mlock.o)
 .ARM.attributes
                0x00000d44       0x34 c:/arm_gcc/bin/../lib/gcc/arm-none-eabi/9.2.1/../../../../arm-none-eabi/lib/thumb/v7e-m+fp/hard\libc_nano.a(lib_a-mprec.o)
 .ARM.attributes
                0x00000d78       0x34 c:/arm_gcc/bin/../lib/gcc/arm-none-eabi/9.2.1/../../../../arm-none-eabi/lib/thumb/v7e-m+fp/hard\libc_nano.a(lib_a-nano-callocr.o)
 .ARM.attributes
                0x00000dac       0x34 c:/arm_gcc/bin/../lib/gcc/arm-none-eabi/9.2.1/../../../../arm-none-eabi/lib/thumb/v7e-m+fp/hard\libc_nano.a(lib_a-nano-svfprintf.o)
 .ARM.attributes
                0x00000de0       0x34 c:/arm_gcc/bin/../lib/gcc/arm-none-eabi/9.2.1/../../../../arm-none-eabi/lib/thumb/v7e-m+fp/hard\libc_nano.a(lib_a-reent.o)
 .ARM.attributes
                0x00000e14       0x34 c:/arm_gcc/bin/../lib/gcc/arm-none-eabi/9.2.1/../../../../arm-none-eabi/lib/thumb/v7e-m+fp/hard\libc_nano.a(lib_a-s_nan.o)
 .ARM.attributes
                0x00000e48       0x34 c:/arm_gcc/bin/../lib/gcc/arm-none-eabi/9.2.1/../../../../arm-none-eabi/lib/thumb/v7e-m+fp/hard\libc_nano.a(lib_a-strncmp.o)
 .ARM.attributes
                0x00000e7c       0x34 c:/arm_gcc/bin/../lib/gcc/arm-none-eabi/9.2.1/../../../../arm-none-eabi/lib/thumb/v7e-m+fp/hard\libc_nano.a(lib_a-wctomb_r.o)
 .ARM.attributes
                0x00000eb0       0x34 c:/arm_gcc/bin/../lib/gcc/arm-none-eabi/9.2.1/../../../../arm-none-eabi/lib/thumb/v7e-m+fp/hard\libc_nano.a(lib_a-lock.o)
 .ARM.attributes
                0x00000ee4       0x34 c:/arm_gcc/bin/../lib/gcc/arm-none-eabi/9.2.1/../../../../arm-none-eabi/lib/thumb/v7e-m+fp/hard\libc_nano.a(lib_a-memmove.o)
 .ARM.attributes
                0x00000f18       0x34 c:/arm_gcc/bin/../lib/gcc/arm-none-eabi/9.2.1/../../../../arm-none-eabi/lib/thumb/v7e-m+fp/hard\libc_nano.a(lib_a-nano-reallocr.o)
 .ARM.attributes
                0x00000f4c       0x34 c:/arm_gcc/bin/../lib/gcc/arm-none-eabi/9.2.1/../../../../arm-none-eabi/lib/thumb/v7e-m+fp/hard\libc_nano.a(lib_a-nano-msizer.o)
 .ARM.attributes
                0x00000f80       0x34 c:/arm_gcc/bin/../lib/gcc/arm-none-eabi/9.2.1/../../../../arm-none-eabi/lib/thumb/v7e-m+fp/hard\libm.a(lib_a-wf_atan2.o)
 .ARM.attributes
                0x00000fb4       0x34 c:/arm_gcc/bin/../lib/gcc/arm-none-eabi/9.2.1/../../../../arm-none-eabi/lib/thumb/v7e-m+fp/hard\libm.a(lib_a-wf_sqrt.o)
 .ARM.attributes
                0x00000fe8       0x34 c:/arm_gcc/bin/../lib/gcc/arm-none-eabi/9.2.1/../../../../arm-none-eabi/lib/thumb/v7e-m+fp/hard\libm.a(lib_a-ef_atan2.o)
 .ARM.attributes
                0x0000101c       0x34 c:/arm_gcc/bin/../lib/gcc/arm-none-eabi/9.2.1/../../../../arm-none-eabi/lib/thumb/v7e-m+fp/hard\libm.a(lib_a-ef_sqrt.o)
 .ARM.attributes
                0x00001050       0x32 c:/arm_gcc/bin/../lib/gcc/arm-none-eabi/9.2.1/../../../../arm-none-eabi/lib/thumb/v7e-m+fp/hard\libm.a(lib_a-s_lib_ver.o)
 .ARM.attributes
                0x00001082       0x34 c:/arm_gcc/bin/../lib/gcc/arm-none-eabi/9.2.1/../../../../arm-none-eabi/lib/thumb/v7e-m+fp/hard\libm.a(lib_a-s_matherr.o)
 .ARM.attributes
                0x000010b6       0x34 c:/arm_gcc/bin/../lib/gcc/arm-none-eabi/9.2.1/../../../../arm-none-eabi/lib/thumb/v7e-m+fp/hard\libm.a(lib_a-sf_atan.o)
 .ARM.attributes
                0x000010ea       0x34 c:/arm_gcc/bin/../lib/gcc/arm-none-eabi/9.2.1/../../../../arm-none-eabi/lib/thumb/v7e-m+fp/hard\libm.a(lib_a-sf_fabs.o)
 .ARM.attributes
                0x0000111e       0x34 c:/arm_gcc/bin/../lib/gcc/arm-none-eabi/9.2.1/../../../../arm-none-eabi/lib/thumb/v7e-m+fp/hard\libnosys.a(sbrk.o)
 .ARM.attributes
                0x00001152       0x1e c:/arm_gcc/bin/../lib/gcc/arm-none-eabi/9.2.1/thumb/v7e-m+fp/hard\libgcc.a(_arm_addsubdf3.o)
 .ARM.attributes
                0x00001170       0x1e c:/arm_gcc/bin/../lib/gcc/arm-none-eabi/9.2.1/thumb/v7e-m+fp/hard\libgcc.a(_arm_muldivdf3.o)
 .ARM.attributes
                0x0000118e       0x1e c:/arm_gcc/bin/../lib/gcc/arm-none-eabi/9.2.1/thumb/v7e-m+fp/hard\libgcc.a(_arm_cmpdf2.o)
 .ARM.attributes
                0x000011ac       0x1e c:/arm_gcc/bin/../lib/gcc/arm-none-eabi/9.2.1/thumb/v7e-m+fp/hard\libgcc.a(_arm_unorddf2.o)
 .ARM.attributes
                0x000011ca       0x1e c:/arm_gcc/bin/../lib/gcc/arm-none-eabi/9.2.1/thumb/v7e-m+fp/hard\libgcc.a(_arm_fixdfsi.o)
 .ARM.attributes
                0x000011e8       0x1e c:/arm_gcc/bin/../lib/gcc/arm-none-eabi/9.2.1/thumb/v7e-m+fp/hard\libgcc.a(_arm_fixunsdfsi.o)
 .ARM.attributes
                0x00001206       0x1e c:/arm_gcc/bin/../lib/gcc/arm-none-eabi/9.2.1/thumb/v7e-m+fp/hard\libgcc.a(_arm_truncdfsf2.o)
 .ARM.attributes
                0x00001224       0x1e c:/arm_gcc/bin/../lib/gcc/arm-none-eabi/9.2.1/thumb/v7e-m+fp/hard\libgcc.a(_aeabi_uldivmod.o)
 .ARM.attributes
                0x00001242       0x34 c:/arm_gcc/bin/../lib/gcc/arm-none-eabi/9.2.1/thumb/v7e-m+fp/hard\libgcc.a(_fixdfdi.o)
 .ARM.attributes
                0x00001276       0x34 c:/arm_gcc/bin/../lib/gcc/arm-none-eabi/9.2.1/thumb/v7e-m+fp/hard\libgcc.a(_fixunsdfdi.o)
 .ARM.attributes
                0x000012aa       0x34 c:/arm_gcc/bin/../lib/gcc/arm-none-eabi/9.2.1/thumb/v7e-m+fp/hard\libgcc.a(_udivmoddi4.o)
 .ARM.attributes
                0x000012de       0x1e c:/arm_gcc/bin/../lib/gcc/arm-none-eabi/9.2.1/thumb/v7e-m+fp/hard\libgcc.a(_dvmd_tls.o)
 .ARM.attributes
                0x000012fc       0x34 c:/arm_gcc/bin/../lib/gcc/arm-none-eabi/9.2.1/../../../../arm-none-eabi/lib/thumb/v7e-m+fp/hard\libc_nano.a(lib_a-errno.o)
 .ARM.attributes
                0x00001330       0x1e c:/arm_gcc/bin/../lib/gcc/arm-none-eabi/9.2.1/thumb/v7e-m+fp/hard/crtn.o
OUTPUT(build_my/MYFOCDriver.elf elf32-littlearm)

.debug_info     0x00000000    0x3123b
 .debug_info    0x00000000     0x302e build_my/main.o
 .debug_info    0x0000302e     0x15f8 build_my/uart_ext.o
 .debug_info    0x00004626     0x14d8 build_my/command.o
 .debug_info    0x00005afe     0x1f53 build_my/as5047.o
 .debug_info    0x00007a51      0xb94 build_my/pid.o
 .debug_info    0x000085e5      0xc22 build_my/debug_utils.o
 .debug_info    0x00009207     0x17b8 build_my/spi_slave.o
 .debug_info    0x0000a9bf      0xbfb build_my/utils.o
 .debug_info    0x0000b5ba      0x891 build_my/gpio.o
 .debug_info    0x0000be4b     0x17e2 build_my/SVPWM.o
 .debug_info    0x0000d62d     0x184b build_my/parameter.o
 .debug_info    0x0000ee78     0x1368 build_my/arm_sin_cos_f32.o
 .debug_info    0x000101e0     0x12e5 build_my/arm_cos_f32.o
 .debug_info    0x000114c5     0x1584 build_my/arm_common_tables.o
 .debug_info    0x00012a49     0x3008 build_my/foc.o
 .debug_info    0x00015a51      0x8cf build_my/foc_spi_com.o
 .debug_info    0x00016320     0x24a5 build_my/cmd_fun.o
 .debug_info    0x000187c5      0xe0b build_my/dac.o
 .debug_info    0x000195d0      0xfa2 build_my/adc.o
 .debug_info    0x0001a572     0x168c build_my/tim.o
 .debug_info    0x0001bbfe      0xeef build_my/usart.o
 .debug_info    0x0001caed     0x1a9d build_my/stm32f4xx_it.o
 .debug_info    0x0001e58a      0x3e5 build_my/stm32f4xx_hal_msp.o
 .debug_info    0x0001e96f     0x10b4 build_my/stm32f4xx_hal_adc.o
 .debug_info    0x0001fa23      0xd14 build_my/stm32f4xx_hal_dac.o
 .debug_info    0x00020737      0xe81 build_my/stm32f4xx_hal_adc_ex.o
 .debug_info    0x000215b8      0xc44 build_my/stm32f4xx_hal_rcc.o
 .debug_info    0x000221fc      0x8ab build_my/stm32f4xx_hal_flash.o
 .debug_info    0x00022aa7      0x9ad build_my/stm32f4xx_hal_flash_ex.o
 .debug_info    0x00023454      0x915 build_my/stm32f4xx_hal_gpio.o
 .debug_info    0x00023d69      0xc8b build_my/stm32f4xx_hal_dma.o
 .debug_info    0x000249f4     0x122c build_my/stm32f4xx_hal_cortex.o
 .debug_info    0x00025c20      0xb4c build_my/stm32f4xx_hal.o
 .debug_info    0x0002676c     0x39b3 build_my/stm32f4xx_hal_tim.o
 .debug_info    0x0002a11f     0x187c build_my/stm32f4xx_hal_tim_ex.o
 .debug_info    0x0002b99b     0x1b31 build_my/stm32f4xx_hal_uart.o
 .debug_info    0x0002d4cc      0x63c build_my/system_stm32f4xx.o
 .debug_info    0x0002db08      0x6e7 build_my/dma.o
 .debug_info    0x0002e1ef      0xfa3 build_my/spi.o
 .debug_info    0x0002f192     0x2087 build_my/stm32f4xx_hal_spi.o
 .debug_info    0x00031219       0x22 build_my/startup_stm32f405xx.o

.debug_abbrev   0x00000000     0x672b
 .debug_abbrev  0x00000000      0x316 build_my/main.o
 .debug_abbrev  0x00000316      0x33c build_my/uart_ext.o
 .debug_abbrev  0x00000652      0x317 build_my/command.o
 .debug_abbrev  0x00000969      0x3d8 build_my/as5047.o
 .debug_abbrev  0x00000d41      0x242 build_my/pid.o
 .debug_abbrev  0x00000f83      0x216 build_my/debug_utils.o
 .debug_abbrev  0x00001199      0x2d3 build_my/spi_slave.o
 .debug_abbrev  0x0000146c      0x16e build_my/utils.o
 .debug_abbrev  0x000015da      0x19b build_my/gpio.o
 .debug_abbrev  0x00001775      0x3bf build_my/SVPWM.o
 .debug_abbrev  0x00001b34      0x364 build_my/parameter.o
 .debug_abbrev  0x00001e98      0x22c build_my/arm_sin_cos_f32.o
 .debug_abbrev  0x000020c4      0x21d build_my/arm_cos_f32.o
 .debug_abbrev  0x000022e1      0x1ea build_my/arm_common_tables.o
 .debug_abbrev  0x000024cb      0x58d build_my/foc.o
 .debug_abbrev  0x00002a58      0x1be build_my/foc_spi_com.o
 .debug_abbrev  0x00002c16      0x30c build_my/cmd_fun.o
 .debug_abbrev  0x00002f22      0x1fa build_my/dac.o
 .debug_abbrev  0x0000311c      0x1f9 build_my/adc.o
 .debug_abbrev  0x00003315      0x2a6 build_my/tim.o
 .debug_abbrev  0x000035bb      0x20d build_my/usart.o
 .debug_abbrev  0x000037c8      0x2a8 build_my/stm32f4xx_it.o
 .debug_abbrev  0x00003a70      0x11c build_my/stm32f4xx_hal_msp.o
 .debug_abbrev  0x00003b8c      0x2be build_my/stm32f4xx_hal_adc.o
 .debug_abbrev  0x00003e4a      0x25d build_my/stm32f4xx_hal_dac.o
 .debug_abbrev  0x000040a7      0x2e1 build_my/stm32f4xx_hal_adc_ex.o
 .debug_abbrev  0x00004388      0x2cd build_my/stm32f4xx_hal_rcc.o
 .debug_abbrev  0x00004655      0x303 build_my/stm32f4xx_hal_flash.o
 .debug_abbrev  0x00004958      0x2a2 build_my/stm32f4xx_hal_flash_ex.o
 .debug_abbrev  0x00004bfa      0x258 build_my/stm32f4xx_hal_gpio.o
 .debug_abbrev  0x00004e52      0x312 build_my/stm32f4xx_hal_dma.o
 .debug_abbrev  0x00005164      0x3a8 build_my/stm32f4xx_hal_cortex.o
 .debug_abbrev  0x0000550c      0x21c build_my/stm32f4xx_hal.o
 .debug_abbrev  0x00005728      0x2af build_my/stm32f4xx_hal_tim.o
 .debug_abbrev  0x000059d7      0x2ab build_my/stm32f4xx_hal_tim_ex.o
 .debug_abbrev  0x00005c82      0x318 build_my/stm32f4xx_hal_uart.o
 .debug_abbrev  0x00005f9a      0x14a build_my/system_stm32f4xx.o
 .debug_abbrev  0x000060e4      0x156 build_my/dma.o
 .debug_abbrev  0x0000623a      0x20d build_my/spi.o
 .debug_abbrev  0x00006447      0x2d2 build_my/stm32f4xx_hal_spi.o
 .debug_abbrev  0x00006719       0x12 build_my/startup_stm32f405xx.o

.debug_loc      0x00000000    0x1417b
 .debug_loc     0x00000000       0x59 build_my/main.o
 .debug_loc     0x00000059      0x4da build_my/uart_ext.o
 .debug_loc     0x00000533      0x596 build_my/command.o
 .debug_loc     0x00000ac9      0x87a build_my/as5047.o
 .debug_loc     0x00001343      0x108 build_my/pid.o
 .debug_loc     0x0000144b       0x62 build_my/debug_utils.o
 .debug_loc     0x000014ad      0x2e6 build_my/spi_slave.o
 .debug_loc     0x00001793       0x38 build_my/gpio.o
 .debug_loc     0x000017cb      0x910 build_my/SVPWM.o
 .debug_loc     0x000020db      0x190 build_my/parameter.o
 .debug_loc     0x0000226b      0x4f9 build_my/arm_sin_cos_f32.o
 .debug_loc     0x00002764      0x130 build_my/arm_cos_f32.o
 .debug_loc     0x00002894      0xcc1 build_my/foc.o
 .debug_loc     0x00003555       0x20 build_my/foc_spi_com.o
 .debug_loc     0x00003575      0xe6e build_my/cmd_fun.o
 .debug_loc     0x000043e3      0x12c build_my/dac.o
 .debug_loc     0x0000450f      0x216 build_my/adc.o
 .debug_loc     0x00004725      0x4ef build_my/tim.o
 .debug_loc     0x00004c14       0xf7 build_my/usart.o
 .debug_loc     0x00004d0b      0x160 build_my/stm32f4xx_it.o
 .debug_loc     0x00004e6b       0x2c build_my/stm32f4xx_hal_msp.o
 .debug_loc     0x00004e97      0xda2 build_my/stm32f4xx_hal_adc.o
 .debug_loc     0x00005c39      0xa4d build_my/stm32f4xx_hal_dac.o
 .debug_loc     0x00006686      0xc25 build_my/stm32f4xx_hal_adc_ex.o
 .debug_loc     0x000072ab      0x6c7 build_my/stm32f4xx_hal_rcc.o
 .debug_loc     0x00007972      0x498 build_my/stm32f4xx_hal_flash.o
 .debug_loc     0x00007e0a      0x6c3 build_my/stm32f4xx_hal_flash_ex.o
 .debug_loc     0x000084cd      0x5c7 build_my/stm32f4xx_hal_gpio.o
 .debug_loc     0x00008a94      0xd6d build_my/stm32f4xx_hal_dma.o
 .debug_loc     0x00009801      0x7d4 build_my/stm32f4xx_hal_cortex.o
 .debug_loc     0x00009fd5      0x1e1 build_my/stm32f4xx_hal.o
 .debug_loc     0x0000a1b6     0x457e build_my/stm32f4xx_hal_tim.o
 .debug_loc     0x0000e734     0x15b0 build_my/stm32f4xx_hal_tim_ex.o
 .debug_loc     0x0000fce4     0x1d79 build_my/stm32f4xx_hal_uart.o
 .debug_loc     0x00011a5d      0x16c build_my/system_stm32f4xx.o
 .debug_loc     0x00011bc9       0x38 build_my/dma.o
 .debug_loc     0x00011c01      0x15f build_my/spi.o
 .debug_loc     0x00011d60     0x241b build_my/stm32f4xx_hal_spi.o

.debug_aranges  0x00000000     0x15f8
 .debug_aranges
                0x00000000       0x30 build_my/main.o
 .debug_aranges
                0x00000030       0x68 build_my/uart_ext.o
 .debug_aranges
                0x00000098       0x40 build_my/command.o
 .debug_aranges
                0x000000d8       0x70 build_my/as5047.o
 .debug_aranges
                0x00000148       0x28 build_my/pid.o
 .debug_aranges
                0x00000170       0x20 build_my/debug_utils.o
 .debug_aranges
                0x00000190       0x58 build_my/spi_slave.o
 .debug_aranges
                0x000001e8       0x18 build_my/utils.o
 .debug_aranges
                0x00000200       0x20 build_my/gpio.o
 .debug_aranges
                0x00000220       0x58 build_my/SVPWM.o
 .debug_aranges
                0x00000278       0x30 build_my/parameter.o
 .debug_aranges
                0x000002a8       0x20 build_my/arm_sin_cos_f32.o
 .debug_aranges
                0x000002c8       0x20 build_my/arm_cos_f32.o
 .debug_aranges
                0x000002e8       0x18 build_my/arm_common_tables.o
 .debug_aranges
                0x00000300       0xa0 build_my/foc.o
 .debug_aranges
                0x000003a0       0x20 build_my/foc_spi_com.o
 .debug_aranges
                0x000003c0       0x98 build_my/cmd_fun.o
 .debug_aranges
                0x00000458       0x30 build_my/dac.o
 .debug_aranges
                0x00000488       0x48 build_my/adc.o
 .debug_aranges
                0x000004d0       0x68 build_my/tim.o
 .debug_aranges
                0x00000538       0x30 build_my/usart.o
 .debug_aranges
                0x00000568       0xb8 build_my/stm32f4xx_it.o
 .debug_aranges
                0x00000620       0x20 build_my/stm32f4xx_hal_msp.o
 .debug_aranges
                0x00000640       0xe8 build_my/stm32f4xx_hal_adc.o
 .debug_aranges
                0x00000728       0xc0 build_my/stm32f4xx_hal_dac.o
 .debug_aranges
                0x000007e8       0x90 build_my/stm32f4xx_hal_adc_ex.o
 .debug_aranges
                0x00000878       0x88 build_my/stm32f4xx_hal_rcc.o
 .debug_aranges
                0x00000900       0xa0 build_my/stm32f4xx_hal_flash.o
 .debug_aranges
                0x000009a0       0x98 build_my/stm32f4xx_hal_flash_ex.o
 .debug_aranges
                0x00000a38       0x58 build_my/stm32f4xx_hal_gpio.o
 .debug_aranges
                0x00000a90       0x90 build_my/stm32f4xx_hal_dma.o
 .debug_aranges
                0x00000b20       0xa8 build_my/stm32f4xx_hal_cortex.o
 .debug_aranges
                0x00000bc8       0xf0 build_my/stm32f4xx_hal.o
 .debug_aranges
                0x00000cb8      0x3a8 build_my/stm32f4xx_hal_tim.o
 .debug_aranges
                0x00001060      0x150 build_my/stm32f4xx_hal_tim_ex.o
 .debug_aranges
                0x000011b0      0x1d0 build_my/stm32f4xx_hal_uart.o
 .debug_aranges
                0x00001380       0x28 build_my/system_stm32f4xx.o
 .debug_aranges
                0x000013a8       0x20 build_my/dma.o
 .debug_aranges
                0x000013c8       0x38 build_my/spi.o
 .debug_aranges
                0x00001400      0x1d0 build_my/stm32f4xx_hal_spi.o
 .debug_aranges
                0x000015d0       0x28 build_my/startup_stm32f405xx.o

.debug_ranges   0x00000000     0x14e0
 .debug_ranges  0x00000000       0x20 build_my/main.o
 .debug_ranges  0x00000020       0x58 build_my/uart_ext.o
 .debug_ranges  0x00000078       0x30 build_my/command.o
 .debug_ranges  0x000000a8       0xa8 build_my/as5047.o
 .debug_ranges  0x00000150       0x18 build_my/pid.o
 .debug_ranges  0x00000168       0x10 build_my/debug_utils.o
 .debug_ranges  0x00000178       0x48 build_my/spi_slave.o
 .debug_ranges  0x000001c0       0x10 build_my/gpio.o
 .debug_ranges  0x000001d0       0x48 build_my/SVPWM.o
 .debug_ranges  0x00000218       0x20 build_my/parameter.o
 .debug_ranges  0x00000238       0x10 build_my/arm_sin_cos_f32.o
 .debug_ranges  0x00000248       0x10 build_my/arm_cos_f32.o
 .debug_ranges  0x00000258      0x138 build_my/foc.o
 .debug_ranges  0x00000390       0x10 build_my/foc_spi_com.o
 .debug_ranges  0x000003a0       0xa0 build_my/cmd_fun.o
 .debug_ranges  0x00000440       0x20 build_my/dac.o
 .debug_ranges  0x00000460       0x38 build_my/adc.o
 .debug_ranges  0x00000498       0x58 build_my/tim.o
 .debug_ranges  0x000004f0       0x20 build_my/usart.o
 .debug_ranges  0x00000510       0xa8 build_my/stm32f4xx_it.o
 .debug_ranges  0x000005b8       0x10 build_my/stm32f4xx_hal_msp.o
 .debug_ranges  0x000005c8       0xd8 build_my/stm32f4xx_hal_adc.o
 .debug_ranges  0x000006a0       0xb0 build_my/stm32f4xx_hal_dac.o
 .debug_ranges  0x00000750       0x80 build_my/stm32f4xx_hal_adc_ex.o
 .debug_ranges  0x000007d0       0x90 build_my/stm32f4xx_hal_rcc.o
 .debug_ranges  0x00000860       0x90 build_my/stm32f4xx_hal_flash.o
 .debug_ranges  0x000008f0       0x88 build_my/stm32f4xx_hal_flash_ex.o
 .debug_ranges  0x00000978       0x48 build_my/stm32f4xx_hal_gpio.o
 .debug_ranges  0x000009c0       0x80 build_my/stm32f4xx_hal_dma.o
 .debug_ranges  0x00000a40       0xf8 build_my/stm32f4xx_hal_cortex.o
 .debug_ranges  0x00000b38       0xe0 build_my/stm32f4xx_hal.o
 .debug_ranges  0x00000c18      0x398 build_my/stm32f4xx_hal_tim.o
 .debug_ranges  0x00000fb0      0x140 build_my/stm32f4xx_hal_tim_ex.o
 .debug_ranges  0x000010f0      0x1c0 build_my/stm32f4xx_hal_uart.o
 .debug_ranges  0x000012b0       0x18 build_my/system_stm32f4xx.o
 .debug_ranges  0x000012c8       0x10 build_my/dma.o
 .debug_ranges  0x000012d8       0x28 build_my/spi.o
 .debug_ranges  0x00001300      0x1c0 build_my/stm32f4xx_hal_spi.o
 .debug_ranges  0x000014c0       0x20 build_my/startup_stm32f405xx.o

.debug_line     0x00000000    0x15475
 .debug_line    0x00000000      0x4d5 build_my/main.o
 .debug_line    0x000004d5      0x483 build_my/uart_ext.o
 .debug_line    0x00000958      0x616 build_my/command.o
 .debug_line    0x00000f6e      0x716 build_my/as5047.o
 .debug_line    0x00001684      0x1a9 build_my/pid.o
 .debug_line    0x0000182d      0x22e build_my/debug_utils.o
 .debug_line    0x00001a5b      0x3fe build_my/spi_slave.o
 .debug_line    0x00001e59      0x1d5 build_my/utils.o
 .debug_line    0x0000202e      0x202 build_my/gpio.o
 .debug_line    0x00002230      0x611 build_my/SVPWM.o
 .debug_line    0x00002841      0x3ee build_my/parameter.o
 .debug_line    0x00002c2f      0x2a7 build_my/arm_sin_cos_f32.o
 .debug_line    0x00002ed6      0x1f6 build_my/arm_cos_f32.o
 .debug_line    0x000030cc      0x16d build_my/arm_common_tables.o
 .debug_line    0x00003239      0xe82 build_my/foc.o
 .debug_line    0x000040bb      0x1da build_my/foc_spi_com.o
 .debug_line    0x00004295      0x780 build_my/cmd_fun.o
 .debug_line    0x00004a15      0x2b6 build_my/dac.o
 .debug_line    0x00004ccb      0x639 build_my/adc.o
 .debug_line    0x00005304      0x7d9 build_my/tim.o
 .debug_line    0x00005add      0x3d1 build_my/usart.o
 .debug_line    0x00005eae      0x4bc build_my/stm32f4xx_it.o
 .debug_line    0x0000636a      0x174 build_my/stm32f4xx_hal_msp.o
 .debug_line    0x000064de     0x1033 build_my/stm32f4xx_hal_adc.o
 .debug_line    0x00007511      0x85b build_my/stm32f4xx_hal_dac.o
 .debug_line    0x00007d6c      0xc28 build_my/stm32f4xx_hal_adc_ex.o
 .debug_line    0x00008994      0xae8 build_my/stm32f4xx_hal_rcc.o
 .debug_line    0x0000947c      0x717 build_my/stm32f4xx_hal_flash.o
 .debug_line    0x00009b93      0x6cf build_my/stm32f4xx_hal_flash_ex.o
 .debug_line    0x0000a262      0x6d9 build_my/stm32f4xx_hal_gpio.o
 .debug_line    0x0000a93b      0xdd7 build_my/stm32f4xx_hal_dma.o
 .debug_line    0x0000b712      0x752 build_my/stm32f4xx_hal_cortex.o
 .debug_line    0x0000be64      0x515 build_my/stm32f4xx_hal.o
 .debug_line    0x0000c379     0x3677 build_my/stm32f4xx_hal_tim.o
 .debug_line    0x0000f9f0     0x11a3 build_my/stm32f4xx_hal_tim_ex.o
 .debug_line    0x00010b93     0x1c19 build_my/stm32f4xx_hal_uart.o
 .debug_line    0x000127ac      0x239 build_my/system_stm32f4xx.o
 .debug_line    0x000129e5      0x189 build_my/dma.o
 .debug_line    0x00012b6e      0x491 build_my/spi.o
 .debug_line    0x00012fff     0x2402 build_my/stm32f4xx_hal_spi.o
 .debug_line    0x00015401       0x74 build_my/startup_stm32f405xx.o

.debug_str      0x00000000     0x6cbe
 .debug_str     0x00000000     0x1a87 build_my/main.o
                               0x1c1a (size before relaxing)
 .debug_str     0x00001a87      0x1c6 build_my/uart_ext.o
                                0xcb6 (size before relaxing)
 .debug_str     0x00001c4d       0xfb build_my/command.o
                                0xbae (size before relaxing)
 .debug_str     0x00001d48      0x1a6 build_my/as5047.o
                                0xe80 (size before relaxing)
 .debug_str     0x00001eee       0x8b build_my/pid.o
                                0x631 (size before relaxing)
 .debug_str     0x00001f79       0x24 build_my/debug_utils.o
                                0x6d1 (size before relaxing)
 .debug_str     0x00001f9d      0x26d build_my/spi_slave.o
                                0xd9d (size before relaxing)
 .debug_str     0x0000220a       0x4d build_my/utils.o
                                0x8c6 (size before relaxing)
 .debug_str     0x00002257      0x53e build_my/gpio.o
                                0x941 (size before relaxing)
 .debug_str     0x00002795      0x10e build_my/SVPWM.o
                                0xc43 (size before relaxing)
 .debug_str     0x000028a3      0x12f build_my/parameter.o
                                0xdd9 (size before relaxing)
 .debug_str     0x000029d2      0x52d build_my/arm_sin_cos_f32.o
                                0xb4b (size before relaxing)
 .debug_str     0x00002eff       0x25 build_my/arm_cos_f32.o
                                0xb27 (size before relaxing)
 .debug_str     0x00002f24       0x18 build_my/arm_common_tables.o
                                0xb07 (size before relaxing)
 .debug_str     0x00002f3c      0x3c4 build_my/foc.o
                               0x192b (size before relaxing)
 .debug_str     0x00003300       0x12 build_my/foc_spi_com.o
                                0x7a9 (size before relaxing)
 .debug_str     0x00003312       0xe8 build_my/cmd_fun.o
                               0x1056 (size before relaxing)
 .debug_str     0x000033fa       0xc4 build_my/dac.o
                                0xd52 (size before relaxing)
 .debug_str     0x000034be      0x106 build_my/adc.o
                                0x977 (size before relaxing)
 .debug_str     0x000035c4      0x348 build_my/tim.o
                               0x1122 (size before relaxing)
 .debug_str     0x0000390c       0x65 build_my/usart.o
                                0xde0 (size before relaxing)
 .debug_str     0x00003971      0x20d build_my/stm32f4xx_it.o
                               0x10a6 (size before relaxing)
 .debug_str     0x00003b7e       0x24 build_my/stm32f4xx_hal_msp.o
                                0x39b (size before relaxing)
 .debug_str     0x00003ba2      0x2a8 build_my/stm32f4xx_hal_adc.o
                                0xa16 (size before relaxing)
 .debug_str     0x00003e4a      0x199 build_my/stm32f4xx_hal_dac.o
                                0x895 (size before relaxing)
 .debug_str     0x00003fe3      0x260 build_my/stm32f4xx_hal_adc_ex.o
                                0xa79 (size before relaxing)
 .debug_str     0x00004243      0x1d1 build_my/stm32f4xx_hal_rcc.o
                                0x791 (size before relaxing)
 .debug_str     0x00004414      0x279 build_my/stm32f4xx_hal_flash.o
                                0x61d (size before relaxing)
 .debug_str     0x0000468d      0x1ce build_my/stm32f4xx_hal_flash_ex.o
                                0x66d (size before relaxing)
 .debug_str     0x0000485b       0xe8 build_my/stm32f4xx_hal_gpio.o
                                0x5b3 (size before relaxing)
 .debug_str     0x00004943      0x2bd build_my/stm32f4xx_hal_dma.o
                                0x839 (size before relaxing)
 .debug_str     0x00004c00      0x4be build_my/stm32f4xx_hal_cortex.o
                                0xccc (size before relaxing)
 .debug_str     0x000050be      0x21f build_my/stm32f4xx_hal.o
                                0xb8d (size before relaxing)
 .debug_str     0x000052dd      0xc32 build_my/stm32f4xx_hal_tim.o
                               0x1590 (size before relaxing)
 .debug_str     0x00005f0f      0x40e build_my/stm32f4xx_hal_tim_ex.o
                                0xda8 (size before relaxing)
 .debug_str     0x0000631d      0x45d build_my/stm32f4xx_hal_uart.o
                                0xcf4 (size before relaxing)
 .debug_str     0x0000677a       0x42 build_my/system_stm32f4xx.o
                                0x417 (size before relaxing)
 .debug_str     0x000067bc        0xa build_my/dma.o
                                0x882 (size before relaxing)
 .debug_str     0x000067c6       0x43 build_my/spi.o
                                0xdf2 (size before relaxing)
 .debug_str     0x00006809      0x491 build_my/stm32f4xx_hal_spi.o
                                0xc9c (size before relaxing)
 .debug_str     0x00006c9a       0x24 build_my/startup_stm32f405xx.o
                                 0x4f (size before relaxing)

.comment        0x00000000       0x79
 .comment       0x00000000       0x79 build_my/main.o
                                 0x7a (size before relaxing)
 .comment       0x00000079       0x7a build_my/uart_ext.o
 .comment       0x00000079       0x7a build_my/command.o
 .comment       0x00000079       0x7a build_my/as5047.o
 .comment       0x00000079       0x7a build_my/pid.o
 .comment       0x00000079       0x7a build_my/debug_utils.o
 .comment       0x00000079       0x7a build_my/spi_slave.o
 .comment       0x00000079       0x7a build_my/utils.o
 .comment       0x00000079       0x7a build_my/gpio.o
 .comment       0x00000079       0x7a build_my/SVPWM.o
 .comment       0x00000079       0x7a build_my/parameter.o
 .comment       0x00000079       0x7a build_my/arm_sin_cos_f32.o
 .comment       0x00000079       0x7a build_my/arm_cos_f32.o
 .comment       0x00000079       0x7a build_my/arm_common_tables.o
 .comment       0x00000079       0x7a build_my/foc.o
 .comment       0x00000079       0x7a build_my/foc_spi_com.o
 .comment       0x00000079       0x7a build_my/cmd_fun.o
 .comment       0x00000079       0x7a build_my/dac.o
 .comment       0x00000079       0x7a build_my/adc.o
 .comment       0x00000079       0x7a build_my/tim.o
 .comment       0x00000079       0x7a build_my/usart.o
 .comment       0x00000079       0x7a build_my/stm32f4xx_it.o
 .comment       0x00000079       0x7a build_my/stm32f4xx_hal_msp.o
 .comment       0x00000079       0x7a build_my/stm32f4xx_hal_adc.o
 .comment       0x00000079       0x7a build_my/stm32f4xx_hal_dac.o
 .comment       0x00000079       0x7a build_my/stm32f4xx_hal_adc_ex.o
 .comment       0x00000079       0x7a build_my/stm32f4xx_hal_rcc.o
 .comment       0x00000079       0x7a build_my/stm32f4xx_hal_flash.o
 .comment       0x00000079       0x7a build_my/stm32f4xx_hal_flash_ex.o
 .comment       0x00000079       0x7a build_my/stm32f4xx_hal_gpio.o
 .comment       0x00000079       0x7a build_my/stm32f4xx_hal_dma.o
 .comment       0x00000079       0x7a build_my/stm32f4xx_hal_cortex.o
 .comment       0x00000079       0x7a build_my/stm32f4xx_hal.o
 .comment       0x00000079       0x7a build_my/stm32f4xx_hal_tim.o
 .comment       0x00000079       0x7a build_my/stm32f4xx_hal_tim_ex.o
 .comment       0x00000079       0x7a build_my/stm32f4xx_hal_uart.o
 .comment       0x00000079       0x7a build_my/system_stm32f4xx.o
 .comment       0x00000079       0x7a build_my/dma.o
 .comment       0x00000079       0x7a build_my/spi.o
 .comment       0x00000079       0x7a build_my/stm32f4xx_hal_spi.o

.debug_frame    0x00000000     0x5070
 .debug_frame   0x00000000       0x60 build_my/main.o
 .debug_frame   0x00000060      0x16c build_my/uart_ext.o
 .debug_frame   0x000001cc       0xb4 build_my/command.o
 .debug_frame   0x00000280      0x188 build_my/as5047.o
 .debug_frame   0x00000408       0x30 build_my/pid.o
 .debug_frame   0x00000438       0x2c build_my/debug_utils.o
 .debug_frame   0x00000464       0xf8 build_my/spi_slave.o
 .debug_frame   0x0000055c       0x38 build_my/gpio.o
 .debug_frame   0x00000594      0x158 build_my/SVPWM.o
 .debug_frame   0x000006ec       0x8c build_my/parameter.o
 .debug_frame   0x00000778       0x38 build_my/arm_sin_cos_f32.o
 .debug_frame   0x000007b0       0x20 build_my/arm_cos_f32.o
 .debug_frame   0x000007d0      0x354 build_my/foc.o
 .debug_frame   0x00000b24       0x2c build_my/foc_spi_com.o
 .debug_frame   0x00000b50      0x208 build_my/cmd_fun.o
 .debug_frame   0x00000d58       0x74 build_my/dac.o
 .debug_frame   0x00000dcc       0xdc build_my/adc.o
 .debug_frame   0x00000ea8      0x170 build_my/tim.o
 .debug_frame   0x00001018       0x7c build_my/usart.o
 .debug_frame   0x00001094      0x1d4 build_my/stm32f4xx_it.o
 .debug_frame   0x00001268       0x28 build_my/stm32f4xx_hal_msp.o
 .debug_frame   0x00001290      0x29c build_my/stm32f4xx_hal_adc.o
 .debug_frame   0x0000152c      0x21c build_my/stm32f4xx_hal_dac.o
 .debug_frame   0x00001748      0x1a8 build_my/stm32f4xx_hal_adc_ex.o
 .debug_frame   0x000018f0      0x1ac build_my/stm32f4xx_hal_rcc.o
 .debug_frame   0x00001a9c      0x184 build_my/stm32f4xx_hal_flash.o
 .debug_frame   0x00001c20      0x19c build_my/stm32f4xx_hal_flash_ex.o
 .debug_frame   0x00001dbc       0xf0 build_my/stm32f4xx_hal_gpio.o
 .debug_frame   0x00001eac      0x1b8 build_my/stm32f4xx_hal_dma.o
 .debug_frame   0x00002064      0x16c build_my/stm32f4xx_hal_cortex.o
 .debug_frame   0x000021d0      0x200 build_my/stm32f4xx_hal.o
 .debug_frame   0x000023d0      0xbd0 build_my/stm32f4xx_hal_tim.o
 .debug_frame   0x00002fa0      0x428 build_my/stm32f4xx_hal_tim_ex.o
 .debug_frame   0x000033c8      0x57c build_my/stm32f4xx_hal_uart.o
 .debug_frame   0x00003944       0x30 build_my/system_stm32f4xx.o
 .debug_frame   0x00003974       0x30 build_my/dma.o
 .debug_frame   0x000039a4       0x8c build_my/spi.o
 .debug_frame   0x00003a30      0x630 build_my/stm32f4xx_hal_spi.o
 .debug_frame   0x00004060       0x20 c:/arm_gcc/bin/../lib/gcc/arm-none-eabi/9.2.1/../../../../arm-none-eabi/lib/thumb/v7e-m+fp/hard\libc_nano.a(lib_a-atof.o)
 .debug_frame   0x00004080       0x2c c:/arm_gcc/bin/../lib/gcc/arm-none-eabi/9.2.1/../../../../arm-none-eabi/lib/thumb/v7e-m+fp/hard\libc_nano.a(lib_a-init.o)
 .debug_frame   0x000040ac       0x30 c:/arm_gcc/bin/../lib/gcc/arm-none-eabi/9.2.1/../../../../arm-none-eabi/lib/thumb/v7e-m+fp/hard\libc_nano.a(lib_a-malloc.o)
 .debug_frame   0x000040dc       0x28 c:/arm_gcc/bin/../lib/gcc/arm-none-eabi/9.2.1/../../../../arm-none-eabi/lib/thumb/v7e-m+fp/hard\libc_nano.a(lib_a-memcpy-stub.o)
 .debug_frame   0x00004104       0x20 c:/arm_gcc/bin/../lib/gcc/arm-none-eabi/9.2.1/../../../../arm-none-eabi/lib/thumb/v7e-m+fp/hard\libc_nano.a(lib_a-memset.o)
 .debug_frame   0x00004124       0x38 c:/arm_gcc/bin/../lib/gcc/arm-none-eabi/9.2.1/../../../../arm-none-eabi/lib/thumb/v7e-m+fp/hard\libc_nano.a(lib_a-nano-freer.o)
 .debug_frame   0x0000415c       0x30 c:/arm_gcc/bin/../lib/gcc/arm-none-eabi/9.2.1/../../../../arm-none-eabi/lib/thumb/v7e-m+fp/hard\libc_nano.a(lib_a-nano-mallocr.o)
 .debug_frame   0x0000418c       0xa0 c:/arm_gcc/bin/../lib/gcc/arm-none-eabi/9.2.1/../../../../arm-none-eabi/lib/thumb/v7e-m+fp/hard\libc_nano.a(lib_a-nano-vfprintf_float.o)
 .debug_frame   0x0000422c       0x60 c:/arm_gcc/bin/../lib/gcc/arm-none-eabi/9.2.1/../../../../arm-none-eabi/lib/thumb/v7e-m+fp/hard\libc_nano.a(lib_a-nano-vfprintf_i.o)
 .debug_frame   0x0000428c       0x2c c:/arm_gcc/bin/../lib/gcc/arm-none-eabi/9.2.1/../../../../arm-none-eabi/lib/thumb/v7e-m+fp/hard\libc_nano.a(lib_a-sbrkr.o)
 .debug_frame   0x000042b8      0x11c c:/arm_gcc/bin/../lib/gcc/arm-none-eabi/9.2.1/../../../../arm-none-eabi/lib/thumb/v7e-m+fp/hard\libc_nano.a(lib_a-strtod.o)
 .debug_frame   0x000043d4       0x4c c:/arm_gcc/bin/../lib/gcc/arm-none-eabi/9.2.1/../../../../arm-none-eabi/lib/thumb/v7e-m+fp/hard\libc_nano.a(lib_a-vsnprintf.o)
 .debug_frame   0x00004420       0x7c c:/arm_gcc/bin/../lib/gcc/arm-none-eabi/9.2.1/../../../../arm-none-eabi/lib/thumb/v7e-m+fp/hard\libc_nano.a(lib_a-dtoa.o)
 .debug_frame   0x0000449c       0x84 c:/arm_gcc/bin/../lib/gcc/arm-none-eabi/9.2.1/../../../../arm-none-eabi/lib/thumb/v7e-m+fp/hard\libc_nano.a(lib_a-gdtoa-gethex.o)
 .debug_frame   0x00004520       0x74 c:/arm_gcc/bin/../lib/gcc/arm-none-eabi/9.2.1/../../../../arm-none-eabi/lib/thumb/v7e-m+fp/hard\libc_nano.a(lib_a-gdtoa-hexnan.o)
 .debug_frame   0x00004594       0x20 c:/arm_gcc/bin/../lib/gcc/arm-none-eabi/9.2.1/../../../../arm-none-eabi/lib/thumb/v7e-m+fp/hard\libc_nano.a(lib_a-lnumeric.o)
 .debug_frame   0x000045b4       0x48 c:/arm_gcc/bin/../lib/gcc/arm-none-eabi/9.2.1/../../../../arm-none-eabi/lib/thumb/v7e-m+fp/hard\libc_nano.a(lib_a-locale.o)
 .debug_frame   0x000045fc       0x40 c:/arm_gcc/bin/../lib/gcc/arm-none-eabi/9.2.1/../../../../arm-none-eabi/lib/thumb/v7e-m+fp/hard\libc_nano.a(lib_a-localeconv.o)
 .debug_frame   0x0000463c       0x48 c:/arm_gcc/bin/../lib/gcc/arm-none-eabi/9.2.1/../../../../arm-none-eabi/lib/thumb/v7e-m+fp/hard\libc_nano.a(lib_a-mbtowc_r.o)
 .debug_frame   0x00004684       0x30 c:/arm_gcc/bin/../lib/gcc/arm-none-eabi/9.2.1/../../../../arm-none-eabi/lib/thumb/v7e-m+fp/hard\libc_nano.a(lib_a-mlock.o)
 .debug_frame   0x000046b4      0x25c c:/arm_gcc/bin/../lib/gcc/arm-none-eabi/9.2.1/../../../../arm-none-eabi/lib/thumb/v7e-m+fp/hard\libc_nano.a(lib_a-mprec.o)
 .debug_frame   0x00004910       0x2c c:/arm_gcc/bin/../lib/gcc/arm-none-eabi/9.2.1/../../../../arm-none-eabi/lib/thumb/v7e-m+fp/hard\libc_nano.a(lib_a-nano-callocr.o)
 .debug_frame   0x0000493c       0x90 c:/arm_gcc/bin/../lib/gcc/arm-none-eabi/9.2.1/../../../../arm-none-eabi/lib/thumb/v7e-m+fp/hard\libc_nano.a(lib_a-nano-svfprintf.o)
 .debug_frame   0x000049cc       0x5c c:/arm_gcc/bin/../lib/gcc/arm-none-eabi/9.2.1/../../../../arm-none-eabi/lib/thumb/v7e-m+fp/hard\libc_nano.a(lib_a-reent.o)
 .debug_frame   0x00004a28       0x20 c:/arm_gcc/bin/../lib/gcc/arm-none-eabi/9.2.1/../../../../arm-none-eabi/lib/thumb/v7e-m+fp/hard\libc_nano.a(lib_a-s_nan.o)
 .debug_frame   0x00004a48       0x28 c:/arm_gcc/bin/../lib/gcc/arm-none-eabi/9.2.1/../../../../arm-none-eabi/lib/thumb/v7e-m+fp/hard\libc_nano.a(lib_a-strncmp.o)
 .debug_frame   0x00004a70       0x3c c:/arm_gcc/bin/../lib/gcc/arm-none-eabi/9.2.1/../../../../arm-none-eabi/lib/thumb/v7e-m+fp/hard\libc_nano.a(lib_a-wctomb_r.o)
 .debug_frame   0x00004aac       0xb0 c:/arm_gcc/bin/../lib/gcc/arm-none-eabi/9.2.1/../../../../arm-none-eabi/lib/thumb/v7e-m+fp/hard\libc_nano.a(lib_a-lock.o)
 .debug_frame   0x00004b5c       0x28 c:/arm_gcc/bin/../lib/gcc/arm-none-eabi/9.2.1/../../../../arm-none-eabi/lib/thumb/v7e-m+fp/hard\libc_nano.a(lib_a-memmove.o)
 .debug_frame   0x00004b84       0x3c c:/arm_gcc/bin/../lib/gcc/arm-none-eabi/9.2.1/../../../../arm-none-eabi/lib/thumb/v7e-m+fp/hard\libc_nano.a(lib_a-nano-reallocr.o)
 .debug_frame   0x00004bc0       0x20 c:/arm_gcc/bin/../lib/gcc/arm-none-eabi/9.2.1/../../../../arm-none-eabi/lib/thumb/v7e-m+fp/hard\libc_nano.a(lib_a-nano-msizer.o)
 .debug_frame   0x00004be0       0x20 c:/arm_gcc/bin/../lib/gcc/arm-none-eabi/9.2.1/../../../../arm-none-eabi/lib/thumb/v7e-m+fp/hard\libm.a(lib_a-wf_atan2.o)
 .debug_frame   0x00004c00       0x50 c:/arm_gcc/bin/../lib/gcc/arm-none-eabi/9.2.1/../../../../arm-none-eabi/lib/thumb/v7e-m+fp/hard\libm.a(lib_a-wf_sqrt.o)
 .debug_frame   0x00004c50       0x44 c:/arm_gcc/bin/../lib/gcc/arm-none-eabi/9.2.1/../../../../arm-none-eabi/lib/thumb/v7e-m+fp/hard\libm.a(lib_a-ef_atan2.o)
 .debug_frame   0x00004c94       0x20 c:/arm_gcc/bin/../lib/gcc/arm-none-eabi/9.2.1/../../../../arm-none-eabi/lib/thumb/v7e-m+fp/hard\libm.a(lib_a-ef_sqrt.o)
 .debug_frame   0x00004cb4       0x20 c:/arm_gcc/bin/../lib/gcc/arm-none-eabi/9.2.1/../../../../arm-none-eabi/lib/thumb/v7e-m+fp/hard\libm.a(lib_a-s_matherr.o)
 .debug_frame   0x00004cd4       0x2c c:/arm_gcc/bin/../lib/gcc/arm-none-eabi/9.2.1/../../../../arm-none-eabi/lib/thumb/v7e-m+fp/hard\libm.a(lib_a-sf_atan.o)
 .debug_frame   0x00004d00       0x20 c:/arm_gcc/bin/../lib/gcc/arm-none-eabi/9.2.1/../../../../arm-none-eabi/lib/thumb/v7e-m+fp/hard\libm.a(lib_a-sf_fabs.o)
 .debug_frame   0x00004d20       0x20 c:/arm_gcc/bin/../lib/gcc/arm-none-eabi/9.2.1/../../../../arm-none-eabi/lib/thumb/v7e-m+fp/hard\libnosys.a(sbrk.o)
 .debug_frame   0x00004d40       0xac c:/arm_gcc/bin/../lib/gcc/arm-none-eabi/9.2.1/thumb/v7e-m+fp/hard\libgcc.a(_arm_addsubdf3.o)
 .debug_frame   0x00004dec       0x50 c:/arm_gcc/bin/../lib/gcc/arm-none-eabi/9.2.1/thumb/v7e-m+fp/hard\libgcc.a(_arm_muldivdf3.o)
 .debug_frame   0x00004e3c       0xc4 c:/arm_gcc/bin/../lib/gcc/arm-none-eabi/9.2.1/thumb/v7e-m+fp/hard\libgcc.a(_arm_cmpdf2.o)
 .debug_frame   0x00004f00       0x20 c:/arm_gcc/bin/../lib/gcc/arm-none-eabi/9.2.1/thumb/v7e-m+fp/hard\libgcc.a(_arm_unorddf2.o)
 .debug_frame   0x00004f20       0x24 c:/arm_gcc/bin/../lib/gcc/arm-none-eabi/9.2.1/thumb/v7e-m+fp/hard\libgcc.a(_arm_fixdfsi.o)
 .debug_frame   0x00004f44       0x24 c:/arm_gcc/bin/../lib/gcc/arm-none-eabi/9.2.1/thumb/v7e-m+fp/hard\libgcc.a(_arm_fixunsdfsi.o)
 .debug_frame   0x00004f68       0x24 c:/arm_gcc/bin/../lib/gcc/arm-none-eabi/9.2.1/thumb/v7e-m+fp/hard\libgcc.a(_arm_truncdfsf2.o)
 .debug_frame   0x00004f8c       0x2c c:/arm_gcc/bin/../lib/gcc/arm-none-eabi/9.2.1/thumb/v7e-m+fp/hard\libgcc.a(_aeabi_uldivmod.o)
 .debug_frame   0x00004fb8       0x38 c:/arm_gcc/bin/../lib/gcc/arm-none-eabi/9.2.1/thumb/v7e-m+fp/hard\libgcc.a(_fixdfdi.o)
 .debug_frame   0x00004ff0       0x2c c:/arm_gcc/bin/../lib/gcc/arm-none-eabi/9.2.1/thumb/v7e-m+fp/hard\libgcc.a(_fixunsdfdi.o)
 .debug_frame   0x0000501c       0x34 c:/arm_gcc/bin/../lib/gcc/arm-none-eabi/9.2.1/thumb/v7e-m+fp/hard\libgcc.a(_udivmoddi4.o)
 .debug_frame   0x00005050       0x20 c:/arm_gcc/bin/../lib/gcc/arm-none-eabi/9.2.1/../../../../arm-none-eabi/lib/thumb/v7e-m+fp/hard\libc_nano.a(lib_a-errno.o)

Cross Reference Table

Symbol                                            File
ADC_IRQHandler                                    build_my/startup_stm32f405xx.o
AHBPrescTable                                     build_my/system_stm32f4xx.o
                                                  build_my/stm32f4xx_hal_rcc.o
APBPrescTable                                     build_my/system_stm32f4xx.o
                                                  build_my/stm32f4xx_hal_rcc.o
AS5047_Set_Direction                              build_my/as5047.o
                                                  build_my/foc.o
AS_5047_Err                                       build_my/as5047.o
As5047_Init                                       build_my/as5047.o
                                                  build_my/main.o
Base_Duty                                         build_my/foc.o
                                                  build_my/cmd_fun.o
                                                  build_my/foc_spi_com.o
Base_Speed                                        build_my/foc.o
                                                  build_my/cmd_fun.o
Board_Mode                                        build_my/foc.o
                                                  build_my/cmd_fun.o
BusFault_Handler                                  build_my/stm32f4xx_it.o
CAN1_RX0_IRQHandler                               build_my/startup_stm32f405xx.o
CAN1_RX1_IRQHandler                               build_my/startup_stm32f405xx.o
CAN1_SCE_IRQHandler                               build_my/startup_stm32f405xx.o
CAN1_TX_IRQHandler                                build_my/startup_stm32f405xx.o
CAN2_RX0_IRQHandler                               build_my/startup_stm32f405xx.o
CAN2_RX1_IRQHandler                               build_my/startup_stm32f405xx.o
CAN2_SCE_IRQHandler                               build_my/startup_stm32f405xx.o
CAN2_TX_IRQHandler                                build_my/startup_stm32f405xx.o
CMD                                               build_my/command.o
Clark_Conv                                        build_my/foc.o
Current_ADC_Init                                  build_my/foc.o
Current_Control                                   build_my/foc.o
DAC_DMAConvCpltCh2                                build_my/stm32f4xx_hal_dac.o
DAC_DMAErrorCh2                                   build_my/stm32f4xx_hal_dac.o
DAC_DMAHalfConvCpltCh2                            build_my/stm32f4xx_hal_dac.o
DMA1_Stream0_IRQHandler                           build_my/stm32f4xx_it.o
DMA1_Stream1_IRQHandler                           build_my/startup_stm32f405xx.o
DMA1_Stream2_IRQHandler                           build_my/startup_stm32f405xx.o
DMA1_Stream3_IRQHandler                           build_my/startup_stm32f405xx.o
DMA1_Stream4_IRQHandler                           build_my/startup_stm32f405xx.o
DMA1_Stream5_IRQHandler                           build_my/startup_stm32f405xx.o
DMA1_Stream6_IRQHandler                           build_my/startup_stm32f405xx.o
DMA1_Stream7_IRQHandler                           build_my/stm32f4xx_it.o
DMA2_Stream0_IRQHandler                           build_my/stm32f4xx_it.o
DMA2_Stream1_IRQHandler                           build_my/startup_stm32f405xx.o
DMA2_Stream2_IRQHandler                           build_my/stm32f4xx_it.o
DMA2_Stream3_IRQHandler                           build_my/stm32f4xx_it.o
DMA2_Stream4_IRQHandler                           build_my/startup_stm32f405xx.o
DMA2_Stream5_IRQHandler                           build_my/startup_stm32f405xx.o
DMA2_Stream6_IRQHandler                           build_my/startup_stm32f405xx.o
DMA2_Stream7_IRQHandler                           build_my/startup_stm32f405xx.o
DebugMon_Handler                                  build_my/stm32f4xx_it.o
Default_Handler                                   build_my/startup_stm32f405xx.o
Detect_Encoder                                    build_my/foc.o
                                                  build_my/cmd_fun.o
Duty_Amp                                          build_my/foc.o
                                                  build_my/cmd_fun.o
                                                  build_my/foc_spi_com.o
EXTI0_IRQHandler                                  build_my/startup_stm32f405xx.o
EXTI15_10_IRQHandler                              build_my/startup_stm32f405xx.o
EXTI1_IRQHandler                                  build_my/startup_stm32f405xx.o
EXTI2_IRQHandler                                  build_my/startup_stm32f405xx.o
EXTI3_IRQHandler                                  build_my/startup_stm32f405xx.o
EXTI4_IRQHandler                                  build_my/stm32f4xx_it.o
EXTI9_5_IRQHandler                                build_my/startup_stm32f405xx.o
Error_Handler                                     build_my/main.o
                                                  build_my/spi.o
                                                  build_my/usb_otg.o
                                                  build_my/usart.o
                                                  build_my/tim.o
                                                  build_my/can.o
                                                  build_my/adc.o
                                                  build_my/dac.o
                                                  build_my/parameter.o
FLASH_Erase_Sector                                build_my/stm32f4xx_hal_flash_ex.o
                                                  build_my/stm32f4xx_hal_flash.o
FLASH_FlushCaches                                 build_my/stm32f4xx_hal_flash_ex.o
                                                  build_my/stm32f4xx_hal_flash.o
FLASH_IRQHandler                                  build_my/startup_stm32f405xx.o
FLASH_WaitForLastOperation                        build_my/stm32f4xx_hal_flash.o
                                                  build_my/stm32f4xx_hal_flash_ex.o
FOC_Flag                                          build_my/foc.o
                                                  build_my/cmd_fun.o
                                                  build_my/foc_spi_com.o
FPU_IRQHandler                                    build_my/startup_stm32f405xx.o
FSMC_IRQHandler                                   build_my/startup_stm32f405xx.o
Foc_Init                                          build_my/foc.o
                                                  build_my/main.o
Get_CCR_Duty                                      build_my/SVPWM.o
Get_Position                                      build_my/as5047.o
                                                  build_my/foc.o
Get_Position_Rad_Dgree                            build_my/as5047.o
Gyroraw_to_Angle_Speed                            build_my/icm20600.o
HAL_ADCEx_InjectedConfigChannel                   build_my/stm32f4xx_hal_adc_ex.o
HAL_ADCEx_InjectedConvCpltCallback                build_my/stm32f4xx_hal_adc_ex.o
                                                  build_my/stm32f4xx_hal_adc.o
HAL_ADCEx_InjectedGetValue                        build_my/stm32f4xx_hal_adc_ex.o
HAL_ADCEx_InjectedPollForConversion               build_my/stm32f4xx_hal_adc_ex.o
HAL_ADCEx_InjectedStart                           build_my/stm32f4xx_hal_adc_ex.o
HAL_ADCEx_InjectedStart_IT                        build_my/stm32f4xx_hal_adc_ex.o
HAL_ADCEx_InjectedStop                            build_my/stm32f4xx_hal_adc_ex.o
HAL_ADCEx_InjectedStop_IT                         build_my/stm32f4xx_hal_adc_ex.o
HAL_ADCEx_MultiModeConfigChannel                  build_my/stm32f4xx_hal_adc_ex.o
                                                  build_my/adc.o
HAL_ADCEx_MultiModeGetValue                       build_my/stm32f4xx_hal_adc_ex.o
HAL_ADCEx_MultiModeStart_DMA                      build_my/stm32f4xx_hal_adc_ex.o
                                                  build_my/foc.o
HAL_ADCEx_MultiModeStop_DMA                       build_my/stm32f4xx_hal_adc_ex.o
HAL_ADC_AnalogWDGConfig                           build_my/stm32f4xx_hal_adc.o
HAL_ADC_ConfigChannel                             build_my/stm32f4xx_hal_adc.o
                                                  build_my/adc.o
HAL_ADC_ConvCpltCallback                          build_my/foc.o
                                                  build_my/stm32f4xx_hal_adc_ex.o
HAL_ADC_ConvHalfCpltCallback                      build_my/stm32f4xx_hal_adc.o
                                                  build_my/stm32f4xx_hal_adc_ex.o
HAL_ADC_DeInit                                    build_my/stm32f4xx_hal_adc.o
HAL_ADC_ErrorCallback                             build_my/stm32f4xx_hal_adc.o
                                                  build_my/stm32f4xx_hal_adc_ex.o
HAL_ADC_GetError                                  build_my/stm32f4xx_hal_adc.o
HAL_ADC_GetState                                  build_my/stm32f4xx_hal_adc.o
HAL_ADC_GetValue                                  build_my/stm32f4xx_hal_adc.o
HAL_ADC_IRQHandler                                build_my/stm32f4xx_hal_adc.o
HAL_ADC_Init                                      build_my/stm32f4xx_hal_adc.o
                                                  build_my/adc.o
HAL_ADC_LevelOutOfWindowCallback                  build_my/stm32f4xx_hal_adc.o
HAL_ADC_MspDeInit                                 build_my/adc.o
HAL_ADC_MspInit                                   build_my/adc.o
HAL_ADC_PollForConversion                         build_my/stm32f4xx_hal_adc.o
HAL_ADC_PollForEvent                              build_my/stm32f4xx_hal_adc.o
HAL_ADC_Start                                     build_my/stm32f4xx_hal_adc.o
                                                  build_my/foc.o
HAL_ADC_Start_DMA                                 build_my/stm32f4xx_hal_adc.o
HAL_ADC_Start_IT                                  build_my/stm32f4xx_hal_adc.o
HAL_ADC_Stop                                      build_my/stm32f4xx_hal_adc.o
HAL_ADC_Stop_DMA                                  build_my/stm32f4xx_hal_adc.o
HAL_ADC_Stop_IT                                   build_my/stm32f4xx_hal_adc.o
HAL_CAN_AbortTxRequest                            build_my/stm32f4xx_hal_can.o
HAL_CAN_ActivateNotification                      build_my/stm32f4xx_hal_can.o
HAL_CAN_AddTxMessage                              build_my/stm32f4xx_hal_can.o
HAL_CAN_ConfigFilter                              build_my/stm32f4xx_hal_can.o
HAL_CAN_DeInit                                    build_my/stm32f4xx_hal_can.o
HAL_CAN_DeactivateNotification                    build_my/stm32f4xx_hal_can.o
HAL_CAN_ErrorCallback                             build_my/stm32f4xx_hal_can.o
HAL_CAN_GetError                                  build_my/stm32f4xx_hal_can.o
HAL_CAN_GetRxFifoFillLevel                        build_my/stm32f4xx_hal_can.o
HAL_CAN_GetRxMessage                              build_my/stm32f4xx_hal_can.o
HAL_CAN_GetState                                  build_my/stm32f4xx_hal_can.o
HAL_CAN_GetTxMailboxesFreeLevel                   build_my/stm32f4xx_hal_can.o
HAL_CAN_GetTxTimestamp                            build_my/stm32f4xx_hal_can.o
HAL_CAN_IRQHandler                                build_my/stm32f4xx_hal_can.o
HAL_CAN_Init                                      build_my/stm32f4xx_hal_can.o
                                                  build_my/can.o
HAL_CAN_IsSleepActive                             build_my/stm32f4xx_hal_can.o
HAL_CAN_IsTxMessagePending                        build_my/stm32f4xx_hal_can.o
HAL_CAN_MspDeInit                                 build_my/can.o
HAL_CAN_MspInit                                   build_my/can.o
HAL_CAN_RequestSleep                              build_my/stm32f4xx_hal_can.o
HAL_CAN_ResetError                                build_my/stm32f4xx_hal_can.o
HAL_CAN_RxFifo0FullCallback                       build_my/stm32f4xx_hal_can.o
HAL_CAN_RxFifo0MsgPendingCallback                 build_my/stm32f4xx_hal_can.o
HAL_CAN_RxFifo1FullCallback                       build_my/stm32f4xx_hal_can.o
HAL_CAN_RxFifo1MsgPendingCallback                 build_my/stm32f4xx_hal_can.o
HAL_CAN_SleepCallback                             build_my/stm32f4xx_hal_can.o
HAL_CAN_Start                                     build_my/stm32f4xx_hal_can.o
HAL_CAN_Stop                                      build_my/stm32f4xx_hal_can.o
HAL_CAN_TxMailbox0AbortCallback                   build_my/stm32f4xx_hal_can.o
HAL_CAN_TxMailbox0CompleteCallback                build_my/stm32f4xx_hal_can.o
HAL_CAN_TxMailbox1AbortCallback                   build_my/stm32f4xx_hal_can.o
HAL_CAN_TxMailbox1CompleteCallback                build_my/stm32f4xx_hal_can.o
HAL_CAN_TxMailbox2AbortCallback                   build_my/stm32f4xx_hal_can.o
HAL_CAN_TxMailbox2CompleteCallback                build_my/stm32f4xx_hal_can.o
HAL_CAN_WakeUp                                    build_my/stm32f4xx_hal_can.o
HAL_CAN_WakeUpFromRxMsgCallback                   build_my/stm32f4xx_hal_can.o
HAL_DACEx_DMAUnderrunCallbackCh2                  build_my/stm32f4xx_hal_dac.o
HAL_DAC_ConfigChannel                             build_my/stm32f4xx_hal_dac.o
                                                  build_my/dac.o
HAL_DAC_ConvCpltCallbackCh1                       build_my/stm32f4xx_hal_dac.o
HAL_DAC_ConvHalfCpltCallbackCh1                   build_my/stm32f4xx_hal_dac.o
HAL_DAC_DMAUnderrunCallbackCh1                    build_my/stm32f4xx_hal_dac.o
HAL_DAC_DeInit                                    build_my/stm32f4xx_hal_dac.o
HAL_DAC_ErrorCallbackCh1                          build_my/stm32f4xx_hal_dac.o
HAL_DAC_GetError                                  build_my/stm32f4xx_hal_dac.o
HAL_DAC_GetState                                  build_my/stm32f4xx_hal_dac.o
HAL_DAC_GetValue                                  build_my/stm32f4xx_hal_dac.o
HAL_DAC_IRQHandler                                build_my/stm32f4xx_hal_dac.o
HAL_DAC_Init                                      build_my/stm32f4xx_hal_dac.o
                                                  build_my/dac.o
HAL_DAC_MspDeInit                                 build_my/dac.o
HAL_DAC_MspInit                                   build_my/dac.o
HAL_DAC_SetValue                                  build_my/stm32f4xx_hal_dac.o
                                                  build_my/dac.o
HAL_DAC_Start                                     build_my/stm32f4xx_hal_dac.o
                                                  build_my/dac.o
HAL_DAC_Start_DMA                                 build_my/stm32f4xx_hal_dac.o
HAL_DAC_Stop                                      build_my/stm32f4xx_hal_dac.o
HAL_DAC_Stop_DMA                                  build_my/stm32f4xx_hal_dac.o
HAL_DBGMCU_DisableDBGSleepMode                    build_my/stm32f4xx_hal.o
HAL_DBGMCU_DisableDBGStandbyMode                  build_my/stm32f4xx_hal.o
HAL_DBGMCU_DisableDBGStopMode                     build_my/stm32f4xx_hal.o
HAL_DBGMCU_EnableDBGSleepMode                     build_my/stm32f4xx_hal.o
HAL_DBGMCU_EnableDBGStandbyMode                   build_my/stm32f4xx_hal.o
HAL_DBGMCU_EnableDBGStopMode                      build_my/stm32f4xx_hal.o
HAL_DMAEx_ChangeMemory                            build_my/stm32f4xx_hal_dma_ex.o
HAL_DMAEx_MultiBufferStart                        build_my/stm32f4xx_hal_dma_ex.o
HAL_DMAEx_MultiBufferStart_IT                     build_my/stm32f4xx_hal_dma_ex.o
HAL_DMA_Abort                                     build_my/stm32f4xx_hal_dma.o
                                                  build_my/stm32f4xx_hal_spi.o
                                                  build_my/stm32f4xx_hal_uart.o
                                                  build_my/stm32f4xx_hal_adc_ex.o
                                                  build_my/stm32f4xx_hal_dac.o
                                                  build_my/stm32f4xx_hal_adc.o
HAL_DMA_Abort_IT                                  build_my/stm32f4xx_hal_dma.o
                                                  build_my/stm32f4xx_hal_spi.o
                                                  build_my/stm32f4xx_hal_uart.o
                                                  build_my/stm32f4xx_hal_tim_ex.o
                                                  build_my/stm32f4xx_hal_tim.o
HAL_DMA_DeInit                                    build_my/stm32f4xx_hal_dma.o
                                                  build_my/usart.o
                                                  build_my/adc.o
HAL_DMA_GetError                                  build_my/stm32f4xx_hal_dma.o
                                                  build_my/stm32f4xx_hal_uart.o
HAL_DMA_GetState                                  build_my/stm32f4xx_hal_dma.o
HAL_DMA_IRQHandler                                build_my/stm32f4xx_hal_dma.o
                                                  build_my/stm32f4xx_it.o
HAL_DMA_Init                                      build_my/stm32f4xx_hal_dma.o
                                                  build_my/spi.o
                                                  build_my/usart.o
                                                  build_my/adc.o
HAL_DMA_PollForTransfer                           build_my/stm32f4xx_hal_dma.o
HAL_DMA_RegisterCallback                          build_my/stm32f4xx_hal_dma.o
HAL_DMA_Start                                     build_my/stm32f4xx_hal_dma.o
HAL_DMA_Start_IT                                  build_my/stm32f4xx_hal_dma.o
                                                  build_my/stm32f4xx_hal_spi.o
                                                  build_my/stm32f4xx_hal_uart.o
                                                  build_my/stm32f4xx_hal_tim_ex.o
                                                  build_my/stm32f4xx_hal_tim.o
                                                  build_my/stm32f4xx_hal_adc_ex.o
                                                  build_my/stm32f4xx_hal_dac.o
                                                  build_my/stm32f4xx_hal_adc.o
HAL_DMA_UnRegisterCallback                        build_my/stm32f4xx_hal_dma.o
HAL_DeInit                                        build_my/stm32f4xx_hal.o
HAL_Delay                                         build_my/stm32f4xx_hal.o
                                                  build_my/stm32f4xx_ll_usb.o
                                                  build_my/cmd_fun.o
                                                  build_my/foc.o
                                                  build_my/SVPWM.o
                                                  build_my/icm20600.o
HAL_DisableCompensationCell                       build_my/stm32f4xx_hal.o
HAL_EXTI_ClearConfigLine                          build_my/stm32f4xx_hal_exti.o
HAL_EXTI_ClearPending                             build_my/stm32f4xx_hal_exti.o
HAL_EXTI_GenerateSWI                              build_my/stm32f4xx_hal_exti.o
HAL_EXTI_GetConfigLine                            build_my/stm32f4xx_hal_exti.o
HAL_EXTI_GetHandle                                build_my/stm32f4xx_hal_exti.o
HAL_EXTI_GetPending                               build_my/stm32f4xx_hal_exti.o
HAL_EXTI_IRQHandler                               build_my/stm32f4xx_hal_exti.o
HAL_EXTI_RegisterCallback                         build_my/stm32f4xx_hal_exti.o
HAL_EXTI_SetConfigLine                            build_my/stm32f4xx_hal_exti.o
HAL_EnableCompensationCell                        build_my/stm32f4xx_hal.o
HAL_FLASHEx_Erase                                 build_my/stm32f4xx_hal_flash_ex.o
                                                  build_my/parameter.o
HAL_FLASHEx_Erase_IT                              build_my/stm32f4xx_hal_flash_ex.o
HAL_FLASHEx_OBGetConfig                           build_my/stm32f4xx_hal_flash_ex.o
HAL_FLASHEx_OBProgram                             build_my/stm32f4xx_hal_flash_ex.o
HAL_FLASH_EndOfOperationCallback                  build_my/stm32f4xx_hal_flash.o
HAL_FLASH_GetError                                build_my/stm32f4xx_hal_flash.o
HAL_FLASH_IRQHandler                              build_my/stm32f4xx_hal_flash.o
HAL_FLASH_Lock                                    build_my/stm32f4xx_hal_flash.o
                                                  build_my/parameter.o
HAL_FLASH_OB_Launch                               build_my/stm32f4xx_hal_flash.o
HAL_FLASH_OB_Lock                                 build_my/stm32f4xx_hal_flash.o
HAL_FLASH_OB_Unlock                               build_my/stm32f4xx_hal_flash.o
HAL_FLASH_OperationErrorCallback                  build_my/stm32f4xx_hal_flash.o
HAL_FLASH_Program                                 build_my/stm32f4xx_hal_flash.o
                                                  build_my/parameter.o
HAL_FLASH_Program_IT                              build_my/stm32f4xx_hal_flash.o
HAL_FLASH_Unlock                                  build_my/stm32f4xx_hal_flash.o
                                                  build_my/parameter.o
HAL_GPIO_DeInit                                   build_my/stm32f4xx_hal_gpio.o
                                                  build_my/spi.o
                                                  build_my/usb_otg.o
                                                  build_my/usart.o
                                                  build_my/can.o
                                                  build_my/adc.o
                                                  build_my/dac.o
HAL_GPIO_EXTI_Callback                            build_my/stm32f4xx_hal_gpio.o
HAL_GPIO_EXTI_IRQHandler                          build_my/stm32f4xx_hal_gpio.o
                                                  build_my/stm32f4xx_it.o
HAL_GPIO_Init                                     build_my/stm32f4xx_hal_gpio.o
                                                  build_my/spi.o
                                                  build_my/stm32f4xx_hal_rcc.o
                                                  build_my/usb_otg.o
                                                  build_my/usart.o
                                                  build_my/tim.o
                                                  build_my/can.o
                                                  build_my/adc.o
                                                  build_my/dac.o
                                                  build_my/gpio.o
                                                  build_my/soft_i2c.o
HAL_GPIO_LockPin                                  build_my/stm32f4xx_hal_gpio.o
HAL_GPIO_ReadPin                                  build_my/stm32f4xx_hal_gpio.o
                                                  build_my/stm32f4xx_it.o
                                                  build_my/soft_i2c.o
                                                  build_my/as5047.o
HAL_GPIO_TogglePin                                build_my/stm32f4xx_hal_gpio.o
HAL_GPIO_WritePin                                 build_my/stm32f4xx_hal_gpio.o
                                                  build_my/foc.o
                                                  build_my/gpio.o
                                                  build_my/spi_slave.o
                                                  build_my/soft_i2c.o
                                                  build_my/as5047.o
HAL_GetDEVID                                      build_my/stm32f4xx_hal.o
HAL_GetHalVersion                                 build_my/stm32f4xx_hal.o
HAL_GetREVID                                      build_my/stm32f4xx_hal.o
HAL_GetTick                                       build_my/stm32f4xx_hal.o
                                                  build_my/stm32f4xx_hal_spi.o
                                                  build_my/stm32f4xx_hal_uart.o
                                                  build_my/stm32f4xx_hal_can.o
                                                  build_my/stm32f4xx_hal_pwr_ex.o
                                                  build_my/stm32f4xx_hal_dma.o
                                                  build_my/stm32f4xx_hal_flash.o
                                                  build_my/stm32f4xx_hal_rcc_ex.o
                                                  build_my/stm32f4xx_hal_rcc.o
                                                  build_my/stm32f4xx_hal_adc_ex.o
                                                  build_my/stm32f4xx_hal_adc.o
                                                  build_my/foc.o
HAL_GetTickFreq                                   build_my/stm32f4xx_hal.o
HAL_GetTickPrio                                   build_my/stm32f4xx_hal.o
HAL_GetUIDw0                                      build_my/stm32f4xx_hal.o
HAL_GetUIDw1                                      build_my/stm32f4xx_hal.o
HAL_GetUIDw2                                      build_my/stm32f4xx_hal.o
HAL_HalfDuplex_EnableReceiver                     build_my/stm32f4xx_hal_uart.o
HAL_HalfDuplex_EnableTransmitter                  build_my/stm32f4xx_hal_uart.o
HAL_HalfDuplex_Init                               build_my/stm32f4xx_hal_uart.o
HAL_IncTick                                       build_my/stm32f4xx_hal.o
                                                  build_my/stm32f4xx_it.o
HAL_Init                                          build_my/stm32f4xx_hal.o
                                                  build_my/main.o
HAL_InitTick                                      build_my/stm32f4xx_hal.o
                                                  build_my/stm32f4xx_hal_rcc_ex.o
                                                  build_my/stm32f4xx_hal_rcc.o
HAL_LIN_Init                                      build_my/stm32f4xx_hal_uart.o
HAL_LIN_SendBreak                                 build_my/stm32f4xx_hal_uart.o
HAL_MPU_ConfigRegion                              build_my/stm32f4xx_hal_cortex.o
HAL_MPU_Disable                                   build_my/stm32f4xx_hal_cortex.o
HAL_MPU_Enable                                    build_my/stm32f4xx_hal_cortex.o
HAL_MspDeInit                                     build_my/stm32f4xx_hal.o
HAL_MspInit                                       build_my/stm32f4xx_hal_msp.o
HAL_MultiProcessor_EnterMuteMode                  build_my/stm32f4xx_hal_uart.o
HAL_MultiProcessor_ExitMuteMode                   build_my/stm32f4xx_hal_uart.o
HAL_MultiProcessor_Init                           build_my/stm32f4xx_hal_uart.o
HAL_NVIC_ClearPendingIRQ                          build_my/stm32f4xx_hal_cortex.o
HAL_NVIC_DisableIRQ                               build_my/stm32f4xx_hal_cortex.o
                                                  build_my/usart.o
                                                  build_my/tim.o
                                                  build_my/foc.o
HAL_NVIC_EnableIRQ                                build_my/stm32f4xx_hal_cortex.o
                                                  build_my/spi.o
                                                  build_my/dma.o
                                                  build_my/usart.o
                                                  build_my/tim.o
                                                  build_my/dac.o
                                                  build_my/foc.o
                                                  build_my/gpio.o
HAL_NVIC_GetActive                                build_my/stm32f4xx_hal_cortex.o
HAL_NVIC_GetPendingIRQ                            build_my/stm32f4xx_hal_cortex.o
HAL_NVIC_GetPriority                              build_my/stm32f4xx_hal_cortex.o
HAL_NVIC_GetPriorityGrouping                      build_my/stm32f4xx_hal_cortex.o
HAL_NVIC_SetPendingIRQ                            build_my/stm32f4xx_hal_cortex.o
HAL_NVIC_SetPriority                              build_my/stm32f4xx_hal_cortex.o
                                                  build_my/spi.o
                                                  build_my/dma.o
                                                  build_my/stm32f4xx_hal.o
                                                  build_my/usart.o
                                                  build_my/tim.o
                                                  build_my/dac.o
                                                  build_my/foc.o
                                                  build_my/gpio.o
HAL_NVIC_SetPriorityGrouping                      build_my/stm32f4xx_hal_cortex.o
                                                  build_my/stm32f4xx_hal.o
HAL_NVIC_SystemReset                              build_my/stm32f4xx_hal_cortex.o
HAL_PCDEx_BCD_Callback                            build_my/stm32f4xx_hal_pcd_ex.o
HAL_PCDEx_LPM_Callback                            build_my/stm32f4xx_hal_pcd_ex.o
                                                  build_my/stm32f4xx_hal_pcd.o
HAL_PCDEx_SetRxFiFo                               build_my/stm32f4xx_hal_pcd_ex.o
HAL_PCDEx_SetTxFiFo                               build_my/stm32f4xx_hal_pcd_ex.o
HAL_PCD_ActivateRemoteWakeup                      build_my/stm32f4xx_hal_pcd.o
HAL_PCD_ConnectCallback                           build_my/stm32f4xx_hal_pcd.o
HAL_PCD_DataInStageCallback                       build_my/stm32f4xx_hal_pcd.o
HAL_PCD_DataOutStageCallback                      build_my/stm32f4xx_hal_pcd.o
HAL_PCD_DeActivateRemoteWakeup                    build_my/stm32f4xx_hal_pcd.o
HAL_PCD_DeInit                                    build_my/stm32f4xx_hal_pcd.o
HAL_PCD_DevConnect                                build_my/stm32f4xx_hal_pcd.o
HAL_PCD_DevDisconnect                             build_my/stm32f4xx_hal_pcd.o
HAL_PCD_DisconnectCallback                        build_my/stm32f4xx_hal_pcd.o
HAL_PCD_EP_Close                                  build_my/stm32f4xx_hal_pcd.o
HAL_PCD_EP_ClrStall                               build_my/stm32f4xx_hal_pcd.o
HAL_PCD_EP_Flush                                  build_my/stm32f4xx_hal_pcd.o
HAL_PCD_EP_GetRxCount                             build_my/stm32f4xx_hal_pcd.o
HAL_PCD_EP_Open                                   build_my/stm32f4xx_hal_pcd.o
HAL_PCD_EP_Receive                                build_my/stm32f4xx_hal_pcd.o
HAL_PCD_EP_SetStall                               build_my/stm32f4xx_hal_pcd.o
HAL_PCD_EP_Transmit                               build_my/stm32f4xx_hal_pcd.o
HAL_PCD_GetState                                  build_my/stm32f4xx_hal_pcd.o
HAL_PCD_IRQHandler                                build_my/stm32f4xx_hal_pcd.o
HAL_PCD_ISOINIncompleteCallback                   build_my/stm32f4xx_hal_pcd.o
HAL_PCD_ISOOUTIncompleteCallback                  build_my/stm32f4xx_hal_pcd.o
HAL_PCD_Init                                      build_my/stm32f4xx_hal_pcd.o
                                                  build_my/usb_otg.o
HAL_PCD_MspDeInit                                 build_my/usb_otg.o
HAL_PCD_MspInit                                   build_my/usb_otg.o
HAL_PCD_ResetCallback                             build_my/stm32f4xx_hal_pcd.o
HAL_PCD_ResumeCallback                            build_my/stm32f4xx_hal_pcd.o
HAL_PCD_SOFCallback                               build_my/stm32f4xx_hal_pcd.o
HAL_PCD_SetAddress                                build_my/stm32f4xx_hal_pcd.o
HAL_PCD_SetupStageCallback                        build_my/stm32f4xx_hal_pcd.o
HAL_PCD_Start                                     build_my/stm32f4xx_hal_pcd.o
HAL_PCD_Stop                                      build_my/stm32f4xx_hal_pcd.o
HAL_PCD_SuspendCallback                           build_my/stm32f4xx_hal_pcd.o
HAL_PWREx_ControlVoltageScaling                   build_my/stm32f4xx_hal_pwr_ex.o
HAL_PWREx_DisableBkUpReg                          build_my/stm32f4xx_hal_pwr_ex.o
HAL_PWREx_DisableFlashPowerDown                   build_my/stm32f4xx_hal_pwr_ex.o
HAL_PWREx_EnableBkUpReg                           build_my/stm32f4xx_hal_pwr_ex.o
HAL_PWREx_EnableFlashPowerDown                    build_my/stm32f4xx_hal_pwr_ex.o
HAL_PWREx_GetVoltageRange                         build_my/stm32f4xx_hal_pwr_ex.o
HAL_PWR_ConfigPVD                                 build_my/stm32f4xx_hal_pwr.o
HAL_PWR_DeInit                                    build_my/stm32f4xx_hal_pwr.o
HAL_PWR_DisableBkUpAccess                         build_my/stm32f4xx_hal_pwr.o
HAL_PWR_DisablePVD                                build_my/stm32f4xx_hal_pwr.o
HAL_PWR_DisableSEVOnPend                          build_my/stm32f4xx_hal_pwr.o
HAL_PWR_DisableSleepOnExit                        build_my/stm32f4xx_hal_pwr.o
HAL_PWR_DisableWakeUpPin                          build_my/stm32f4xx_hal_pwr.o
HAL_PWR_EnableBkUpAccess                          build_my/stm32f4xx_hal_pwr.o
HAL_PWR_EnablePVD                                 build_my/stm32f4xx_hal_pwr.o
HAL_PWR_EnableSEVOnPend                           build_my/stm32f4xx_hal_pwr.o
HAL_PWR_EnableSleepOnExit                         build_my/stm32f4xx_hal_pwr.o
HAL_PWR_EnableWakeUpPin                           build_my/stm32f4xx_hal_pwr.o
HAL_PWR_EnterSLEEPMode                            build_my/stm32f4xx_hal_pwr.o
HAL_PWR_EnterSTANDBYMode                          build_my/stm32f4xx_hal_pwr.o
HAL_PWR_EnterSTOPMode                             build_my/stm32f4xx_hal_pwr.o
HAL_PWR_PVDCallback                               build_my/stm32f4xx_hal_pwr.o
HAL_PWR_PVD_IRQHandler                            build_my/stm32f4xx_hal_pwr.o
HAL_RCCEx_DisablePLLI2S                           build_my/stm32f4xx_hal_rcc_ex.o
HAL_RCCEx_EnablePLLI2S                            build_my/stm32f4xx_hal_rcc_ex.o
HAL_RCCEx_GetPeriphCLKConfig                      build_my/stm32f4xx_hal_rcc_ex.o
HAL_RCCEx_GetPeriphCLKFreq                        build_my/stm32f4xx_hal_rcc_ex.o
HAL_RCCEx_PeriphCLKConfig                         build_my/stm32f4xx_hal_rcc_ex.o
HAL_RCC_CSSCallback                               build_my/stm32f4xx_hal_rcc.o
HAL_RCC_ClockConfig                               build_my/stm32f4xx_hal_rcc.o
                                                  build_my/main.o
HAL_RCC_DeInit                                    build_my/stm32f4xx_hal_rcc_ex.o
                                                  build_my/stm32f4xx_hal_rcc.o
HAL_RCC_DisableCSS                                build_my/stm32f4xx_hal_rcc.o
HAL_RCC_EnableCSS                                 build_my/stm32f4xx_hal_rcc.o
HAL_RCC_GetClockConfig                            build_my/stm32f4xx_hal_rcc.o
HAL_RCC_GetHCLKFreq                               build_my/stm32f4xx_hal_rcc.o
                                                  build_my/stm32f4xx_hal_pcd.o
HAL_RCC_GetOscConfig                              build_my/stm32f4xx_hal_rcc.o
HAL_RCC_GetPCLK1Freq                              build_my/stm32f4xx_hal_rcc.o
                                                  build_my/stm32f4xx_hal_uart.o
HAL_RCC_GetPCLK2Freq                              build_my/stm32f4xx_hal_rcc.o
                                                  build_my/stm32f4xx_hal_uart.o
HAL_RCC_GetSysClockFreq                           build_my/stm32f4xx_hal_rcc.o
HAL_RCC_MCOConfig                                 build_my/stm32f4xx_hal_rcc.o
HAL_RCC_NMI_IRQHandler                            build_my/stm32f4xx_hal_rcc.o
HAL_RCC_OscConfig                                 build_my/stm32f4xx_hal_rcc.o
                                                  build_my/main.o
HAL_ResumeTick                                    build_my/stm32f4xx_hal.o
HAL_SPI_Abort                                     build_my/stm32f4xx_hal_spi.o
                                                  build_my/spi_slave.o
HAL_SPI_AbortCpltCallback                         build_my/stm32f4xx_hal_spi.o
HAL_SPI_Abort_IT                                  build_my/stm32f4xx_hal_spi.o
HAL_SPI_DMAPause                                  build_my/stm32f4xx_hal_spi.o
HAL_SPI_DMAResume                                 build_my/stm32f4xx_hal_spi.o
HAL_SPI_DMAStop                                   build_my/stm32f4xx_hal_spi.o
HAL_SPI_DeInit                                    build_my/stm32f4xx_hal_spi.o
HAL_SPI_ErrorCallback                             build_my/stm32f4xx_hal_spi.o
HAL_SPI_GetError                                  build_my/stm32f4xx_hal_spi.o
HAL_SPI_GetState                                  build_my/stm32f4xx_hal_spi.o
HAL_SPI_IRQHandler                                build_my/stm32f4xx_hal_spi.o
HAL_SPI_Init                                      build_my/stm32f4xx_hal_spi.o
                                                  build_my/spi.o
HAL_SPI_MspDeInit                                 build_my/spi.o
HAL_SPI_MspInit                                   build_my/spi.o
HAL_SPI_Receive                                   build_my/stm32f4xx_hal_spi.o
HAL_SPI_Receive_DMA                               build_my/stm32f4xx_hal_spi.o
HAL_SPI_Receive_IT                                build_my/stm32f4xx_hal_spi.o
HAL_SPI_RxCpltCallback                            build_my/stm32f4xx_hal_spi.o
HAL_SPI_RxHalfCpltCallback                        build_my/stm32f4xx_hal_spi.o
HAL_SPI_Transmit                                  build_my/stm32f4xx_hal_spi.o
HAL_SPI_TransmitReceive                           build_my/stm32f4xx_hal_spi.o
                                                  build_my/spi_slave.o
                                                  build_my/as5047.o
HAL_SPI_TransmitReceive_DMA                       build_my/stm32f4xx_hal_spi.o
                                                  build_my/spi_slave.o
HAL_SPI_TransmitReceive_IT                        build_my/stm32f4xx_hal_spi.o
HAL_SPI_Transmit_DMA                              build_my/stm32f4xx_hal_spi.o
HAL_SPI_Transmit_IT                               build_my/stm32f4xx_hal_spi.o
HAL_SPI_TxCpltCallback                            build_my/stm32f4xx_hal_spi.o
HAL_SPI_TxHalfCpltCallback                        build_my/stm32f4xx_hal_spi.o
HAL_SPI_TxRxCpltCallback                          build_my/spi_slave.o
HAL_SPI_TxRxHalfCpltCallback                      build_my/stm32f4xx_hal_spi.o
HAL_SYSTICK_CLKSourceConfig                       build_my/stm32f4xx_hal_cortex.o
HAL_SYSTICK_Callback                              build_my/stm32f4xx_hal_cortex.o
HAL_SYSTICK_Config                                build_my/stm32f4xx_hal_cortex.o
                                                  build_my/stm32f4xx_hal.o
HAL_SYSTICK_IRQHandler                            build_my/stm32f4xx_hal_cortex.o
HAL_SetTickFreq                                   build_my/stm32f4xx_hal.o
HAL_SuspendTick                                   build_my/stm32f4xx_hal.o
HAL_TIMEx_BreakCallback                           build_my/stm32f4xx_hal_tim_ex.o
                                                  build_my/stm32f4xx_hal_tim.o
HAL_TIMEx_CommutCallback                          build_my/stm32f4xx_hal_tim_ex.o
                                                  build_my/stm32f4xx_hal_tim.o
HAL_TIMEx_CommutHalfCpltCallback                  build_my/stm32f4xx_hal_tim_ex.o
HAL_TIMEx_ConfigBreakDeadTime                     build_my/stm32f4xx_hal_tim_ex.o
                                                  build_my/tim.o
HAL_TIMEx_ConfigCommutEvent                       build_my/stm32f4xx_hal_tim_ex.o
HAL_TIMEx_ConfigCommutEvent_DMA                   build_my/stm32f4xx_hal_tim_ex.o
HAL_TIMEx_ConfigCommutEvent_IT                    build_my/stm32f4xx_hal_tim_ex.o
HAL_TIMEx_HallSensor_DeInit                       build_my/stm32f4xx_hal_tim_ex.o
HAL_TIMEx_HallSensor_GetState                     build_my/stm32f4xx_hal_tim_ex.o
HAL_TIMEx_HallSensor_Init                         build_my/stm32f4xx_hal_tim_ex.o
HAL_TIMEx_HallSensor_MspDeInit                    build_my/stm32f4xx_hal_tim_ex.o
HAL_TIMEx_HallSensor_MspInit                      build_my/stm32f4xx_hal_tim_ex.o
HAL_TIMEx_HallSensor_Start                        build_my/stm32f4xx_hal_tim_ex.o
HAL_TIMEx_HallSensor_Start_DMA                    build_my/stm32f4xx_hal_tim_ex.o
HAL_TIMEx_HallSensor_Start_IT                     build_my/stm32f4xx_hal_tim_ex.o
HAL_TIMEx_HallSensor_Stop                         build_my/stm32f4xx_hal_tim_ex.o
HAL_TIMEx_HallSensor_Stop_DMA                     build_my/stm32f4xx_hal_tim_ex.o
HAL_TIMEx_HallSensor_Stop_IT                      build_my/stm32f4xx_hal_tim_ex.o
HAL_TIMEx_MasterConfigSynchronization             build_my/stm32f4xx_hal_tim_ex.o
                                                  build_my/tim.o
HAL_TIMEx_OCN_Start                               build_my/stm32f4xx_hal_tim_ex.o
HAL_TIMEx_OCN_Start_DMA                           build_my/stm32f4xx_hal_tim_ex.o
HAL_TIMEx_OCN_Start_IT                            build_my/stm32f4xx_hal_tim_ex.o
HAL_TIMEx_OCN_Stop                                build_my/stm32f4xx_hal_tim_ex.o
HAL_TIMEx_OCN_Stop_DMA                            build_my/stm32f4xx_hal_tim_ex.o
HAL_TIMEx_OCN_Stop_IT                             build_my/stm32f4xx_hal_tim_ex.o
HAL_TIMEx_OnePulseN_Start                         build_my/stm32f4xx_hal_tim_ex.o
HAL_TIMEx_OnePulseN_Start_IT                      build_my/stm32f4xx_hal_tim_ex.o
HAL_TIMEx_OnePulseN_Stop                          build_my/stm32f4xx_hal_tim_ex.o
HAL_TIMEx_OnePulseN_Stop_IT                       build_my/stm32f4xx_hal_tim_ex.o
HAL_TIMEx_PWMN_Start                              build_my/stm32f4xx_hal_tim_ex.o
                                                  build_my/foc.o
HAL_TIMEx_PWMN_Start_DMA                          build_my/stm32f4xx_hal_tim_ex.o
HAL_TIMEx_PWMN_Start_IT                           build_my/stm32f4xx_hal_tim_ex.o
HAL_TIMEx_PWMN_Stop                               build_my/stm32f4xx_hal_tim_ex.o
HAL_TIMEx_PWMN_Stop_DMA                           build_my/stm32f4xx_hal_tim_ex.o
HAL_TIMEx_PWMN_Stop_IT                            build_my/stm32f4xx_hal_tim_ex.o
HAL_TIMEx_RemapConfig                             build_my/stm32f4xx_hal_tim_ex.o
HAL_TIM_Base_DeInit                               build_my/stm32f4xx_hal_tim.o
HAL_TIM_Base_GetState                             build_my/stm32f4xx_hal_tim.o
HAL_TIM_Base_Init                                 build_my/stm32f4xx_hal_tim.o
                                                  build_my/tim.o
HAL_TIM_Base_MspDeInit                            build_my/tim.o
HAL_TIM_Base_MspInit                              build_my/tim.o
HAL_TIM_Base_Start                                build_my/stm32f4xx_hal_tim.o
                                                  build_my/foc.o
HAL_TIM_Base_Start_DMA                            build_my/stm32f4xx_hal_tim.o
HAL_TIM_Base_Start_IT                             build_my/stm32f4xx_hal_tim.o
                                                  build_my/foc.o
HAL_TIM_Base_Stop                                 build_my/stm32f4xx_hal_tim.o
HAL_TIM_Base_Stop_DMA                             build_my/stm32f4xx_hal_tim.o
HAL_TIM_Base_Stop_IT                              build_my/stm32f4xx_hal_tim.o
HAL_TIM_ConfigClockSource                         build_my/stm32f4xx_hal_tim.o
HAL_TIM_ConfigOCrefClear                          build_my/stm32f4xx_hal_tim.o
HAL_TIM_ConfigTI1Input                            build_my/stm32f4xx_hal_tim.o
HAL_TIM_DMABurst_ReadStart                        build_my/stm32f4xx_hal_tim.o
HAL_TIM_DMABurst_ReadStop                         build_my/stm32f4xx_hal_tim.o
HAL_TIM_DMABurst_WriteStart                       build_my/stm32f4xx_hal_tim.o
HAL_TIM_DMABurst_WriteStop                        build_my/stm32f4xx_hal_tim.o
HAL_TIM_Encoder_DeInit                            build_my/stm32f4xx_hal_tim.o
HAL_TIM_Encoder_GetState                          build_my/stm32f4xx_hal_tim.o
HAL_TIM_Encoder_Init                              build_my/stm32f4xx_hal_tim.o
HAL_TIM_Encoder_MspDeInit                         build_my/stm32f4xx_hal_tim.o
HAL_TIM_Encoder_MspInit                           build_my/stm32f4xx_hal_tim.o
HAL_TIM_Encoder_Start                             build_my/stm32f4xx_hal_tim.o
HAL_TIM_Encoder_Start_DMA                         build_my/stm32f4xx_hal_tim.o
HAL_TIM_Encoder_Start_IT                          build_my/stm32f4xx_hal_tim.o
HAL_TIM_Encoder_Stop                              build_my/stm32f4xx_hal_tim.o
HAL_TIM_Encoder_Stop_DMA                          build_my/stm32f4xx_hal_tim.o
HAL_TIM_Encoder_Stop_IT                           build_my/stm32f4xx_hal_tim.o
HAL_TIM_ErrorCallback                             build_my/stm32f4xx_hal_tim.o
HAL_TIM_GenerateEvent                             build_my/stm32f4xx_hal_tim.o
HAL_TIM_IC_CaptureCallback                        build_my/stm32f4xx_hal_tim.o
HAL_TIM_IC_CaptureHalfCpltCallback                build_my/stm32f4xx_hal_tim.o
HAL_TIM_IC_ConfigChannel                          build_my/stm32f4xx_hal_tim.o
HAL_TIM_IC_DeInit                                 build_my/stm32f4xx_hal_tim.o
HAL_TIM_IC_GetState                               build_my/stm32f4xx_hal_tim.o
HAL_TIM_IC_Init                                   build_my/stm32f4xx_hal_tim.o
HAL_TIM_IC_MspDeInit                              build_my/stm32f4xx_hal_tim.o
HAL_TIM_IC_MspInit                                build_my/stm32f4xx_hal_tim.o
HAL_TIM_IC_Start                                  build_my/stm32f4xx_hal_tim.o
HAL_TIM_IC_Start_DMA                              build_my/stm32f4xx_hal_tim.o
HAL_TIM_IC_Start_IT                               build_my/stm32f4xx_hal_tim.o
HAL_TIM_IC_Stop                                   build_my/stm32f4xx_hal_tim.o
HAL_TIM_IC_Stop_DMA                               build_my/stm32f4xx_hal_tim.o
HAL_TIM_IC_Stop_IT                                build_my/stm32f4xx_hal_tim.o
HAL_TIM_IRQHandler                                build_my/stm32f4xx_hal_tim.o
                                                  build_my/stm32f4xx_it.o
HAL_TIM_MspPostInit                               build_my/tim.o
HAL_TIM_OC_ConfigChannel                          build_my/stm32f4xx_hal_tim.o
                                                  build_my/tim.o
HAL_TIM_OC_DeInit                                 build_my/stm32f4xx_hal_tim.o
HAL_TIM_OC_DelayElapsedCallback                   build_my/stm32f4xx_hal_tim.o
HAL_TIM_OC_GetState                               build_my/stm32f4xx_hal_tim.o
HAL_TIM_OC_Init                                   build_my/stm32f4xx_hal_tim.o
                                                  build_my/tim.o
HAL_TIM_OC_MspDeInit                              build_my/stm32f4xx_hal_tim.o
HAL_TIM_OC_MspInit                                build_my/stm32f4xx_hal_tim.o
HAL_TIM_OC_Start                                  build_my/stm32f4xx_hal_tim.o
HAL_TIM_OC_Start_DMA                              build_my/stm32f4xx_hal_tim.o
HAL_TIM_OC_Start_IT                               build_my/stm32f4xx_hal_tim.o
HAL_TIM_OC_Stop                                   build_my/stm32f4xx_hal_tim.o
HAL_TIM_OC_Stop_DMA                               build_my/stm32f4xx_hal_tim.o
HAL_TIM_OC_Stop_IT                                build_my/stm32f4xx_hal_tim.o
HAL_TIM_OnePulse_ConfigChannel                    build_my/stm32f4xx_hal_tim.o
HAL_TIM_OnePulse_DeInit                           build_my/stm32f4xx_hal_tim.o
HAL_TIM_OnePulse_GetState                         build_my/stm32f4xx_hal_tim.o
HAL_TIM_OnePulse_Init                             build_my/stm32f4xx_hal_tim.o
HAL_TIM_OnePulse_MspDeInit                        build_my/stm32f4xx_hal_tim.o
HAL_TIM_OnePulse_MspInit                          build_my/stm32f4xx_hal_tim.o
HAL_TIM_OnePulse_Start                            build_my/stm32f4xx_hal_tim.o
HAL_TIM_OnePulse_Start_IT                         build_my/stm32f4xx_hal_tim.o
HAL_TIM_OnePulse_Stop                             build_my/stm32f4xx_hal_tim.o
HAL_TIM_OnePulse_Stop_IT                          build_my/stm32f4xx_hal_tim.o
HAL_TIM_PWM_ConfigChannel                         build_my/stm32f4xx_hal_tim.o
                                                  build_my/tim.o
HAL_TIM_PWM_DeInit                                build_my/stm32f4xx_hal_tim.o
HAL_TIM_PWM_GetState                              build_my/stm32f4xx_hal_tim.o
HAL_TIM_PWM_Init                                  build_my/stm32f4xx_hal_tim.o
                                                  build_my/tim.o
HAL_TIM_PWM_MspDeInit                             build_my/tim.o
HAL_TIM_PWM_MspInit                               build_my/tim.o
HAL_TIM_PWM_PulseFinishedCallback                 build_my/stm32f4xx_hal_tim.o
HAL_TIM_PWM_PulseFinishedHalfCpltCallback         build_my/stm32f4xx_hal_tim.o
HAL_TIM_PWM_Start                                 build_my/stm32f4xx_hal_tim.o
                                                  build_my/foc.o
HAL_TIM_PWM_Start_DMA                             build_my/stm32f4xx_hal_tim.o
HAL_TIM_PWM_Start_IT                              build_my/stm32f4xx_hal_tim.o
HAL_TIM_PWM_Stop                                  build_my/stm32f4xx_hal_tim.o
HAL_TIM_PWM_Stop_DMA                              build_my/stm32f4xx_hal_tim.o
HAL_TIM_PWM_Stop_IT                               build_my/stm32f4xx_hal_tim.o
HAL_TIM_PeriodElapsedCallback                     build_my/stm32f4xx_hal_tim.o
HAL_TIM_PeriodElapsedHalfCpltCallback             build_my/stm32f4xx_hal_tim.o
HAL_TIM_ReadCapturedValue                         build_my/stm32f4xx_hal_tim.o
HAL_TIM_SlaveConfigSynchro                        build_my/stm32f4xx_hal_tim.o
                                                  build_my/tim.o
HAL_TIM_SlaveConfigSynchro_IT                     build_my/stm32f4xx_hal_tim.o
HAL_TIM_TriggerCallback                           build_my/stm32f4xx_hal_tim.o
HAL_TIM_TriggerHalfCpltCallback                   build_my/stm32f4xx_hal_tim.o
HAL_UART_Abort                                    build_my/stm32f4xx_hal_uart.o
HAL_UART_AbortCpltCallback                        build_my/stm32f4xx_hal_uart.o
HAL_UART_AbortReceive                             build_my/stm32f4xx_hal_uart.o
HAL_UART_AbortReceiveCpltCallback                 build_my/stm32f4xx_hal_uart.o
HAL_UART_AbortReceive_IT                          build_my/stm32f4xx_hal_uart.o
HAL_UART_AbortTransmit                            build_my/stm32f4xx_hal_uart.o
HAL_UART_AbortTransmitCpltCallback                build_my/stm32f4xx_hal_uart.o
HAL_UART_AbortTransmit_IT                         build_my/stm32f4xx_hal_uart.o
HAL_UART_Abort_IT                                 build_my/stm32f4xx_hal_uart.o
HAL_UART_DMAPause                                 build_my/stm32f4xx_hal_uart.o
HAL_UART_DMAResume                                build_my/stm32f4xx_hal_uart.o
HAL_UART_DMAStop                                  build_my/stm32f4xx_hal_uart.o
                                                  build_my/uart_ext.o
HAL_UART_DeInit                                   build_my/stm32f4xx_hal_uart.o
HAL_UART_ErrorCallback                            build_my/stm32f4xx_hal_uart.o
HAL_UART_GetError                                 build_my/stm32f4xx_hal_uart.o
HAL_UART_GetState                                 build_my/stm32f4xx_hal_uart.o
HAL_UART_IDLECallback                             build_my/uart_ext.o
                                                  build_my/stm32f4xx_it.o
HAL_UART_IRQHandler                               build_my/stm32f4xx_hal_uart.o
                                                  build_my/stm32f4xx_it.o
HAL_UART_Init                                     build_my/stm32f4xx_hal_uart.o
                                                  build_my/usart.o
HAL_UART_MspDeInit                                build_my/usart.o
HAL_UART_MspInit                                  build_my/usart.o
HAL_UART_Receive                                  build_my/stm32f4xx_hal_uart.o
HAL_UART_Receive_DMA                              build_my/stm32f4xx_hal_uart.o
                                                  build_my/uart_ext.o
HAL_UART_Receive_IT                               build_my/stm32f4xx_hal_uart.o
                                                  build_my/uart_ext.o
HAL_UART_RxCpltCallback                           build_my/uart_ext.o
HAL_UART_RxHalfCpltCallback                       build_my/stm32f4xx_hal_uart.o
HAL_UART_Transmit                                 build_my/stm32f4xx_hal_uart.o
                                                  build_my/uart_ext.o
HAL_UART_Transmit_DMA                             build_my/stm32f4xx_hal_uart.o
                                                  build_my/uart_ext.o
HAL_UART_Transmit_IT                              build_my/stm32f4xx_hal_uart.o
                                                  build_my/uart_ext.o
HAL_UART_TxCpltCallback                           build_my/stm32f4xx_hal_uart.o
HAL_UART_TxHalfCpltCallback                       build_my/stm32f4xx_hal_uart.o
HASH_RNG_IRQHandler                               build_my/startup_stm32f405xx.o
HardFault_Handler                                 build_my/stm32f4xx_it.o
I2C1_ER_IRQHandler                                build_my/startup_stm32f405xx.o
I2C1_EV_IRQHandler                                build_my/startup_stm32f405xx.o
I2C2_ER_IRQHandler                                build_my/startup_stm32f405xx.o
I2C2_EV_IRQHandler                                build_my/startup_stm32f405xx.o
I2C3_ER_IRQHandler                                build_my/startup_stm32f405xx.o
I2C3_EV_IRQHandler                                build_my/startup_stm32f405xx.o
I2C_Error_Check                                   build_my/icm20600.o
I2C_GetAck                                        build_my/soft_i2c.o
I2C_ReadByte                                      build_my/soft_i2c.o
I2C_Read_Buffer                                   build_my/soft_i2c.o
                                                  build_my/icm20600.o
I2C_Reset                                         build_my/soft_i2c.o
                                                  build_my/icm20600.o
I2C_SendByte                                      build_my/soft_i2c.o
I2C_Start                                         build_my/soft_i2c.o
I2C_Stop                                          build_my/soft_i2c.o
I2C_Write_Buffer                                  build_my/soft_i2c.o
                                                  build_my/icm20600.o
I2C_delay                                         build_my/soft_i2c.o
Id_PID                                            build_my/foc.o
                                                  build_my/cmd_fun.o
                                                  build_my/parameter.o
Id_Set                                            build_my/foc.o
                                                  build_my/cmd_fun.o
Init_OK                                           build_my/main.o
Iq_PID                                            build_my/foc.o
                                                  build_my/cmd_fun.o
                                                  build_my/parameter.o
Iq_Set                                            build_my/foc.o
                                                  build_my/cmd_fun.o
Last_Mode                                         build_my/foc.o
MPU9250                                           build_my/icm20600.o
MPU9250_Init                                      build_my/icm20600.o
MPU9250_Setting                                   build_my/icm20600.o
MPU_Read6500                                      build_my/icm20600.o
MX_ADC1_Init                                      build_my/adc.o
                                                  build_my/main.o
MX_ADC1_Init_Old                                  build_my/adc.o
MX_ADC2_Init                                      build_my/adc.o
                                                  build_my/main.o
MX_ADC3_Init                                      build_my/adc.o
                                                  build_my/main.o
MX_CAN1_Init                                      build_my/can.o
MX_DAC_Init                                       build_my/dac.o
                                                  build_my/main.o
MX_DMA_Init                                       build_my/dma.o
                                                  build_my/main.o
MX_GPIO_Init                                      build_my/gpio.o
                                                  build_my/main.o
MX_SPI1_Init                                      build_my/spi.o
                                                  build_my/main.o
MX_SPI3_Init                                      build_my/spi.o
                                                  build_my/main.o
MX_SYS_Init                                       build_my/sys.o
MX_TIM1_Init                                      build_my/tim.o
                                                  build_my/main.o
MX_TIM6_Init                                      build_my/tim.o
                                                  build_my/main.o
MX_TIM7_Init                                      build_my/tim.o
                                                  build_my/main.o
MX_TIM8_Init                                      build_my/tim.o
                                                  build_my/main.o
MX_UART5_Init                                     build_my/usart.o
                                                  build_my/main.o
MX_USB_OTG_FS_PCD_Init                            build_my/usb_otg.o
Measure_Ind                                       build_my/foc.o
                                                  build_my/cmd_fun.o
Measure_Ind_Flag                                  build_my/foc.o
Measure_Ind_Handler                               build_my/foc.o
Measure_Res                                       build_my/foc.o
                                                  build_my/cmd_fun.o
Measure_Res_Flag                                  build_my/foc.o
Measure_Sample                                    build_my/foc.o
MemManage_Handler                                 build_my/stm32f4xx_it.o
Motor                                             build_my/foc.o
                                                  build_my/cmd_fun.o
                                                  build_my/parameter.o
Ms_5_Flag                                         build_my/main.o
NMI_Handler                                       build_my/stm32f4xx_it.o
OTG_FS_IRQHandler                                 build_my/startup_stm32f405xx.o
OTG_FS_WKUP_IRQHandler                            build_my/startup_stm32f405xx.o
OTG_HS_EP1_IN_IRQHandler                          build_my/startup_stm32f405xx.o
OTG_HS_EP1_OUT_IRQHandler                         build_my/startup_stm32f405xx.o
OTG_HS_IRQHandler                                 build_my/startup_stm32f405xx.o
OTG_HS_WKUP_IRQHandler                            build_my/startup_stm32f405xx.o
Openloop_Runing                                   build_my/foc.o
PID_Control                                       build_my/pid.o
                                                  build_my/foc.o
PID_I_Clear                                       build_my/foc.o
PVD_IRQHandler                                    build_my/startup_stm32f405xx.o
Park_Conv                                         build_my/foc.o
PendSV_Handler                                    build_my/stm32f4xx_it.o
Phi                                               build_my/foc.o
                                                  build_my/cmd_fun.o
                                                  build_my/foc_spi_com.o
                                                  build_my/parameter.o
Position                                          build_my/foc.o
Position_Control_CNT_MAX                          build_my/foc.o
Position_Degree                                   build_my/foc.o
                                                  build_my/cmd_fun.o
                                                  build_my/foc_spi_com.o
                                                  build_my/utils.o
Position_Degree_Set                               build_my/foc.o
                                                  build_my/cmd_fun.o
Position_Offset                                   build_my/foc.o
                                                  build_my/cmd_fun.o
                                                  build_my/foc_spi_com.o
                                                  build_my/parameter.o
Position_PID                                      build_my/foc.o
                                                  build_my/cmd_fun.o
Position_Phase_Degree                             build_my/foc.o
                                                  build_my/utils.o
Position_to_Rad_Dgree                             build_my/as5047.o
                                                  build_my/foc.o
Print_Parameters                                  build_my/parameter.o
RCC_IRQHandler                                    build_my/startup_stm32f405xx.o
RTC_Alarm_IRQHandler                              build_my/startup_stm32f405xx.o
RTC_WKUP_IRQHandler                               build_my/startup_stm32f405xx.o
Read_Parameters                                   build_my/parameter.o
                                                  build_my/main.o
Read_Reg                                          build_my/as5047.o
Reset_Handler                                     build_my/startup_stm32f405xx.o
Reverse_Park_Conv                                 build_my/foc.o
SDIO_IRQHandler                                   build_my/startup_stm32f405xx.o
SPI1_IRQHandler                                   build_my/stm32f4xx_it.o
SPI2_IRQHandler                                   build_my/startup_stm32f405xx.o
SPI3_IRQHandler                                   build_my/startup_stm32f405xx.o
SPI_COM_Master_Init                               build_my/spi_slave.o
SPI_COM_Master_Read_Reg                           build_my/spi_slave.o
SPI_COM_Master_Write_Reg                          build_my/spi_slave.o
SPI_Com_Init                                      build_my/foc_spi_com.o
                                                  build_my/main.o
SPI_Com_Val_List                                  build_my/foc_spi_com.o
                                                  build_my/spi_slave.o
SPI_Slave_CSN_Handler                             build_my/spi_slave.o
                                                  build_my/stm32f4xx_it.o
SPI_Slave_Init                                    build_my/spi_slave.o
                                                  build_my/foc_spi_com.o
SPI_Slave_Normal_Hanlder                          build_my/spi_slave.o
SPI_Slave_Test                                    build_my/foc_spi_com.o
                                                  build_my/cmd_fun.o
SPI_Slave_Test2                                   build_my/foc_spi_com.o
                                                  build_my/cmd_fun.o
SPI_Slave_Test3                                   build_my/foc_spi_com.o
                                                  build_my/cmd_fun.o
SPI_Slave_TransmitReceive                         build_my/spi_slave.o
SPI_USE                                           build_my/as5047.o
SPI_Write                                         build_my/as5047.o
SVC_Handler                                       build_my/stm32f4xx_it.o
SVPWM                                             build_my/SVPWM.o
                                                  build_my/foc.o
SVPWM_Alpha_Beta                                  build_my/SVPWM.o
                                                  build_my/foc.o
SVPWM_Step                                        build_my/SVPWM.o
                                                  build_my/foc.o
Set_Vector                                        build_my/SVPWM.o
                                                  build_my/cmd_fun.o
                                                  build_my/foc.o
Set_to_Un                                         build_my/SVPWM.o
                                                  build_my/cmd_fun.o
Soft_I2C_Init                                     build_my/soft_i2c.o
Soft_SPI_Read_Write                               build_my/as5047.o
Special_Id_PID                                    build_my/foc.o
                                                  build_my/cmd_fun.o
Speed                                             build_my/foc.o
                                                  build_my/utils.o
Speed_Attitude                                    build_my/foc.o
                                                  build_my/cmd_fun.o
Speed_Control_CNT_MAX                             build_my/foc.o
Speed_PID                                         build_my/foc.o
                                                  build_my/cmd_fun.o
Speed_Set                                         build_my/foc.o
                                                  build_my/cmd_fun.o
SysTick_Handler                                   build_my/stm32f4xx_it.o
SystemClock_Config                                build_my/main.o
SystemCoreClock                                   build_my/system_stm32f4xx.o
                                                  build_my/stm32f4xx_hal_spi.o
                                                  build_my/stm32f4xx_hal.o
                                                  build_my/stm32f4xx_hal_dma.o
                                                  build_my/stm32f4xx_hal_rcc_ex.o
                                                  build_my/stm32f4xx_hal_rcc.o
                                                  build_my/stm32f4xx_hal_adc_ex.o
                                                  build_my/stm32f4xx_hal_adc.o
SystemCoreClockUpdate                             build_my/system_stm32f4xx.o
SystemInit                                        build_my/system_stm32f4xx.o
                                                  build_my/startup_stm32f405xx.o
TAMP_STAMP_IRQHandler                             build_my/startup_stm32f405xx.o
TIM1_BRK_TIM9_IRQHandler                          build_my/startup_stm32f405xx.o
TIM1_CC_IRQHandler                                build_my/startup_stm32f405xx.o
TIM1_TRG_COM_TIM11_IRQHandler                     build_my/startup_stm32f405xx.o
TIM1_UP_TIM10_IRQHandler                          build_my/stm32f4xx_it.o
TIM2_IRQHandler                                   build_my/startup_stm32f405xx.o
TIM3_IRQHandler                                   build_my/startup_stm32f405xx.o
TIM4_IRQHandler                                   build_my/startup_stm32f405xx.o
TIM5_IRQHandler                                   build_my/startup_stm32f405xx.o
TIM6_DAC_IRQHandler                               build_my/stm32f4xx_it.o
TIM7_IRQHandler                                   build_my/stm32f4xx_it.o
TIM8_BRK_TIM12_IRQHandler                         build_my/startup_stm32f405xx.o
TIM8_CC_IRQHandler                                build_my/startup_stm32f405xx.o
TIM8_TRG_COM_TIM14_IRQHandler                     build_my/startup_stm32f405xx.o
TIM8_UP_TIM13_IRQHandler                          build_my/startup_stm32f405xx.o
TIMEx_DMACommutationCplt                          build_my/stm32f4xx_hal_tim_ex.o
                                                  build_my/stm32f4xx_hal_tim.o
TIMEx_DMACommutationHalfCplt                      build_my/stm32f4xx_hal_tim_ex.o
                                                  build_my/stm32f4xx_hal_tim.o
TIM_Base_SetConfig                                build_my/stm32f4xx_hal_tim.o
                                                  build_my/stm32f4xx_hal_tim_ex.o
TIM_CCxChannelCmd                                 build_my/stm32f4xx_hal_tim.o
                                                  build_my/stm32f4xx_hal_tim_ex.o
TIM_DMACaptureCplt                                build_my/stm32f4xx_hal_tim.o
                                                  build_my/stm32f4xx_hal_tim_ex.o
TIM_DMACaptureHalfCplt                            build_my/stm32f4xx_hal_tim.o
                                                  build_my/stm32f4xx_hal_tim_ex.o
TIM_DMADelayPulseCplt                             build_my/stm32f4xx_hal_tim.o
                                                  build_my/stm32f4xx_hal_tim_ex.o
TIM_DMADelayPulseHalfCplt                         build_my/stm32f4xx_hal_tim.o
                                                  build_my/stm32f4xx_hal_tim_ex.o
TIM_DMAError                                      build_my/stm32f4xx_hal_tim.o
                                                  build_my/stm32f4xx_hal_tim_ex.o
TIM_ETR_SetConfig                                 build_my/stm32f4xx_hal_tim.o
TIM_OC2_SetConfig                                 build_my/stm32f4xx_hal_tim.o
                                                  build_my/stm32f4xx_hal_tim_ex.o
TIM_TI1_SetConfig                                 build_my/stm32f4xx_hal_tim.o
                                                  build_my/stm32f4xx_hal_tim_ex.o
Test_Direction                                    build_my/foc.o
                                                  build_my/cmd_fun.o
U0                                                build_my/SVPWM.o
                                                  build_my/cmd_fun.o
                                                  build_my/foc.o
U1                                                build_my/SVPWM.o
U2                                                build_my/SVPWM.o
U3                                                build_my/SVPWM.o
U4                                                build_my/SVPWM.o
                                                  build_my/cmd_fun.o
U5                                                build_my/SVPWM.o
U6                                                build_my/SVPWM.o
U7                                                build_my/SVPWM.o
UART4_IRQHandler                                  build_my/startup_stm32f405xx.o
UART5_IRQHandler                                  build_my/stm32f4xx_it.o
UART_Command_Analize_And_Call                     build_my/uart_ext.o
                                                  build_my/main.o
UART_Large_Reveice                                build_my/uart_ext.o
UART_Start_Receive                                build_my/uart_ext.o
USART1_IRQHandler                                 build_my/startup_stm32f405xx.o
USART2_IRQHandler                                 build_my/startup_stm32f405xx.o
USART3_IRQHandler                                 build_my/startup_stm32f405xx.o
USART6_IRQHandler                                 build_my/startup_stm32f405xx.o
USB_ActivateDedicatedEndpoint                     build_my/stm32f4xx_ll_usb.o
USB_ActivateEndpoint                              build_my/stm32f4xx_ll_usb.o
                                                  build_my/stm32f4xx_hal_pcd.o
USB_ActivateRemoteWakeup                          build_my/stm32f4xx_ll_usb.o
                                                  build_my/stm32f4xx_hal_pcd.o
USB_ActivateSetup                                 build_my/stm32f4xx_ll_usb.o
                                                  build_my/stm32f4xx_hal_pcd.o
USB_ClearInterrupts                               build_my/stm32f4xx_ll_usb.o
USB_CoreInit                                      build_my/stm32f4xx_ll_usb.o
                                                  build_my/stm32f4xx_hal_pcd.o
USB_DeActivateRemoteWakeup                        build_my/stm32f4xx_ll_usb.o
                                                  build_my/stm32f4xx_hal_pcd.o
USB_DeactivateDedicatedEndpoint                   build_my/stm32f4xx_ll_usb.o
USB_DeactivateEndpoint                            build_my/stm32f4xx_ll_usb.o
                                                  build_my/stm32f4xx_hal_pcd.o
USB_DevConnect                                    build_my/stm32f4xx_ll_usb.o
                                                  build_my/stm32f4xx_hal_pcd.o
USB_DevDisconnect                                 build_my/stm32f4xx_ll_usb.o
                                                  build_my/stm32f4xx_hal_pcd.o
USB_DevInit                                       build_my/stm32f4xx_ll_usb.o
                                                  build_my/stm32f4xx_hal_pcd.o
USB_DisableGlobalInt                              build_my/stm32f4xx_ll_usb.o
                                                  build_my/stm32f4xx_hal_pcd.o
USB_DoPing                                        build_my/stm32f4xx_ll_usb.o
USB_DriveVbus                                     build_my/stm32f4xx_ll_usb.o
USB_EP0StartXfer                                  build_my/stm32f4xx_ll_usb.o
                                                  build_my/stm32f4xx_hal_pcd.o
USB_EP0_OutStart                                  build_my/stm32f4xx_ll_usb.o
                                                  build_my/stm32f4xx_hal_pcd.o
USB_EPClearStall                                  build_my/stm32f4xx_ll_usb.o
                                                  build_my/stm32f4xx_hal_pcd.o
USB_EPSetStall                                    build_my/stm32f4xx_ll_usb.o
                                                  build_my/stm32f4xx_hal_pcd.o
USB_EPStartXfer                                   build_my/stm32f4xx_ll_usb.o
                                                  build_my/stm32f4xx_hal_pcd.o
USB_EnableGlobalInt                               build_my/stm32f4xx_ll_usb.o
                                                  build_my/stm32f4xx_hal_pcd.o
USB_FlushRxFifo                                   build_my/stm32f4xx_ll_usb.o
                                                  build_my/stm32f4xx_hal_pcd.o
USB_FlushTxFifo                                   build_my/stm32f4xx_ll_usb.o
                                                  build_my/stm32f4xx_hal_pcd.o
USB_GetCurrentFrame                               build_my/stm32f4xx_ll_usb.o
USB_GetDevSpeed                                   build_my/stm32f4xx_ll_usb.o
                                                  build_my/stm32f4xx_hal_pcd.o
USB_GetHostSpeed                                  build_my/stm32f4xx_ll_usb.o
USB_GetMode                                       build_my/stm32f4xx_ll_usb.o
                                                  build_my/stm32f4xx_hal_pcd.o
USB_HC_Halt                                       build_my/stm32f4xx_ll_usb.o
USB_HC_Init                                       build_my/stm32f4xx_ll_usb.o
USB_HC_ReadInterrupt                              build_my/stm32f4xx_ll_usb.o
USB_HC_StartXfer                                  build_my/stm32f4xx_ll_usb.o
USB_HostInit                                      build_my/stm32f4xx_ll_usb.o
USB_InitFSLSPClkSel                               build_my/stm32f4xx_ll_usb.o
USB_ReadDevAllInEpInterrupt                       build_my/stm32f4xx_ll_usb.o
                                                  build_my/stm32f4xx_hal_pcd.o
USB_ReadDevAllOutEpInterrupt                      build_my/stm32f4xx_ll_usb.o
                                                  build_my/stm32f4xx_hal_pcd.o
USB_ReadDevInEPInterrupt                          build_my/stm32f4xx_ll_usb.o
                                                  build_my/stm32f4xx_hal_pcd.o
USB_ReadDevOutEPInterrupt                         build_my/stm32f4xx_ll_usb.o
                                                  build_my/stm32f4xx_hal_pcd.o
USB_ReadInterrupts                                build_my/stm32f4xx_ll_usb.o
                                                  build_my/stm32f4xx_hal_pcd.o
USB_ReadPacket                                    build_my/stm32f4xx_ll_usb.o
                                                  build_my/stm32f4xx_hal_pcd.o
USB_ResetPort                                     build_my/stm32f4xx_ll_usb.o
USB_SetCurrentMode                                build_my/stm32f4xx_ll_usb.o
                                                  build_my/stm32f4xx_hal_pcd.o
USB_SetDevAddress                                 build_my/stm32f4xx_ll_usb.o
                                                  build_my/stm32f4xx_hal_pcd.o
USB_SetDevSpeed                                   build_my/stm32f4xx_ll_usb.o
USB_SetTurnaroundTime                             build_my/stm32f4xx_ll_usb.o
                                                  build_my/stm32f4xx_hal_pcd.o
USB_StopDevice                                    build_my/stm32f4xx_ll_usb.o
                                                  build_my/stm32f4xx_hal_pcd.o
USB_StopHost                                      build_my/stm32f4xx_ll_usb.o
USB_WritePacket                                   build_my/stm32f4xx_ll_usb.o
                                                  build_my/stm32f4xx_hal_pcd.o
UsageFault_Handler                                build_my/stm32f4xx_it.o
Var_List                                          build_my/cmd_fun.o
WWDG_IRQHandler                                   build_my/startup_stm32f405xx.o
Wave_Flag                                         build_my/debug_utils.o
                                                  build_my/cmd_fun.o
Wave_ID                                           build_my/debug_utils.o
                                                  build_my/cmd_fun.o
Write_Parameter                                   build_my/parameter.o
                                                  build_my/cmd_fun.o
_Balloc                                           c:/arm_gcc/bin/../lib/gcc/arm-none-eabi/9.2.1/../../../../arm-none-eabi/lib/thumb/v7e-m+fp/hard\libc_nano.a(lib_a-mprec.o)
                                                  c:/arm_gcc/bin/../lib/gcc/arm-none-eabi/9.2.1/../../../../arm-none-eabi/lib/thumb/v7e-m+fp/hard\libc_nano.a(lib_a-gdtoa-gethex.o)
                                                  c:/arm_gcc/bin/../lib/gcc/arm-none-eabi/9.2.1/../../../../arm-none-eabi/lib/thumb/v7e-m+fp/hard\libc_nano.a(lib_a-dtoa.o)
                                                  c:/arm_gcc/bin/../lib/gcc/arm-none-eabi/9.2.1/../../../../arm-none-eabi/lib/thumb/v7e-m+fp/hard\libc_nano.a(lib_a-strtod.o)
_Bfree                                            c:/arm_gcc/bin/../lib/gcc/arm-none-eabi/9.2.1/../../../../arm-none-eabi/lib/thumb/v7e-m+fp/hard\libc_nano.a(lib_a-mprec.o)
                                                  c:/arm_gcc/bin/../lib/gcc/arm-none-eabi/9.2.1/../../../../arm-none-eabi/lib/thumb/v7e-m+fp/hard\libc_nano.a(lib_a-gdtoa-gethex.o)
                                                  c:/arm_gcc/bin/../lib/gcc/arm-none-eabi/9.2.1/../../../../arm-none-eabi/lib/thumb/v7e-m+fp/hard\libc_nano.a(lib_a-dtoa.o)
                                                  c:/arm_gcc/bin/../lib/gcc/arm-none-eabi/9.2.1/../../../../arm-none-eabi/lib/thumb/v7e-m+fp/hard\libc_nano.a(lib_a-strtod.o)
_C_numeric_locale                                 c:/arm_gcc/bin/../lib/gcc/arm-none-eabi/9.2.1/../../../../arm-none-eabi/lib/thumb/v7e-m+fp/hard\libc_nano.a(lib_a-lnumeric.o)
                                                  c:/arm_gcc/bin/../lib/gcc/arm-none-eabi/9.2.1/../../../../arm-none-eabi/lib/thumb/v7e-m+fp/hard\libc_nano.a(lib_a-gdtoa-gethex.o)
                                                  c:/arm_gcc/bin/../lib/gcc/arm-none-eabi/9.2.1/../../../../arm-none-eabi/lib/thumb/v7e-m+fp/hard\libc_nano.a(lib_a-strtod.o)
_PathLocale                                       c:/arm_gcc/bin/../lib/gcc/arm-none-eabi/9.2.1/../../../../arm-none-eabi/lib/thumb/v7e-m+fp/hard\libc_nano.a(lib_a-locale.o)
__adddf3                                          c:/arm_gcc/bin/../lib/gcc/arm-none-eabi/9.2.1/thumb/v7e-m+fp/hard\libgcc.a(_arm_addsubdf3.o)
__aeabi_cdcmpeq                                   c:/arm_gcc/bin/../lib/gcc/arm-none-eabi/9.2.1/thumb/v7e-m+fp/hard\libgcc.a(_arm_cmpdf2.o)
__aeabi_cdcmple                                   c:/arm_gcc/bin/../lib/gcc/arm-none-eabi/9.2.1/thumb/v7e-m+fp/hard\libgcc.a(_arm_cmpdf2.o)
__aeabi_cdrcmple                                  c:/arm_gcc/bin/../lib/gcc/arm-none-eabi/9.2.1/thumb/v7e-m+fp/hard\libgcc.a(_arm_cmpdf2.o)
__aeabi_d2f                                       c:/arm_gcc/bin/../lib/gcc/arm-none-eabi/9.2.1/thumb/v7e-m+fp/hard\libgcc.a(_arm_truncdfsf2.o)
                                                  c:/arm_gcc/bin/../lib/gcc/arm-none-eabi/9.2.1/../../../../arm-none-eabi/lib/thumb/v7e-m+fp/hard\libm.a(lib_a-wf_sqrt.o)
                                                  c:/arm_gcc/bin/../lib/gcc/arm-none-eabi/9.2.1/../../../../arm-none-eabi/lib/thumb/v7e-m+fp/hard\libm.a(lib_a-wf_acos.o)
                                                  c:/arm_gcc/bin/../lib/gcc/arm-none-eabi/9.2.1/../../../../arm-none-eabi/lib/thumb/v7e-m+fp/hard\libc_nano.a(lib_a-strtod.o)
                                                  build_my/tim.o
                                                  build_my/foc.o
                                                  build_my/easy_angle.o
                                                  build_my/command.o
__aeabi_d2iz                                      c:/arm_gcc/bin/../lib/gcc/arm-none-eabi/9.2.1/thumb/v7e-m+fp/hard\libgcc.a(_arm_fixdfsi.o)
                                                  c:/arm_gcc/bin/../lib/gcc/arm-none-eabi/9.2.1/../../../../arm-none-eabi/lib/thumb/v7e-m+fp/hard\libc_nano.a(lib_a-dtoa.o)
__aeabi_d2lz                                      c:/arm_gcc/bin/../lib/gcc/arm-none-eabi/9.2.1/thumb/v7e-m+fp/hard\libgcc.a(_fixdfdi.o)
                                                  c:/arm_gcc/bin/../lib/gcc/arm-none-eabi/9.2.1/../../../../arm-none-eabi/lib/thumb/v7e-m+fp/hard\libc_nano.a(lib_a-strtod.o)
__aeabi_d2uiz                                     c:/arm_gcc/bin/../lib/gcc/arm-none-eabi/9.2.1/thumb/v7e-m+fp/hard\libgcc.a(_arm_fixunsdfsi.o)
                                                  c:/arm_gcc/bin/../lib/gcc/arm-none-eabi/9.2.1/thumb/v7e-m+fp/hard\libgcc.a(_fixunsdfdi.o)
                                                  c:/arm_gcc/bin/../lib/gcc/arm-none-eabi/9.2.1/../../../../arm-none-eabi/lib/thumb/v7e-m+fp/hard\libc_nano.a(lib_a-strtod.o)
                                                  build_my/tim.o
__aeabi_d2ulz                                     c:/arm_gcc/bin/../lib/gcc/arm-none-eabi/9.2.1/thumb/v7e-m+fp/hard\libgcc.a(_fixunsdfdi.o)
                                                  c:/arm_gcc/bin/../lib/gcc/arm-none-eabi/9.2.1/thumb/v7e-m+fp/hard\libgcc.a(_fixdfdi.o)
__aeabi_dadd                                      c:/arm_gcc/bin/../lib/gcc/arm-none-eabi/9.2.1/thumb/v7e-m+fp/hard\libgcc.a(_arm_addsubdf3.o)
                                                  c:/arm_gcc/bin/../lib/gcc/arm-none-eabi/9.2.1/../../../../arm-none-eabi/lib/thumb/v7e-m+fp/hard\libc_nano.a(lib_a-dtoa.o)
                                                  c:/arm_gcc/bin/../lib/gcc/arm-none-eabi/9.2.1/../../../../arm-none-eabi/lib/thumb/v7e-m+fp/hard\libc_nano.a(lib_a-strtod.o)
                                                  build_my/tim.o
                                                  build_my/foc.o
                                                  build_my/easy_angle.o
__aeabi_dcmpeq                                    c:/arm_gcc/bin/../lib/gcc/arm-none-eabi/9.2.1/thumb/v7e-m+fp/hard\libgcc.a(_arm_cmpdf2.o)
                                                  c:/arm_gcc/bin/../lib/gcc/arm-none-eabi/9.2.1/../../../../arm-none-eabi/lib/thumb/v7e-m+fp/hard\libc_nano.a(lib_a-dtoa.o)
                                                  c:/arm_gcc/bin/../lib/gcc/arm-none-eabi/9.2.1/../../../../arm-none-eabi/lib/thumb/v7e-m+fp/hard\libc_nano.a(lib_a-strtod.o)
                                                  c:/arm_gcc/bin/../lib/gcc/arm-none-eabi/9.2.1/../../../../arm-none-eabi/lib/thumb/v7e-m+fp/hard\libc_nano.a(lib_a-nano-vfprintf_float.o)
__aeabi_dcmpge                                    c:/arm_gcc/bin/../lib/gcc/arm-none-eabi/9.2.1/thumb/v7e-m+fp/hard\libgcc.a(_arm_cmpdf2.o)
                                                  c:/arm_gcc/bin/../lib/gcc/arm-none-eabi/9.2.1/../../../../arm-none-eabi/lib/thumb/v7e-m+fp/hard\libc_nano.a(lib_a-dtoa.o)
__aeabi_dcmpgt                                    c:/arm_gcc/bin/../lib/gcc/arm-none-eabi/9.2.1/thumb/v7e-m+fp/hard\libgcc.a(_arm_cmpdf2.o)
                                                  c:/arm_gcc/bin/../lib/gcc/arm-none-eabi/9.2.1/../../../../arm-none-eabi/lib/thumb/v7e-m+fp/hard\libc_nano.a(lib_a-dtoa.o)
                                                  c:/arm_gcc/bin/../lib/gcc/arm-none-eabi/9.2.1/../../../../arm-none-eabi/lib/thumb/v7e-m+fp/hard\libc_nano.a(lib_a-strtod.o)
__aeabi_dcmple                                    c:/arm_gcc/bin/../lib/gcc/arm-none-eabi/9.2.1/thumb/v7e-m+fp/hard\libgcc.a(_arm_cmpdf2.o)
                                                  c:/arm_gcc/bin/../lib/gcc/arm-none-eabi/9.2.1/../../../../arm-none-eabi/lib/thumb/v7e-m+fp/hard\libc_nano.a(lib_a-strtod.o)
                                                  c:/arm_gcc/bin/../lib/gcc/arm-none-eabi/9.2.1/../../../../arm-none-eabi/lib/thumb/v7e-m+fp/hard\libc_nano.a(lib_a-nano-vfprintf_float.o)
                                                  build_my/tim.o
__aeabi_dcmplt                                    c:/arm_gcc/bin/../lib/gcc/arm-none-eabi/9.2.1/thumb/v7e-m+fp/hard\libgcc.a(_arm_cmpdf2.o)
                                                  c:/arm_gcc/bin/../lib/gcc/arm-none-eabi/9.2.1/thumb/v7e-m+fp/hard\libgcc.a(_fixdfdi.o)
                                                  c:/arm_gcc/bin/../lib/gcc/arm-none-eabi/9.2.1/../../../../arm-none-eabi/lib/thumb/v7e-m+fp/hard\libc_nano.a(lib_a-dtoa.o)
                                                  c:/arm_gcc/bin/../lib/gcc/arm-none-eabi/9.2.1/../../../../arm-none-eabi/lib/thumb/v7e-m+fp/hard\libc_nano.a(lib_a-strtod.o)
                                                  c:/arm_gcc/bin/../lib/gcc/arm-none-eabi/9.2.1/../../../../arm-none-eabi/lib/thumb/v7e-m+fp/hard\libc_nano.a(lib_a-nano-vfprintf_float.o)
__aeabi_dcmpun                                    c:/arm_gcc/bin/../lib/gcc/arm-none-eabi/9.2.1/thumb/v7e-m+fp/hard\libgcc.a(_arm_unorddf2.o)
                                                  c:/arm_gcc/bin/../lib/gcc/arm-none-eabi/9.2.1/../../../../arm-none-eabi/lib/thumb/v7e-m+fp/hard\libc_nano.a(lib_a-strtod.o)
                                                  c:/arm_gcc/bin/../lib/gcc/arm-none-eabi/9.2.1/../../../../arm-none-eabi/lib/thumb/v7e-m+fp/hard\libc_nano.a(lib_a-nano-vfprintf_float.o)
__aeabi_ddiv                                      c:/arm_gcc/bin/../lib/gcc/arm-none-eabi/9.2.1/thumb/v7e-m+fp/hard\libgcc.a(_arm_muldivdf3.o)
                                                  c:/arm_gcc/bin/../lib/gcc/arm-none-eabi/9.2.1/../../../../arm-none-eabi/lib/thumb/v7e-m+fp/hard\libm.a(lib_a-wf_sqrt.o)
                                                  c:/arm_gcc/bin/../lib/gcc/arm-none-eabi/9.2.1/../../../../arm-none-eabi/lib/thumb/v7e-m+fp/hard\libc_nano.a(lib_a-mprec.o)
                                                  c:/arm_gcc/bin/../lib/gcc/arm-none-eabi/9.2.1/../../../../arm-none-eabi/lib/thumb/v7e-m+fp/hard\libc_nano.a(lib_a-dtoa.o)
                                                  c:/arm_gcc/bin/../lib/gcc/arm-none-eabi/9.2.1/../../../../arm-none-eabi/lib/thumb/v7e-m+fp/hard\libc_nano.a(lib_a-strtod.o)
                                                  build_my/tim.o
                                                  build_my/foc.o
                                                  build_my/easy_angle.o
__aeabi_dmul                                      c:/arm_gcc/bin/../lib/gcc/arm-none-eabi/9.2.1/thumb/v7e-m+fp/hard\libgcc.a(_arm_muldivdf3.o)
                                                  c:/arm_gcc/bin/../lib/gcc/arm-none-eabi/9.2.1/thumb/v7e-m+fp/hard\libgcc.a(_arm_muldf3.o)
                                                  c:/arm_gcc/bin/../lib/gcc/arm-none-eabi/9.2.1/thumb/v7e-m+fp/hard\libgcc.a(_fixunsdfdi.o)
                                                  c:/arm_gcc/bin/../lib/gcc/arm-none-eabi/9.2.1/../../../../arm-none-eabi/lib/thumb/v7e-m+fp/hard\libc_nano.a(lib_a-mprec.o)
                                                  c:/arm_gcc/bin/../lib/gcc/arm-none-eabi/9.2.1/../../../../arm-none-eabi/lib/thumb/v7e-m+fp/hard\libc_nano.a(lib_a-dtoa.o)
                                                  c:/arm_gcc/bin/../lib/gcc/arm-none-eabi/9.2.1/../../../../arm-none-eabi/lib/thumb/v7e-m+fp/hard\libc_nano.a(lib_a-strtod.o)
                                                  build_my/tim.o
                                                  build_my/foc.o
                                                  build_my/easy_angle.o
__aeabi_drsub                                     c:/arm_gcc/bin/../lib/gcc/arm-none-eabi/9.2.1/thumb/v7e-m+fp/hard\libgcc.a(_arm_addsubdf3.o)
__aeabi_dsub                                      c:/arm_gcc/bin/../lib/gcc/arm-none-eabi/9.2.1/thumb/v7e-m+fp/hard\libgcc.a(_arm_addsubdf3.o)
                                                  c:/arm_gcc/bin/../lib/gcc/arm-none-eabi/9.2.1/thumb/v7e-m+fp/hard\libgcc.a(_fixunsdfdi.o)
                                                  c:/arm_gcc/bin/../lib/gcc/arm-none-eabi/9.2.1/../../../../arm-none-eabi/lib/thumb/v7e-m+fp/hard\libc_nano.a(lib_a-dtoa.o)
                                                  c:/arm_gcc/bin/../lib/gcc/arm-none-eabi/9.2.1/../../../../arm-none-eabi/lib/thumb/v7e-m+fp/hard\libc_nano.a(lib_a-strtod.o)
                                                  build_my/tim.o
                                                  build_my/foc.o
                                                  build_my/easy_angle.o
__aeabi_f2d                                       c:/arm_gcc/bin/../lib/gcc/arm-none-eabi/9.2.1/thumb/v7e-m+fp/hard\libgcc.a(_arm_addsubdf3.o)
                                                  c:/arm_gcc/bin/../lib/gcc/arm-none-eabi/9.2.1/../../../../arm-none-eabi/lib/thumb/v7e-m+fp/hard\libm.a(lib_a-wf_sqrt.o)
                                                  c:/arm_gcc/bin/../lib/gcc/arm-none-eabi/9.2.1/../../../../arm-none-eabi/lib/thumb/v7e-m+fp/hard\libm.a(lib_a-wf_acos.o)
                                                  build_my/tim.o
                                                  build_my/cmd_fun.o
                                                  build_my/foc.o
                                                  build_my/parameter.o
                                                  build_my/easy_angle.o
__aeabi_i2d                                       c:/arm_gcc/bin/../lib/gcc/arm-none-eabi/9.2.1/thumb/v7e-m+fp/hard\libgcc.a(_arm_addsubdf3.o)
                                                  c:/arm_gcc/bin/../lib/gcc/arm-none-eabi/9.2.1/../../../../arm-none-eabi/lib/thumb/v7e-m+fp/hard\libc_nano.a(lib_a-dtoa.o)
__aeabi_idiv0                                     c:/arm_gcc/bin/../lib/gcc/arm-none-eabi/9.2.1/thumb/v7e-m+fp/hard\libgcc.a(_dvmd_tls.o)
__aeabi_l2d                                       c:/arm_gcc/bin/../lib/gcc/arm-none-eabi/9.2.1/thumb/v7e-m+fp/hard\libgcc.a(_arm_addsubdf3.o)
                                                  c:/arm_gcc/bin/../lib/gcc/arm-none-eabi/9.2.1/../../../../arm-none-eabi/lib/thumb/v7e-m+fp/hard\libc_nano.a(lib_a-strtod.o)
__aeabi_ldiv0                                     c:/arm_gcc/bin/../lib/gcc/arm-none-eabi/9.2.1/thumb/v7e-m+fp/hard\libgcc.a(_dvmd_tls.o)
                                                  c:/arm_gcc/bin/../lib/gcc/arm-none-eabi/9.2.1/thumb/v7e-m+fp/hard\libgcc.a(_aeabi_uldivmod.o)
__aeabi_ui2d                                      c:/arm_gcc/bin/../lib/gcc/arm-none-eabi/9.2.1/thumb/v7e-m+fp/hard\libgcc.a(_arm_addsubdf3.o)
                                                  c:/arm_gcc/bin/../lib/gcc/arm-none-eabi/9.2.1/thumb/v7e-m+fp/hard\libgcc.a(_fixunsdfdi.o)
                                                  c:/arm_gcc/bin/../lib/gcc/arm-none-eabi/9.2.1/../../../../arm-none-eabi/lib/thumb/v7e-m+fp/hard\libc_nano.a(lib_a-dtoa.o)
                                                  c:/arm_gcc/bin/../lib/gcc/arm-none-eabi/9.2.1/../../../../arm-none-eabi/lib/thumb/v7e-m+fp/hard\libc_nano.a(lib_a-strtod.o)
__aeabi_ul2d                                      c:/arm_gcc/bin/../lib/gcc/arm-none-eabi/9.2.1/thumb/v7e-m+fp/hard\libgcc.a(_arm_addsubdf3.o)
__aeabi_uldivmod                                  c:/arm_gcc/bin/../lib/gcc/arm-none-eabi/9.2.1/thumb/v7e-m+fp/hard\libgcc.a(_aeabi_uldivmod.o)
                                                  build_my/stm32f4xx_hal_uart.o
                                                  build_my/stm32f4xx_hal_rcc.o
__any_on                                          c:/arm_gcc/bin/../lib/gcc/arm-none-eabi/9.2.1/../../../../arm-none-eabi/lib/thumb/v7e-m+fp/hard\libc_nano.a(lib_a-mprec.o)
                                                  c:/arm_gcc/bin/../lib/gcc/arm-none-eabi/9.2.1/../../../../arm-none-eabi/lib/thumb/v7e-m+fp/hard\libc_nano.a(lib_a-gdtoa-gethex.o)
__ascii_mbtowc                                    c:/arm_gcc/bin/../lib/gcc/arm-none-eabi/9.2.1/../../../../arm-none-eabi/lib/thumb/v7e-m+fp/hard\libc_nano.a(lib_a-mbtowc_r.o)
                                                  c:/arm_gcc/bin/../lib/gcc/arm-none-eabi/9.2.1/../../../../arm-none-eabi/lib/thumb/v7e-m+fp/hard\libc_nano.a(lib_a-locale.o)
__ascii_wctomb                                    c:/arm_gcc/bin/../lib/gcc/arm-none-eabi/9.2.1/../../../../arm-none-eabi/lib/thumb/v7e-m+fp/hard\libc_nano.a(lib_a-wctomb_r.o)
                                                  c:/arm_gcc/bin/../lib/gcc/arm-none-eabi/9.2.1/../../../../arm-none-eabi/lib/thumb/v7e-m+fp/hard\libc_nano.a(lib_a-locale.o)
__b2d                                             c:/arm_gcc/bin/../lib/gcc/arm-none-eabi/9.2.1/../../../../arm-none-eabi/lib/thumb/v7e-m+fp/hard\libc_nano.a(lib_a-mprec.o)
__bss_end__                                       c:/arm_gcc/bin/../lib/gcc/arm-none-eabi/9.2.1/../../../../arm-none-eabi/lib/thumb/v7e-m+fp/hard/crt0.o
__bss_start__                                     c:/arm_gcc/bin/../lib/gcc/arm-none-eabi/9.2.1/../../../../arm-none-eabi/lib/thumb/v7e-m+fp/hard/crt0.o
__call_exitprocs                                  c:/arm_gcc/bin/../lib/gcc/arm-none-eabi/9.2.1/../../../../arm-none-eabi/lib/thumb/v7e-m+fp/hard\libc_nano.a(lib_a-exit.o)
__cmpdf2                                          c:/arm_gcc/bin/../lib/gcc/arm-none-eabi/9.2.1/thumb/v7e-m+fp/hard\libgcc.a(_arm_cmpdf2.o)
__copybits                                        c:/arm_gcc/bin/../lib/gcc/arm-none-eabi/9.2.1/../../../../arm-none-eabi/lib/thumb/v7e-m+fp/hard\libc_nano.a(lib_a-mprec.o)
                                                  c:/arm_gcc/bin/../lib/gcc/arm-none-eabi/9.2.1/../../../../arm-none-eabi/lib/thumb/v7e-m+fp/hard\libc_nano.a(lib_a-strtod.o)
__cvt                                             c:/arm_gcc/bin/../lib/gcc/arm-none-eabi/9.2.1/../../../../arm-none-eabi/lib/thumb/v7e-m+fp/hard\libc_nano.a(lib_a-nano-vfprintf_float.o)
__d2b                                             c:/arm_gcc/bin/../lib/gcc/arm-none-eabi/9.2.1/../../../../arm-none-eabi/lib/thumb/v7e-m+fp/hard\libc_nano.a(lib_a-mprec.o)
                                                  c:/arm_gcc/bin/../lib/gcc/arm-none-eabi/9.2.1/../../../../arm-none-eabi/lib/thumb/v7e-m+fp/hard\libc_nano.a(lib_a-dtoa.o)
                                                  c:/arm_gcc/bin/../lib/gcc/arm-none-eabi/9.2.1/../../../../arm-none-eabi/lib/thumb/v7e-m+fp/hard\libc_nano.a(lib_a-strtod.o)
__deregister_frame_info                           c:/arm_gcc/bin/../lib/gcc/arm-none-eabi/9.2.1/thumb/v7e-m+fp/hard/crtbegin.o
__divdf3                                          c:/arm_gcc/bin/../lib/gcc/arm-none-eabi/9.2.1/thumb/v7e-m+fp/hard\libgcc.a(_arm_muldivdf3.o)
__dso_handle                                      c:/arm_gcc/bin/../lib/gcc/arm-none-eabi/9.2.1/thumb/v7e-m+fp/hard/crtbegin.o
__eqdf2                                           c:/arm_gcc/bin/../lib/gcc/arm-none-eabi/9.2.1/thumb/v7e-m+fp/hard\libgcc.a(_arm_cmpdf2.o)
__errno                                           c:/arm_gcc/bin/../lib/gcc/arm-none-eabi/9.2.1/../../../../arm-none-eabi/lib/thumb/v7e-m+fp/hard\libc_nano.a(lib_a-errno.o)
                                                  c:/arm_gcc/bin/../lib/gcc/arm-none-eabi/9.2.1/../../../../arm-none-eabi/lib/thumb/v7e-m+fp/hard\libm.a(lib_a-wf_sqrt.o)
                                                  c:/arm_gcc/bin/../lib/gcc/arm-none-eabi/9.2.1/../../../../arm-none-eabi/lib/thumb/v7e-m+fp/hard\libm.a(lib_a-wf_acos.o)
__exponent                                        c:/arm_gcc/bin/../lib/gcc/arm-none-eabi/9.2.1/../../../../arm-none-eabi/lib/thumb/v7e-m+fp/hard\libc_nano.a(lib_a-nano-vfprintf_float.o)
__extendsfdf2                                     c:/arm_gcc/bin/../lib/gcc/arm-none-eabi/9.2.1/thumb/v7e-m+fp/hard\libgcc.a(_arm_addsubdf3.o)
__fdlib_version                                   c:/arm_gcc/bin/../lib/gcc/arm-none-eabi/9.2.1/../../../../arm-none-eabi/lib/thumb/v7e-m+fp/hard\libm.a(lib_a-s_lib_ver.o)
                                                  c:/arm_gcc/bin/../lib/gcc/arm-none-eabi/9.2.1/../../../../arm-none-eabi/lib/thumb/v7e-m+fp/hard\libm.a(lib_a-wf_sqrt.o)
                                                  c:/arm_gcc/bin/../lib/gcc/arm-none-eabi/9.2.1/../../../../arm-none-eabi/lib/thumb/v7e-m+fp/hard\libm.a(lib_a-wf_acos.o)
__fixdfdi                                         c:/arm_gcc/bin/../lib/gcc/arm-none-eabi/9.2.1/thumb/v7e-m+fp/hard\libgcc.a(_fixdfdi.o)
__fixdfsi                                         c:/arm_gcc/bin/../lib/gcc/arm-none-eabi/9.2.1/thumb/v7e-m+fp/hard\libgcc.a(_arm_fixdfsi.o)
__fixunsdfdi                                      c:/arm_gcc/bin/../lib/gcc/arm-none-eabi/9.2.1/thumb/v7e-m+fp/hard\libgcc.a(_fixunsdfdi.o)
__fixunsdfsi                                      c:/arm_gcc/bin/../lib/gcc/arm-none-eabi/9.2.1/thumb/v7e-m+fp/hard\libgcc.a(_arm_fixunsdfsi.o)
__floatdidf                                       c:/arm_gcc/bin/../lib/gcc/arm-none-eabi/9.2.1/thumb/v7e-m+fp/hard\libgcc.a(_arm_addsubdf3.o)
__floatsidf                                       c:/arm_gcc/bin/../lib/gcc/arm-none-eabi/9.2.1/thumb/v7e-m+fp/hard\libgcc.a(_arm_addsubdf3.o)
__floatundidf                                     c:/arm_gcc/bin/../lib/gcc/arm-none-eabi/9.2.1/thumb/v7e-m+fp/hard\libgcc.a(_arm_addsubdf3.o)
__floatunsidf                                     c:/arm_gcc/bin/../lib/gcc/arm-none-eabi/9.2.1/thumb/v7e-m+fp/hard\libgcc.a(_arm_addsubdf3.o)
__gedf2                                           c:/arm_gcc/bin/../lib/gcc/arm-none-eabi/9.2.1/thumb/v7e-m+fp/hard\libgcc.a(_arm_cmpdf2.o)
__gethex                                          c:/arm_gcc/bin/../lib/gcc/arm-none-eabi/9.2.1/../../../../arm-none-eabi/lib/thumb/v7e-m+fp/hard\libc_nano.a(lib_a-gdtoa-gethex.o)
                                                  c:/arm_gcc/bin/../lib/gcc/arm-none-eabi/9.2.1/../../../../arm-none-eabi/lib/thumb/v7e-m+fp/hard\libc_nano.a(lib_a-strtod.o)
__global_locale                                   c:/arm_gcc/bin/../lib/gcc/arm-none-eabi/9.2.1/../../../../arm-none-eabi/lib/thumb/v7e-m+fp/hard\libc_nano.a(lib_a-locale.o)
                                                  c:/arm_gcc/bin/../lib/gcc/arm-none-eabi/9.2.1/../../../../arm-none-eabi/lib/thumb/v7e-m+fp/hard\libc_nano.a(lib_a-wctomb_r.o)
                                                  c:/arm_gcc/bin/../lib/gcc/arm-none-eabi/9.2.1/../../../../arm-none-eabi/lib/thumb/v7e-m+fp/hard\libc_nano.a(lib_a-mbtowc_r.o)
                                                  c:/arm_gcc/bin/../lib/gcc/arm-none-eabi/9.2.1/../../../../arm-none-eabi/lib/thumb/v7e-m+fp/hard\libc_nano.a(lib_a-localeconv.o)
                                                  c:/arm_gcc/bin/../lib/gcc/arm-none-eabi/9.2.1/../../../../arm-none-eabi/lib/thumb/v7e-m+fp/hard\libc_nano.a(lib_a-strtod.o)
__gtdf2                                           c:/arm_gcc/bin/../lib/gcc/arm-none-eabi/9.2.1/thumb/v7e-m+fp/hard\libgcc.a(_arm_cmpdf2.o)
__hexdig_fun                                      c:/arm_gcc/bin/../lib/gcc/arm-none-eabi/9.2.1/../../../../arm-none-eabi/lib/thumb/v7e-m+fp/hard\libc_nano.a(lib_a-gdtoa-gethex.o)
                                                  c:/arm_gcc/bin/../lib/gcc/arm-none-eabi/9.2.1/../../../../arm-none-eabi/lib/thumb/v7e-m+fp/hard\libc_nano.a(lib_a-gdtoa-hexnan.o)
__hexnan                                          c:/arm_gcc/bin/../lib/gcc/arm-none-eabi/9.2.1/../../../../arm-none-eabi/lib/thumb/v7e-m+fp/hard\libc_nano.a(lib_a-gdtoa-hexnan.o)
                                                  c:/arm_gcc/bin/../lib/gcc/arm-none-eabi/9.2.1/../../../../arm-none-eabi/lib/thumb/v7e-m+fp/hard\libc_nano.a(lib_a-strtod.o)
__hi0bits                                         c:/arm_gcc/bin/../lib/gcc/arm-none-eabi/9.2.1/../../../../arm-none-eabi/lib/thumb/v7e-m+fp/hard\libc_nano.a(lib_a-mprec.o)
                                                  c:/arm_gcc/bin/../lib/gcc/arm-none-eabi/9.2.1/../../../../arm-none-eabi/lib/thumb/v7e-m+fp/hard\libc_nano.a(lib_a-gdtoa-gethex.o)
                                                  c:/arm_gcc/bin/../lib/gcc/arm-none-eabi/9.2.1/../../../../arm-none-eabi/lib/thumb/v7e-m+fp/hard\libc_nano.a(lib_a-dtoa.o)
__i2b                                             c:/arm_gcc/bin/../lib/gcc/arm-none-eabi/9.2.1/../../../../arm-none-eabi/lib/thumb/v7e-m+fp/hard\libc_nano.a(lib_a-mprec.o)
                                                  c:/arm_gcc/bin/../lib/gcc/arm-none-eabi/9.2.1/../../../../arm-none-eabi/lib/thumb/v7e-m+fp/hard\libc_nano.a(lib_a-dtoa.o)
                                                  c:/arm_gcc/bin/../lib/gcc/arm-none-eabi/9.2.1/../../../../arm-none-eabi/lib/thumb/v7e-m+fp/hard\libc_nano.a(lib_a-strtod.o)
__ieee754_acosf                                   c:/arm_gcc/bin/../lib/gcc/arm-none-eabi/9.2.1/../../../../arm-none-eabi/lib/thumb/v7e-m+fp/hard\libm.a(lib_a-ef_acos.o)
                                                  c:/arm_gcc/bin/../lib/gcc/arm-none-eabi/9.2.1/../../../../arm-none-eabi/lib/thumb/v7e-m+fp/hard\libm.a(lib_a-wf_acos.o)
__ieee754_atan2f                                  c:/arm_gcc/bin/../lib/gcc/arm-none-eabi/9.2.1/../../../../arm-none-eabi/lib/thumb/v7e-m+fp/hard\libm.a(lib_a-ef_atan2.o)
                                                  c:/arm_gcc/bin/../lib/gcc/arm-none-eabi/9.2.1/../../../../arm-none-eabi/lib/thumb/v7e-m+fp/hard\libm.a(lib_a-wf_atan2.o)
__ieee754_sqrtf                                   c:/arm_gcc/bin/../lib/gcc/arm-none-eabi/9.2.1/../../../../arm-none-eabi/lib/thumb/v7e-m+fp/hard\libm.a(lib_a-ef_sqrt.o)
                                                  c:/arm_gcc/bin/../lib/gcc/arm-none-eabi/9.2.1/../../../../arm-none-eabi/lib/thumb/v7e-m+fp/hard\libm.a(lib_a-ef_acos.o)
                                                  c:/arm_gcc/bin/../lib/gcc/arm-none-eabi/9.2.1/../../../../arm-none-eabi/lib/thumb/v7e-m+fp/hard\libm.a(lib_a-wf_sqrt.o)
__init_array_end                                  c:/arm_gcc/bin/../lib/gcc/arm-none-eabi/9.2.1/../../../../arm-none-eabi/lib/thumb/v7e-m+fp/hard\libc_nano.a(lib_a-init.o)
__init_array_start                                c:/arm_gcc/bin/../lib/gcc/arm-none-eabi/9.2.1/../../../../arm-none-eabi/lib/thumb/v7e-m+fp/hard\libc_nano.a(lib_a-init.o)
__ledf2                                           c:/arm_gcc/bin/../lib/gcc/arm-none-eabi/9.2.1/thumb/v7e-m+fp/hard\libgcc.a(_arm_cmpdf2.o)
__libc_fini_array                                 c:/arm_gcc/bin/../lib/gcc/arm-none-eabi/9.2.1/../../../../arm-none-eabi/lib/thumb/v7e-m+fp/hard/crt0.o
__libc_init_array                                 c:/arm_gcc/bin/../lib/gcc/arm-none-eabi/9.2.1/../../../../arm-none-eabi/lib/thumb/v7e-m+fp/hard\libc_nano.a(lib_a-init.o)
                                                  build_my/startup_stm32f405xx.o
                                                  c:/arm_gcc/bin/../lib/gcc/arm-none-eabi/9.2.1/../../../../arm-none-eabi/lib/thumb/v7e-m+fp/hard/crt0.o
__lo0bits                                         c:/arm_gcc/bin/../lib/gcc/arm-none-eabi/9.2.1/../../../../arm-none-eabi/lib/thumb/v7e-m+fp/hard\libc_nano.a(lib_a-mprec.o)
__locale_mb_cur_max                               c:/arm_gcc/bin/../lib/gcc/arm-none-eabi/9.2.1/../../../../arm-none-eabi/lib/thumb/v7e-m+fp/hard\libc_nano.a(lib_a-locale.o)
__localeconv_l                                    c:/arm_gcc/bin/../lib/gcc/arm-none-eabi/9.2.1/../../../../arm-none-eabi/lib/thumb/v7e-m+fp/hard\libc_nano.a(lib_a-localeconv.o)
__lock___arc4random_mutex                         c:/arm_gcc/bin/../lib/gcc/arm-none-eabi/9.2.1/../../../../arm-none-eabi/lib/thumb/v7e-m+fp/hard\libc_nano.a(lib_a-lock.o)
__lock___at_quick_exit_mutex                      c:/arm_gcc/bin/../lib/gcc/arm-none-eabi/9.2.1/../../../../arm-none-eabi/lib/thumb/v7e-m+fp/hard\libc_nano.a(lib_a-lock.o)
__lock___atexit_recursive_mutex                   c:/arm_gcc/bin/../lib/gcc/arm-none-eabi/9.2.1/../../../../arm-none-eabi/lib/thumb/v7e-m+fp/hard\libc_nano.a(lib_a-lock.o)
__lock___dd_hash_mutex                            c:/arm_gcc/bin/../lib/gcc/arm-none-eabi/9.2.1/../../../../arm-none-eabi/lib/thumb/v7e-m+fp/hard\libc_nano.a(lib_a-lock.o)
__lock___env_recursive_mutex                      c:/arm_gcc/bin/../lib/gcc/arm-none-eabi/9.2.1/../../../../arm-none-eabi/lib/thumb/v7e-m+fp/hard\libc_nano.a(lib_a-lock.o)
__lock___malloc_recursive_mutex                   c:/arm_gcc/bin/../lib/gcc/arm-none-eabi/9.2.1/../../../../arm-none-eabi/lib/thumb/v7e-m+fp/hard\libc_nano.a(lib_a-lock.o)
                                                  c:/arm_gcc/bin/../lib/gcc/arm-none-eabi/9.2.1/../../../../arm-none-eabi/lib/thumb/v7e-m+fp/hard\libc_nano.a(lib_a-mlock.o)
__lock___sfp_recursive_mutex                      c:/arm_gcc/bin/../lib/gcc/arm-none-eabi/9.2.1/../../../../arm-none-eabi/lib/thumb/v7e-m+fp/hard\libc_nano.a(lib_a-lock.o)
__lock___sinit_recursive_mutex                    c:/arm_gcc/bin/../lib/gcc/arm-none-eabi/9.2.1/../../../../arm-none-eabi/lib/thumb/v7e-m+fp/hard\libc_nano.a(lib_a-lock.o)
__lock___tz_mutex                                 c:/arm_gcc/bin/../lib/gcc/arm-none-eabi/9.2.1/../../../../arm-none-eabi/lib/thumb/v7e-m+fp/hard\libc_nano.a(lib_a-lock.o)
__lshift                                          c:/arm_gcc/bin/../lib/gcc/arm-none-eabi/9.2.1/../../../../arm-none-eabi/lib/thumb/v7e-m+fp/hard\libc_nano.a(lib_a-mprec.o)
                                                  c:/arm_gcc/bin/../lib/gcc/arm-none-eabi/9.2.1/../../../../arm-none-eabi/lib/thumb/v7e-m+fp/hard\libc_nano.a(lib_a-gdtoa-gethex.o)
                                                  c:/arm_gcc/bin/../lib/gcc/arm-none-eabi/9.2.1/../../../../arm-none-eabi/lib/thumb/v7e-m+fp/hard\libc_nano.a(lib_a-dtoa.o)
                                                  c:/arm_gcc/bin/../lib/gcc/arm-none-eabi/9.2.1/../../../../arm-none-eabi/lib/thumb/v7e-m+fp/hard\libc_nano.a(lib_a-strtod.o)
__ltdf2                                           c:/arm_gcc/bin/../lib/gcc/arm-none-eabi/9.2.1/thumb/v7e-m+fp/hard\libgcc.a(_arm_cmpdf2.o)
__malloc_free_list                                c:/arm_gcc/bin/../lib/gcc/arm-none-eabi/9.2.1/../../../../arm-none-eabi/lib/thumb/v7e-m+fp/hard\libc_nano.a(lib_a-nano-mallocr.o)
                                                  c:/arm_gcc/bin/../lib/gcc/arm-none-eabi/9.2.1/../../../../arm-none-eabi/lib/thumb/v7e-m+fp/hard\libc_nano.a(lib_a-nano-freer.o)
__malloc_lock                                     c:/arm_gcc/bin/../lib/gcc/arm-none-eabi/9.2.1/../../../../arm-none-eabi/lib/thumb/v7e-m+fp/hard\libc_nano.a(lib_a-mlock.o)
                                                  c:/arm_gcc/bin/../lib/gcc/arm-none-eabi/9.2.1/../../../../arm-none-eabi/lib/thumb/v7e-m+fp/hard\libc_nano.a(lib_a-nano-mallocr.o)
                                                  c:/arm_gcc/bin/../lib/gcc/arm-none-eabi/9.2.1/../../../../arm-none-eabi/lib/thumb/v7e-m+fp/hard\libc_nano.a(lib_a-nano-freer.o)
__malloc_sbrk_start                               c:/arm_gcc/bin/../lib/gcc/arm-none-eabi/9.2.1/../../../../arm-none-eabi/lib/thumb/v7e-m+fp/hard\libc_nano.a(lib_a-nano-mallocr.o)
__malloc_unlock                                   c:/arm_gcc/bin/../lib/gcc/arm-none-eabi/9.2.1/../../../../arm-none-eabi/lib/thumb/v7e-m+fp/hard\libc_nano.a(lib_a-mlock.o)
                                                  c:/arm_gcc/bin/../lib/gcc/arm-none-eabi/9.2.1/../../../../arm-none-eabi/lib/thumb/v7e-m+fp/hard\libc_nano.a(lib_a-nano-mallocr.o)
                                                  c:/arm_gcc/bin/../lib/gcc/arm-none-eabi/9.2.1/../../../../arm-none-eabi/lib/thumb/v7e-m+fp/hard\libc_nano.a(lib_a-nano-freer.o)
__match                                           c:/arm_gcc/bin/../lib/gcc/arm-none-eabi/9.2.1/../../../../arm-none-eabi/lib/thumb/v7e-m+fp/hard\libc_nano.a(lib_a-gdtoa-hexnan.o)
                                                  c:/arm_gcc/bin/../lib/gcc/arm-none-eabi/9.2.1/../../../../arm-none-eabi/lib/thumb/v7e-m+fp/hard\libc_nano.a(lib_a-strtod.o)
__mcmp                                            c:/arm_gcc/bin/../lib/gcc/arm-none-eabi/9.2.1/../../../../arm-none-eabi/lib/thumb/v7e-m+fp/hard\libc_nano.a(lib_a-mprec.o)
                                                  c:/arm_gcc/bin/../lib/gcc/arm-none-eabi/9.2.1/../../../../arm-none-eabi/lib/thumb/v7e-m+fp/hard\libc_nano.a(lib_a-dtoa.o)
                                                  c:/arm_gcc/bin/../lib/gcc/arm-none-eabi/9.2.1/../../../../arm-none-eabi/lib/thumb/v7e-m+fp/hard\libc_nano.a(lib_a-strtod.o)
__mdiff                                           c:/arm_gcc/bin/../lib/gcc/arm-none-eabi/9.2.1/../../../../arm-none-eabi/lib/thumb/v7e-m+fp/hard\libc_nano.a(lib_a-mprec.o)
                                                  c:/arm_gcc/bin/../lib/gcc/arm-none-eabi/9.2.1/../../../../arm-none-eabi/lib/thumb/v7e-m+fp/hard\libc_nano.a(lib_a-dtoa.o)
                                                  c:/arm_gcc/bin/../lib/gcc/arm-none-eabi/9.2.1/../../../../arm-none-eabi/lib/thumb/v7e-m+fp/hard\libc_nano.a(lib_a-strtod.o)
__mprec_bigtens                                   c:/arm_gcc/bin/../lib/gcc/arm-none-eabi/9.2.1/../../../../arm-none-eabi/lib/thumb/v7e-m+fp/hard\libc_nano.a(lib_a-mprec.o)
                                                  c:/arm_gcc/bin/../lib/gcc/arm-none-eabi/9.2.1/../../../../arm-none-eabi/lib/thumb/v7e-m+fp/hard\libc_nano.a(lib_a-dtoa.o)
                                                  c:/arm_gcc/bin/../lib/gcc/arm-none-eabi/9.2.1/../../../../arm-none-eabi/lib/thumb/v7e-m+fp/hard\libc_nano.a(lib_a-strtod.o)
__mprec_tens                                      c:/arm_gcc/bin/../lib/gcc/arm-none-eabi/9.2.1/../../../../arm-none-eabi/lib/thumb/v7e-m+fp/hard\libc_nano.a(lib_a-mprec.o)
                                                  c:/arm_gcc/bin/../lib/gcc/arm-none-eabi/9.2.1/../../../../arm-none-eabi/lib/thumb/v7e-m+fp/hard\libc_nano.a(lib_a-dtoa.o)
                                                  c:/arm_gcc/bin/../lib/gcc/arm-none-eabi/9.2.1/../../../../arm-none-eabi/lib/thumb/v7e-m+fp/hard\libc_nano.a(lib_a-strtod.o)
__mprec_tinytens                                  c:/arm_gcc/bin/../lib/gcc/arm-none-eabi/9.2.1/../../../../arm-none-eabi/lib/thumb/v7e-m+fp/hard\libc_nano.a(lib_a-mprec.o)
__muldf3                                          c:/arm_gcc/bin/../lib/gcc/arm-none-eabi/9.2.1/thumb/v7e-m+fp/hard\libgcc.a(_arm_muldivdf3.o)
                                                  c:/arm_gcc/bin/../lib/gcc/arm-none-eabi/9.2.1/thumb/v7e-m+fp/hard\libgcc.a(_arm_muldf3.o)
__multadd                                         c:/arm_gcc/bin/../lib/gcc/arm-none-eabi/9.2.1/../../../../arm-none-eabi/lib/thumb/v7e-m+fp/hard\libc_nano.a(lib_a-mprec.o)
                                                  c:/arm_gcc/bin/../lib/gcc/arm-none-eabi/9.2.1/../../../../arm-none-eabi/lib/thumb/v7e-m+fp/hard\libc_nano.a(lib_a-dtoa.o)
__multiply                                        c:/arm_gcc/bin/../lib/gcc/arm-none-eabi/9.2.1/../../../../arm-none-eabi/lib/thumb/v7e-m+fp/hard\libc_nano.a(lib_a-mprec.o)
                                                  c:/arm_gcc/bin/../lib/gcc/arm-none-eabi/9.2.1/../../../../arm-none-eabi/lib/thumb/v7e-m+fp/hard\libc_nano.a(lib_a-dtoa.o)
                                                  c:/arm_gcc/bin/../lib/gcc/arm-none-eabi/9.2.1/../../../../arm-none-eabi/lib/thumb/v7e-m+fp/hard\libc_nano.a(lib_a-strtod.o)
__nedf2                                           c:/arm_gcc/bin/../lib/gcc/arm-none-eabi/9.2.1/thumb/v7e-m+fp/hard\libgcc.a(_arm_cmpdf2.o)
__numeric_load_locale                             c:/arm_gcc/bin/../lib/gcc/arm-none-eabi/9.2.1/../../../../arm-none-eabi/lib/thumb/v7e-m+fp/hard\libc_nano.a(lib_a-lnumeric.o)
__pow5mult                                        c:/arm_gcc/bin/../lib/gcc/arm-none-eabi/9.2.1/../../../../arm-none-eabi/lib/thumb/v7e-m+fp/hard\libc_nano.a(lib_a-mprec.o)
                                                  c:/arm_gcc/bin/../lib/gcc/arm-none-eabi/9.2.1/../../../../arm-none-eabi/lib/thumb/v7e-m+fp/hard\libc_nano.a(lib_a-dtoa.o)
                                                  c:/arm_gcc/bin/../lib/gcc/arm-none-eabi/9.2.1/../../../../arm-none-eabi/lib/thumb/v7e-m+fp/hard\libc_nano.a(lib_a-strtod.o)
__preinit_array_end                               c:/arm_gcc/bin/../lib/gcc/arm-none-eabi/9.2.1/../../../../arm-none-eabi/lib/thumb/v7e-m+fp/hard\libc_nano.a(lib_a-init.o)
__preinit_array_start                             c:/arm_gcc/bin/../lib/gcc/arm-none-eabi/9.2.1/../../../../arm-none-eabi/lib/thumb/v7e-m+fp/hard\libc_nano.a(lib_a-init.o)
__ratio                                           c:/arm_gcc/bin/../lib/gcc/arm-none-eabi/9.2.1/../../../../arm-none-eabi/lib/thumb/v7e-m+fp/hard\libc_nano.a(lib_a-mprec.o)
                                                  c:/arm_gcc/bin/../lib/gcc/arm-none-eabi/9.2.1/../../../../arm-none-eabi/lib/thumb/v7e-m+fp/hard\libc_nano.a(lib_a-strtod.o)
__register_frame_info                             c:/arm_gcc/bin/../lib/gcc/arm-none-eabi/9.2.1/thumb/v7e-m+fp/hard/crtbegin.o
__retarget_lock_acquire                           c:/arm_gcc/bin/../lib/gcc/arm-none-eabi/9.2.1/../../../../arm-none-eabi/lib/thumb/v7e-m+fp/hard\libc_nano.a(lib_a-lock.o)
__retarget_lock_acquire_recursive                 c:/arm_gcc/bin/../lib/gcc/arm-none-eabi/9.2.1/../../../../arm-none-eabi/lib/thumb/v7e-m+fp/hard\libc_nano.a(lib_a-lock.o)
                                                  c:/arm_gcc/bin/../lib/gcc/arm-none-eabi/9.2.1/../../../../arm-none-eabi/lib/thumb/v7e-m+fp/hard\libc_nano.a(lib_a-mlock.o)
__retarget_lock_close                             c:/arm_gcc/bin/../lib/gcc/arm-none-eabi/9.2.1/../../../../arm-none-eabi/lib/thumb/v7e-m+fp/hard\libc_nano.a(lib_a-lock.o)
__retarget_lock_close_recursive                   c:/arm_gcc/bin/../lib/gcc/arm-none-eabi/9.2.1/../../../../arm-none-eabi/lib/thumb/v7e-m+fp/hard\libc_nano.a(lib_a-lock.o)
__retarget_lock_init                              c:/arm_gcc/bin/../lib/gcc/arm-none-eabi/9.2.1/../../../../arm-none-eabi/lib/thumb/v7e-m+fp/hard\libc_nano.a(lib_a-lock.o)
__retarget_lock_init_recursive                    c:/arm_gcc/bin/../lib/gcc/arm-none-eabi/9.2.1/../../../../arm-none-eabi/lib/thumb/v7e-m+fp/hard\libc_nano.a(lib_a-lock.o)
__retarget_lock_release                           c:/arm_gcc/bin/../lib/gcc/arm-none-eabi/9.2.1/../../../../arm-none-eabi/lib/thumb/v7e-m+fp/hard\libc_nano.a(lib_a-lock.o)
__retarget_lock_release_recursive                 c:/arm_gcc/bin/../lib/gcc/arm-none-eabi/9.2.1/../../../../arm-none-eabi/lib/thumb/v7e-m+fp/hard\libc_nano.a(lib_a-lock.o)
                                                  c:/arm_gcc/bin/../lib/gcc/arm-none-eabi/9.2.1/../../../../arm-none-eabi/lib/thumb/v7e-m+fp/hard\libc_nano.a(lib_a-mlock.o)
__retarget_lock_try_acquire                       c:/arm_gcc/bin/../lib/gcc/arm-none-eabi/9.2.1/../../../../arm-none-eabi/lib/thumb/v7e-m+fp/hard\libc_nano.a(lib_a-lock.o)
__retarget_lock_try_acquire_recursive             c:/arm_gcc/bin/../lib/gcc/arm-none-eabi/9.2.1/../../../../arm-none-eabi/lib/thumb/v7e-m+fp/hard\libc_nano.a(lib_a-lock.o)
__s2b                                             c:/arm_gcc/bin/../lib/gcc/arm-none-eabi/9.2.1/../../../../arm-none-eabi/lib/thumb/v7e-m+fp/hard\libc_nano.a(lib_a-mprec.o)
                                                  c:/arm_gcc/bin/../lib/gcc/arm-none-eabi/9.2.1/../../../../arm-none-eabi/lib/thumb/v7e-m+fp/hard\libc_nano.a(lib_a-strtod.o)
__sf_fake_stderr                                  c:/arm_gcc/bin/../lib/gcc/arm-none-eabi/9.2.1/../../../../arm-none-eabi/lib/thumb/v7e-m+fp/hard\libc_nano.a(lib_a-impure.o)
__sf_fake_stdin                                   c:/arm_gcc/bin/../lib/gcc/arm-none-eabi/9.2.1/../../../../arm-none-eabi/lib/thumb/v7e-m+fp/hard\libc_nano.a(lib_a-impure.o)
__sf_fake_stdout                                  c:/arm_gcc/bin/../lib/gcc/arm-none-eabi/9.2.1/../../../../arm-none-eabi/lib/thumb/v7e-m+fp/hard\libc_nano.a(lib_a-impure.o)
__ssprint_r                                       c:/arm_gcc/bin/../lib/gcc/arm-none-eabi/9.2.1/../../../../arm-none-eabi/lib/thumb/v7e-m+fp/hard\libc_nano.a(lib_a-nano-svfprintf.o)
__ssputs_r                                        c:/arm_gcc/bin/../lib/gcc/arm-none-eabi/9.2.1/../../../../arm-none-eabi/lib/thumb/v7e-m+fp/hard\libc_nano.a(lib_a-nano-svfprintf.o)
__stack                                           c:/arm_gcc/bin/../lib/gcc/arm-none-eabi/9.2.1/../../../../arm-none-eabi/lib/thumb/v7e-m+fp/hard/crt0.o
__subdf3                                          c:/arm_gcc/bin/../lib/gcc/arm-none-eabi/9.2.1/thumb/v7e-m+fp/hard\libgcc.a(_arm_addsubdf3.o)
__truncdfsf2                                      c:/arm_gcc/bin/../lib/gcc/arm-none-eabi/9.2.1/thumb/v7e-m+fp/hard\libgcc.a(_arm_truncdfsf2.o)
__udivmoddi4                                      c:/arm_gcc/bin/../lib/gcc/arm-none-eabi/9.2.1/thumb/v7e-m+fp/hard\libgcc.a(_udivmoddi4.o)
                                                  c:/arm_gcc/bin/../lib/gcc/arm-none-eabi/9.2.1/thumb/v7e-m+fp/hard\libgcc.a(_aeabi_uldivmod.o)
__ulp                                             c:/arm_gcc/bin/../lib/gcc/arm-none-eabi/9.2.1/../../../../arm-none-eabi/lib/thumb/v7e-m+fp/hard\libc_nano.a(lib_a-mprec.o)
                                                  c:/arm_gcc/bin/../lib/gcc/arm-none-eabi/9.2.1/../../../../arm-none-eabi/lib/thumb/v7e-m+fp/hard\libc_nano.a(lib_a-strtod.o)
__unorddf2                                        c:/arm_gcc/bin/../lib/gcc/arm-none-eabi/9.2.1/thumb/v7e-m+fp/hard\libgcc.a(_arm_unorddf2.o)
_calloc_r                                         c:/arm_gcc/bin/../lib/gcc/arm-none-eabi/9.2.1/../../../../arm-none-eabi/lib/thumb/v7e-m+fp/hard\libc_nano.a(lib_a-nano-callocr.o)
                                                  c:/arm_gcc/bin/../lib/gcc/arm-none-eabi/9.2.1/../../../../arm-none-eabi/lib/thumb/v7e-m+fp/hard\libc_nano.a(lib_a-mprec.o)
_ctype_                                           c:/arm_gcc/bin/../lib/gcc/arm-none-eabi/9.2.1/../../../../arm-none-eabi/lib/thumb/v7e-m+fp/hard\libc_nano.a(lib_a-ctype_.o)
                                                  c:/arm_gcc/bin/../lib/gcc/arm-none-eabi/9.2.1/../../../../arm-none-eabi/lib/thumb/v7e-m+fp/hard\libc_nano.a(lib_a-locale.o)
                                                  build_my/command.o
_dtoa_r                                           c:/arm_gcc/bin/../lib/gcc/arm-none-eabi/9.2.1/../../../../arm-none-eabi/lib/thumb/v7e-m+fp/hard\libc_nano.a(lib_a-dtoa.o)
                                                  c:/arm_gcc/bin/../lib/gcc/arm-none-eabi/9.2.1/../../../../arm-none-eabi/lib/thumb/v7e-m+fp/hard\libc_nano.a(lib_a-nano-vfprintf_float.o)
_ebss                                             build_my/startup_stm32f405xx.o
_edata                                            build_my/startup_stm32f405xx.o
_estack                                           build_my/startup_stm32f405xx.o
_exit                                             c:/arm_gcc/bin/../lib/gcc/arm-none-eabi/9.2.1/../../../../arm-none-eabi/lib/thumb/v7e-m+fp/hard\libnosys.a(_exit.o)
                                                  c:/arm_gcc/bin/../lib/gcc/arm-none-eabi/9.2.1/../../../../arm-none-eabi/lib/thumb/v7e-m+fp/hard\libc_nano.a(lib_a-exit.o)
_fini                                             c:/arm_gcc/bin/../lib/gcc/arm-none-eabi/9.2.1/thumb/v7e-m+fp/hard/crti.o
_free_r                                           c:/arm_gcc/bin/../lib/gcc/arm-none-eabi/9.2.1/../../../../arm-none-eabi/lib/thumb/v7e-m+fp/hard\libc_nano.a(lib_a-nano-freer.o)
                                                  c:/arm_gcc/bin/../lib/gcc/arm-none-eabi/9.2.1/../../../../arm-none-eabi/lib/thumb/v7e-m+fp/hard\libc_nano.a(lib_a-nano-reallocr.o)
                                                  c:/arm_gcc/bin/../lib/gcc/arm-none-eabi/9.2.1/../../../../arm-none-eabi/lib/thumb/v7e-m+fp/hard\libc_nano.a(lib_a-reent.o)
                                                  c:/arm_gcc/bin/../lib/gcc/arm-none-eabi/9.2.1/../../../../arm-none-eabi/lib/thumb/v7e-m+fp/hard\libc_nano.a(lib_a-nano-svfprintf.o)
                                                  c:/arm_gcc/bin/../lib/gcc/arm-none-eabi/9.2.1/../../../../arm-none-eabi/lib/thumb/v7e-m+fp/hard\libc_nano.a(lib_a-malloc.o)
_global_impure_ptr                                c:/arm_gcc/bin/../lib/gcc/arm-none-eabi/9.2.1/../../../../arm-none-eabi/lib/thumb/v7e-m+fp/hard\libc_nano.a(lib_a-impure.o)
                                                  c:/arm_gcc/bin/../lib/gcc/arm-none-eabi/9.2.1/../../../../arm-none-eabi/lib/thumb/v7e-m+fp/hard\libc_nano.a(lib_a-exit.o)
_impure_ptr                                       c:/arm_gcc/bin/../lib/gcc/arm-none-eabi/9.2.1/../../../../arm-none-eabi/lib/thumb/v7e-m+fp/hard\libc_nano.a(lib_a-impure.o)
                                                  c:/arm_gcc/bin/../lib/gcc/arm-none-eabi/9.2.1/../../../../arm-none-eabi/lib/thumb/v7e-m+fp/hard\libc_nano.a(lib_a-errno.o)
                                                  c:/arm_gcc/bin/../lib/gcc/arm-none-eabi/9.2.1/../../../../arm-none-eabi/lib/thumb/v7e-m+fp/hard\libc_nano.a(lib_a-reent.o)
                                                  c:/arm_gcc/bin/../lib/gcc/arm-none-eabi/9.2.1/../../../../arm-none-eabi/lib/thumb/v7e-m+fp/hard\libc_nano.a(lib_a-locale.o)
                                                  c:/arm_gcc/bin/../lib/gcc/arm-none-eabi/9.2.1/../../../../arm-none-eabi/lib/thumb/v7e-m+fp/hard\libc_nano.a(lib_a-vsnprintf.o)
                                                  c:/arm_gcc/bin/../lib/gcc/arm-none-eabi/9.2.1/../../../../arm-none-eabi/lib/thumb/v7e-m+fp/hard\libc_nano.a(lib_a-strtod.o)
                                                  c:/arm_gcc/bin/../lib/gcc/arm-none-eabi/9.2.1/../../../../arm-none-eabi/lib/thumb/v7e-m+fp/hard\libc_nano.a(lib_a-malloc.o)
_init                                             c:/arm_gcc/bin/../lib/gcc/arm-none-eabi/9.2.1/thumb/v7e-m+fp/hard/crti.o
                                                  c:/arm_gcc/bin/../lib/gcc/arm-none-eabi/9.2.1/../../../../arm-none-eabi/lib/thumb/v7e-m+fp/hard\libc_nano.a(lib_a-init.o)
_localeconv_r                                     c:/arm_gcc/bin/../lib/gcc/arm-none-eabi/9.2.1/../../../../arm-none-eabi/lib/thumb/v7e-m+fp/hard\libc_nano.a(lib_a-localeconv.o)
                                                  c:/arm_gcc/bin/../lib/gcc/arm-none-eabi/9.2.1/../../../../arm-none-eabi/lib/thumb/v7e-m+fp/hard\libc_nano.a(lib_a-nano-vfprintf_float.o)
_mainCRTStartup                                   c:/arm_gcc/bin/../lib/gcc/arm-none-eabi/9.2.1/../../../../arm-none-eabi/lib/thumb/v7e-m+fp/hard/crt0.o
_malloc_r                                         c:/arm_gcc/bin/../lib/gcc/arm-none-eabi/9.2.1/../../../../arm-none-eabi/lib/thumb/v7e-m+fp/hard\libc_nano.a(lib_a-nano-mallocr.o)
                                                  c:/arm_gcc/bin/../lib/gcc/arm-none-eabi/9.2.1/../../../../arm-none-eabi/lib/thumb/v7e-m+fp/hard\libc_nano.a(lib_a-nano-reallocr.o)
                                                  c:/arm_gcc/bin/../lib/gcc/arm-none-eabi/9.2.1/../../../../arm-none-eabi/lib/thumb/v7e-m+fp/hard\libc_nano.a(lib_a-nano-svfprintf.o)
                                                  c:/arm_gcc/bin/../lib/gcc/arm-none-eabi/9.2.1/../../../../arm-none-eabi/lib/thumb/v7e-m+fp/hard\libc_nano.a(lib_a-nano-callocr.o)
                                                  c:/arm_gcc/bin/../lib/gcc/arm-none-eabi/9.2.1/../../../../arm-none-eabi/lib/thumb/v7e-m+fp/hard\libc_nano.a(lib_a-malloc.o)
_malloc_usable_size_r                             c:/arm_gcc/bin/../lib/gcc/arm-none-eabi/9.2.1/../../../../arm-none-eabi/lib/thumb/v7e-m+fp/hard\libc_nano.a(lib_a-nano-msizer.o)
                                                  c:/arm_gcc/bin/../lib/gcc/arm-none-eabi/9.2.1/../../../../arm-none-eabi/lib/thumb/v7e-m+fp/hard\libc_nano.a(lib_a-nano-reallocr.o)
_mbtowc_r                                         c:/arm_gcc/bin/../lib/gcc/arm-none-eabi/9.2.1/../../../../arm-none-eabi/lib/thumb/v7e-m+fp/hard\libc_nano.a(lib_a-mbtowc_r.o)
_mprec_log10                                      c:/arm_gcc/bin/../lib/gcc/arm-none-eabi/9.2.1/../../../../arm-none-eabi/lib/thumb/v7e-m+fp/hard\libc_nano.a(lib_a-mprec.o)
_printf_common                                    c:/arm_gcc/bin/../lib/gcc/arm-none-eabi/9.2.1/../../../../arm-none-eabi/lib/thumb/v7e-m+fp/hard\libc_nano.a(lib_a-nano-vfprintf_i.o)
                                                  c:/arm_gcc/bin/../lib/gcc/arm-none-eabi/9.2.1/../../../../arm-none-eabi/lib/thumb/v7e-m+fp/hard\libc_nano.a(lib_a-nano-vfprintf_float.o)
_printf_float                                     c:/arm_gcc/bin/../lib/gcc/arm-none-eabi/9.2.1/../../../../arm-none-eabi/lib/thumb/v7e-m+fp/hard\libc_nano.a(lib_a-nano-vfprintf_float.o)
                                                  c:/arm_gcc/bin/../lib/gcc/arm-none-eabi/9.2.1/../../../../arm-none-eabi/lib/thumb/v7e-m+fp/hard\libc_nano.a(lib_a-nano-svfprintf.o)
_printf_i                                         c:/arm_gcc/bin/../lib/gcc/arm-none-eabi/9.2.1/../../../../arm-none-eabi/lib/thumb/v7e-m+fp/hard\libc_nano.a(lib_a-nano-vfprintf_i.o)
                                                  c:/arm_gcc/bin/../lib/gcc/arm-none-eabi/9.2.1/../../../../arm-none-eabi/lib/thumb/v7e-m+fp/hard\libc_nano.a(lib_a-nano-svfprintf.o)
_realloc_r                                        c:/arm_gcc/bin/../lib/gcc/arm-none-eabi/9.2.1/../../../../arm-none-eabi/lib/thumb/v7e-m+fp/hard\libc_nano.a(lib_a-nano-reallocr.o)
                                                  c:/arm_gcc/bin/../lib/gcc/arm-none-eabi/9.2.1/../../../../arm-none-eabi/lib/thumb/v7e-m+fp/hard\libc_nano.a(lib_a-nano-svfprintf.o)
_reclaim_reent                                    c:/arm_gcc/bin/../lib/gcc/arm-none-eabi/9.2.1/../../../../arm-none-eabi/lib/thumb/v7e-m+fp/hard\libc_nano.a(lib_a-reent.o)
_sbrk                                             c:/arm_gcc/bin/../lib/gcc/arm-none-eabi/9.2.1/../../../../arm-none-eabi/lib/thumb/v7e-m+fp/hard\libnosys.a(sbrk.o)
                                                  c:/arm_gcc/bin/../lib/gcc/arm-none-eabi/9.2.1/../../../../arm-none-eabi/lib/thumb/v7e-m+fp/hard\libc_nano.a(lib_a-sbrkr.o)
_sbrk_r                                           c:/arm_gcc/bin/../lib/gcc/arm-none-eabi/9.2.1/../../../../arm-none-eabi/lib/thumb/v7e-m+fp/hard\libc_nano.a(lib_a-sbrkr.o)
                                                  c:/arm_gcc/bin/../lib/gcc/arm-none-eabi/9.2.1/../../../../arm-none-eabi/lib/thumb/v7e-m+fp/hard\libc_nano.a(lib_a-nano-mallocr.o)
_sbss                                             build_my/startup_stm32f405xx.o
_sdata                                            build_my/startup_stm32f405xx.o
_setlocale_r                                      c:/arm_gcc/bin/../lib/gcc/arm-none-eabi/9.2.1/../../../../arm-none-eabi/lib/thumb/v7e-m+fp/hard\libc_nano.a(lib_a-locale.o)
_sidata                                           build_my/startup_stm32f405xx.o
_start                                            c:/arm_gcc/bin/../lib/gcc/arm-none-eabi/9.2.1/../../../../arm-none-eabi/lib/thumb/v7e-m+fp/hard/crt0.o
_strtod_l                                         c:/arm_gcc/bin/../lib/gcc/arm-none-eabi/9.2.1/../../../../arm-none-eabi/lib/thumb/v7e-m+fp/hard\libc_nano.a(lib_a-strtod.o)
_strtod_r                                         c:/arm_gcc/bin/../lib/gcc/arm-none-eabi/9.2.1/../../../../arm-none-eabi/lib/thumb/v7e-m+fp/hard\libc_nano.a(lib_a-strtod.o)
_svfiprintf_r                                     c:/arm_gcc/bin/../lib/gcc/arm-none-eabi/9.2.1/../../../../arm-none-eabi/lib/thumb/v7e-m+fp/hard\libc_nano.a(lib_a-nano-svfprintf.o)
_svfprintf_r                                      c:/arm_gcc/bin/../lib/gcc/arm-none-eabi/9.2.1/../../../../arm-none-eabi/lib/thumb/v7e-m+fp/hard\libc_nano.a(lib_a-nano-svfprintf.o)
                                                  c:/arm_gcc/bin/../lib/gcc/arm-none-eabi/9.2.1/../../../../arm-none-eabi/lib/thumb/v7e-m+fp/hard\libc_nano.a(lib_a-vsnprintf.o)
_vsniprintf_r                                     c:/arm_gcc/bin/../lib/gcc/arm-none-eabi/9.2.1/../../../../arm-none-eabi/lib/thumb/v7e-m+fp/hard\libc_nano.a(lib_a-vsnprintf.o)
_vsnprintf_r                                      c:/arm_gcc/bin/../lib/gcc/arm-none-eabi/9.2.1/../../../../arm-none-eabi/lib/thumb/v7e-m+fp/hard\libc_nano.a(lib_a-vsnprintf.o)
_wctomb_r                                         c:/arm_gcc/bin/../lib/gcc/arm-none-eabi/9.2.1/../../../../arm-none-eabi/lib/thumb/v7e-m+fp/hard\libc_nano.a(lib_a-wctomb_r.o)
acosf                                             c:/arm_gcc/bin/../lib/gcc/arm-none-eabi/9.2.1/../../../../arm-none-eabi/lib/thumb/v7e-m+fp/hard\libm.a(lib_a-wf_acos.o)
                                                  build_my/easy_angle.o
add_cmd                                           build_my/command.o
                                                  build_my/cmd_fun.o
analize                                           build_my/command.o
                                                  build_my/uart_ext.o
armBitRevIndexTable1024                           build_my/arm_common_tables.o
armBitRevIndexTable128                            build_my/arm_common_tables.o
armBitRevIndexTable16                             build_my/arm_common_tables.o
armBitRevIndexTable2048                           build_my/arm_common_tables.o
armBitRevIndexTable256                            build_my/arm_common_tables.o
armBitRevIndexTable32                             build_my/arm_common_tables.o
armBitRevIndexTable4096                           build_my/arm_common_tables.o
armBitRevIndexTable512                            build_my/arm_common_tables.o
armBitRevIndexTable64                             build_my/arm_common_tables.o
armBitRevIndexTable_fixed_1024                    build_my/arm_common_tables.o
armBitRevIndexTable_fixed_128                     build_my/arm_common_tables.o
armBitRevIndexTable_fixed_16                      build_my/arm_common_tables.o
armBitRevIndexTable_fixed_2048                    build_my/arm_common_tables.o
armBitRevIndexTable_fixed_256                     build_my/arm_common_tables.o
armBitRevIndexTable_fixed_32                      build_my/arm_common_tables.o
armBitRevIndexTable_fixed_4096                    build_my/arm_common_tables.o
armBitRevIndexTable_fixed_512                     build_my/arm_common_tables.o
armBitRevIndexTable_fixed_64                      build_my/arm_common_tables.o
armBitRevTable                                    build_my/arm_common_tables.o
armRecipTableQ15                                  build_my/arm_common_tables.o
armRecipTableQ31                                  build_my/arm_common_tables.o
arm_cos_f32                                       build_my/arm_cos_f32.o
                                                  build_my/foc.o
arm_sin_cos_f32                                   build_my/arm_sin_cos_f32.o
                                                  build_my/foc.o
                                                  build_my/SVPWM.o
arm_sin_f32                                       build_my/arm_sin_f32.o
atan2f                                            c:/arm_gcc/bin/../lib/gcc/arm-none-eabi/9.2.1/../../../../arm-none-eabi/lib/thumb/v7e-m+fp/hard\libm.a(lib_a-wf_atan2.o)
                                                  build_my/foc.o
                                                  build_my/SVPWM.o
atanf                                             c:/arm_gcc/bin/../lib/gcc/arm-none-eabi/9.2.1/../../../../arm-none-eabi/lib/thumb/v7e-m+fp/hard\libm.a(lib_a-sf_atan.o)
                                                  c:/arm_gcc/bin/../lib/gcc/arm-none-eabi/9.2.1/../../../../arm-none-eabi/lib/thumb/v7e-m+fp/hard\libm.a(lib_a-ef_atan2.o)
atexit                                            c:/arm_gcc/bin/../lib/gcc/arm-none-eabi/9.2.1/../../../../arm-none-eabi/lib/thumb/v7e-m+fp/hard/crt0.o
atof                                              c:/arm_gcc/bin/../lib/gcc/arm-none-eabi/9.2.1/../../../../arm-none-eabi/lib/thumb/v7e-m+fp/hard\libc_nano.a(lib_a-atof.o)
                                                  build_my/command.o
buffer_rx                                         build_my/uart_ext.o
                                                  build_my/foc_spi_com.o
buffer_rx_OK                                      build_my/uart_ext.o
                                                  build_my/foc_spi_com.o
                                                  build_my/main.o
buffer_rx_count                                   build_my/uart_ext.o
buffer_rx_temp                                    build_my/uart_ext.o
cleanup_glue                                      c:/arm_gcc/bin/../lib/gcc/arm-none-eabi/9.2.1/../../../../arm-none-eabi/lib/thumb/v7e-m+fp/hard\libc_nano.a(lib_a-reent.o)
command_init                                      build_my/cmd_fun.o
                                                  build_my/uart_ext.o
compare_cmd                                       build_my/command.o
compare_string                                    build_my/command.o
                                                  build_my/cmd_fun.o
conf_general_calculate_deadtime                   build_my/tim.o
current                                           build_my/foc.o
                                                  build_my/utils.o
current_adc_offset                                build_my/foc.o
current_adc_value                                 build_my/foc.o
debug_uart_init                                   build_my/uart_ext.o
                                                  build_my/main.o
detect                                            build_my/cmd_fun.o
end                                               c:/arm_gcc/bin/../lib/gcc/arm-none-eabi/9.2.1/../../../../arm-none-eabi/lib/thumb/v7e-m+fp/hard\libnosys.a(sbrk.o)
errno                                             c:/arm_gcc/bin/../lib/gcc/arm-none-eabi/9.2.1/../../../../arm-none-eabi/lib/thumb/v7e-m+fp/hard\libc_nano.a(lib_a-reent.o)
                                                  c:/arm_gcc/bin/../lib/gcc/arm-none-eabi/9.2.1/../../../../arm-none-eabi/lib/thumb/v7e-m+fp/hard\libc_nano.a(lib_a-sbrkr.o)
exit                                              c:/arm_gcc/bin/../lib/gcc/arm-none-eabi/9.2.1/../../../../arm-none-eabi/lib/thumb/v7e-m+fp/hard\libc_nano.a(lib_a-exit.o)
                                                  c:/arm_gcc/bin/../lib/gcc/arm-none-eabi/9.2.1/../../../../arm-none-eabi/lib/thumb/v7e-m+fp/hard/crt0.o
fabsf                                             c:/arm_gcc/bin/../lib/gcc/arm-none-eabi/9.2.1/../../../../arm-none-eabi/lib/thumb/v7e-m+fp/hard\libm.a(lib_a-sf_fabs.o)
                                                  c:/arm_gcc/bin/../lib/gcc/arm-none-eabi/9.2.1/../../../../arm-none-eabi/lib/thumb/v7e-m+fp/hard\libm.a(lib_a-sf_atan.o)
                                                  c:/arm_gcc/bin/../lib/gcc/arm-none-eabi/9.2.1/../../../../arm-none-eabi/lib/thumb/v7e-m+fp/hard\libm.a(lib_a-ef_atan2.o)
                                                  c:/arm_gcc/bin/../lib/gcc/arm-none-eabi/9.2.1/../../../../arm-none-eabi/lib/thumb/v7e-m+fp/hard\libm.a(lib_a-wf_acos.o)
free                                              c:/arm_gcc/bin/../lib/gcc/arm-none-eabi/9.2.1/../../../../arm-none-eabi/lib/thumb/v7e-m+fp/hard\libc_nano.a(lib_a-malloc.o)
                                                  build_my/soft_i2c.o
                                                  build_my/as5047.o
                                                  build_my/command.o
g_pfnVectors                                      build_my/startup_stm32f405xx.o
get_angle                                         build_my/easy_angle.o
gyro_k                                            build_my/easy_angle.o
hadc1                                             build_my/adc.o
                                                  build_my/foc.o
hadc2                                             build_my/adc.o
                                                  build_my/foc.o
hadc3                                             build_my/adc.o
                                                  build_my/foc.o
hardware_init_hook                                c:/arm_gcc/bin/../lib/gcc/arm-none-eabi/9.2.1/../../../../arm-none-eabi/lib/thumb/v7e-m+fp/hard/crt0.o
hcan1                                             build_my/can.o
hdac                                              build_my/dac.o
hdma_adc1                                         build_my/adc.o
                                                  build_my/stm32f4xx_it.o
hdma_spi1_rx                                      build_my/spi.o
                                                  build_my/stm32f4xx_it.o
hdma_spi1_tx                                      build_my/spi.o
                                                  build_my/stm32f4xx_it.o
hdma_uart5_rx                                     build_my/usart.o
                                                  build_my/stm32f4xx_it.o
hdma_uart5_tx                                     build_my/usart.o
                                                  build_my/stm32f4xx_it.o
hpcd_USB_OTG_FS                                   build_my/usb_otg.o
hspi1                                             build_my/spi.o
                                                  build_my/foc_spi_com.o
hspi3                                             build_my/spi.o
                                                  build_my/main.o
htim1                                             build_my/tim.o
                                                  build_my/stm32f4xx_it.o
                                                  build_my/foc.o
htim6                                             build_my/tim.o
                                                  build_my/stm32f4xx_it.o
htim7                                             build_my/tim.o
                                                  build_my/stm32f4xx_it.o
                                                  build_my/foc.o
htim8                                             build_my/tim.o
                                                  build_my/foc.o
huart5                                            build_my/usart.o
                                                  build_my/stm32f4xx_it.o
                                                  build_my/main.o
ialpha                                            build_my/foc.o
                                                  build_my/utils.o
ibeta                                             build_my/foc.o
                                                  build_my/utils.o
id                                                build_my/foc.o
                                                  build_my/utils.o
input_voltage                                     build_my/foc.o
                                                  build_my/utils.o
iq                                                build_my/foc.o
                                                  build_my/utils.o
localeconv                                        c:/arm_gcc/bin/../lib/gcc/arm-none-eabi/9.2.1/../../../../arm-none-eabi/lib/thumb/v7e-m+fp/hard\libc_nano.a(lib_a-localeconv.o)
main                                              build_my/main.o
                                                  build_my/startup_stm32f405xx.o
                                                  c:/arm_gcc/bin/../lib/gcc/arm-none-eabi/9.2.1/../../../../arm-none-eabi/lib/thumb/v7e-m+fp/hard/crt0.o
malloc                                            c:/arm_gcc/bin/../lib/gcc/arm-none-eabi/9.2.1/../../../../arm-none-eabi/lib/thumb/v7e-m+fp/hard\libc_nano.a(lib_a-malloc.o)
                                                  c:/arm_gcc/bin/../lib/gcc/arm-none-eabi/9.2.1/../../../../arm-none-eabi/lib/thumb/v7e-m+fp/hard\libc_nano.a(lib_a-mprec.o)
                                                  c:/arm_gcc/bin/../lib/gcc/arm-none-eabi/9.2.1/../../../../arm-none-eabi/lib/thumb/v7e-m+fp/hard\libc_nano.a(lib_a-dtoa.o)
                                                  build_my/soft_i2c.o
                                                  build_my/as5047.o
                                                  build_my/command.o
matherr                                           c:/arm_gcc/bin/../lib/gcc/arm-none-eabi/9.2.1/../../../../arm-none-eabi/lib/thumb/v7e-m+fp/hard\libm.a(lib_a-s_matherr.o)
                                                  c:/arm_gcc/bin/../lib/gcc/arm-none-eabi/9.2.1/../../../../arm-none-eabi/lib/thumb/v7e-m+fp/hard\libm.a(lib_a-wf_sqrt.o)
                                                  c:/arm_gcc/bin/../lib/gcc/arm-none-eabi/9.2.1/../../../../arm-none-eabi/lib/thumb/v7e-m+fp/hard\libm.a(lib_a-wf_acos.o)
measure_ind                                       build_my/cmd_fun.o
measure_res                                       build_my/cmd_fun.o
memchr                                            c:/arm_gcc/bin/../lib/gcc/arm-none-eabi/9.2.1/../../../../arm-none-eabi/lib/thumb/v7e-m+fp/hard\libc_nano.a(lib_a-memchr.o)
                                                  c:/arm_gcc/bin/../lib/gcc/arm-none-eabi/9.2.1/../../../../arm-none-eabi/lib/thumb/v7e-m+fp/hard\libc_nano.a(lib_a-nano-svfprintf.o)
                                                  c:/arm_gcc/bin/../lib/gcc/arm-none-eabi/9.2.1/../../../../arm-none-eabi/lib/thumb/v7e-m+fp/hard\libc_nano.a(lib_a-nano-vfprintf_i.o)
memcpy                                            c:/arm_gcc/bin/../lib/gcc/arm-none-eabi/9.2.1/../../../../arm-none-eabi/lib/thumb/v7e-m+fp/hard\libc_nano.a(lib_a-memcpy-stub.o)
                                                  c:/arm_gcc/bin/../lib/gcc/arm-none-eabi/9.2.1/../../../../arm-none-eabi/lib/thumb/v7e-m+fp/hard\libc_nano.a(lib_a-nano-reallocr.o)
                                                  c:/arm_gcc/bin/../lib/gcc/arm-none-eabi/9.2.1/../../../../arm-none-eabi/lib/thumb/v7e-m+fp/hard\libc_nano.a(lib_a-nano-svfprintf.o)
                                                  c:/arm_gcc/bin/../lib/gcc/arm-none-eabi/9.2.1/../../../../arm-none-eabi/lib/thumb/v7e-m+fp/hard\libc_nano.a(lib_a-mprec.o)
                                                  c:/arm_gcc/bin/../lib/gcc/arm-none-eabi/9.2.1/../../../../arm-none-eabi/lib/thumb/v7e-m+fp/hard\libc_nano.a(lib_a-gdtoa-gethex.o)
                                                  c:/arm_gcc/bin/../lib/gcc/arm-none-eabi/9.2.1/../../../../arm-none-eabi/lib/thumb/v7e-m+fp/hard\libc_nano.a(lib_a-dtoa.o)
                                                  c:/arm_gcc/bin/../lib/gcc/arm-none-eabi/9.2.1/../../../../arm-none-eabi/lib/thumb/v7e-m+fp/hard\libc_nano.a(lib_a-strtod.o)
                                                  build_my/parameter.o
                                                  build_my/spi_slave.o
                                                  build_my/soft_i2c.o
memmove                                           c:/arm_gcc/bin/../lib/gcc/arm-none-eabi/9.2.1/../../../../arm-none-eabi/lib/thumb/v7e-m+fp/hard\libc_nano.a(lib_a-memmove.o)
                                                  c:/arm_gcc/bin/../lib/gcc/arm-none-eabi/9.2.1/../../../../arm-none-eabi/lib/thumb/v7e-m+fp/hard\libc_nano.a(lib_a-nano-svfprintf.o)
memset                                            c:/arm_gcc/bin/../lib/gcc/arm-none-eabi/9.2.1/../../../../arm-none-eabi/lib/thumb/v7e-m+fp/hard\libc_nano.a(lib_a-memset.o)
                                                  c:/arm_gcc/bin/../lib/gcc/arm-none-eabi/9.2.1/../../../../arm-none-eabi/lib/thumb/v7e-m+fp/hard\libc_nano.a(lib_a-nano-callocr.o)
                                                  build_my/tim.o
                                                  build_my/main.o
                                                  c:/arm_gcc/bin/../lib/gcc/arm-none-eabi/9.2.1/../../../../arm-none-eabi/lib/thumb/v7e-m+fp/hard/crt0.o
mpu_error_deal                                    build_my/icm20600.o
nan                                               c:/arm_gcc/bin/../lib/gcc/arm-none-eabi/9.2.1/../../../../arm-none-eabi/lib/thumb/v7e-m+fp/hard\libc_nano.a(lib_a-s_nan.o)
                                                  c:/arm_gcc/bin/../lib/gcc/arm-none-eabi/9.2.1/../../../../arm-none-eabi/lib/thumb/v7e-m+fp/hard\libm.a(lib_a-wf_acos.o)
                                                  c:/arm_gcc/bin/../lib/gcc/arm-none-eabi/9.2.1/../../../../arm-none-eabi/lib/thumb/v7e-m+fp/hard\libc_nano.a(lib_a-strtod.o)
nanf                                              c:/arm_gcc/bin/../lib/gcc/arm-none-eabi/9.2.1/../../../../arm-none-eabi/lib/thumb/v7e-m+fp/hard\libc_nano.a(lib_a-sf_nan.o)
                                                  c:/arm_gcc/bin/../lib/gcc/arm-none-eabi/9.2.1/../../../../arm-none-eabi/lib/thumb/v7e-m+fp/hard\libc_nano.a(lib_a-strtod.o)
pFlash                                            build_my/stm32f4xx_hal_flash.o
                                                  build_my/stm32f4xx_hal_flash_ex.o
position                                          build_my/cmd_fun.o
reset_PID                                         build_my/pid.o
s                                                 build_my/uart_ext.o
send_debug_wave                                   build_my/debug_utils.o
                                                  build_my/foc.o
send_wave                                         build_my/uart_ext.o
                                                  build_my/debug_utils.o
set_PID                                           build_my/cmd_fun.o
set_mode                                          build_my/cmd_fun.o
set_pos_off_here                                  build_my/cmd_fun.o
set_to_u4                                         build_my/cmd_fun.o
set_val                                           build_my/cmd_fun.o
setlocale                                         c:/arm_gcc/bin/../lib/gcc/arm-none-eabi/9.2.1/../../../../arm-none-eabi/lib/thumb/v7e-m+fp/hard\libc_nano.a(lib_a-locale.o)
sinTable_f32                                      build_my/arm_common_tables.o
                                                  build_my/arm_cos_f32.o
                                                  build_my/arm_sin_f32.o
                                                  build_my/arm_sin_cos_f32.o
sinTable_q15                                      build_my/arm_common_tables.o
sinTable_q31                                      build_my/arm_common_tables.o
software_init_hook                                c:/arm_gcc/bin/../lib/gcc/arm-none-eabi/9.2.1/../../../../arm-none-eabi/lib/thumb/v7e-m+fp/hard/crt0.o
sqrtf                                             c:/arm_gcc/bin/../lib/gcc/arm-none-eabi/9.2.1/../../../../arm-none-eabi/lib/thumb/v7e-m+fp/hard\libm.a(lib_a-wf_sqrt.o)
                                                  build_my/foc.o
                                                  build_my/SVPWM.o
                                                  build_my/easy_angle.o
start                                             build_my/cmd_fun.o
strcmp                                            c:/arm_gcc/bin/../lib/gcc/arm-none-eabi/9.2.1/../../../../arm-none-eabi/lib/thumb/v7e-m+fp/hard\libc_nano.a(lib_a-strcmp.o)
                                                  c:/arm_gcc/bin/../lib/gcc/arm-none-eabi/9.2.1/../../../../arm-none-eabi/lib/thumb/v7e-m+fp/hard\libc_nano.a(lib_a-locale.o)
strlen                                            c:/arm_gcc/bin/../lib/gcc/arm-none-eabi/9.2.1/../../../../arm-none-eabi/lib/thumb/v7e-m+fp/hard\libc_nano.a(lib_a-strlen.o)
                                                  c:/arm_gcc/bin/../lib/gcc/arm-none-eabi/9.2.1/../../../../arm-none-eabi/lib/thumb/v7e-m+fp/hard\libc_nano.a(lib_a-gdtoa-gethex.o)
                                                  c:/arm_gcc/bin/../lib/gcc/arm-none-eabi/9.2.1/../../../../arm-none-eabi/lib/thumb/v7e-m+fp/hard\libc_nano.a(lib_a-strtod.o)
                                                  c:/arm_gcc/bin/../lib/gcc/arm-none-eabi/9.2.1/../../../../arm-none-eabi/lib/thumb/v7e-m+fp/hard\libc_nano.a(lib_a-nano-vfprintf_float.o)
strncmp                                           c:/arm_gcc/bin/../lib/gcc/arm-none-eabi/9.2.1/../../../../arm-none-eabi/lib/thumb/v7e-m+fp/hard\libc_nano.a(lib_a-strncmp.o)
                                                  c:/arm_gcc/bin/../lib/gcc/arm-none-eabi/9.2.1/../../../../arm-none-eabi/lib/thumb/v7e-m+fp/hard\libc_nano.a(lib_a-gdtoa-gethex.o)
                                                  c:/arm_gcc/bin/../lib/gcc/arm-none-eabi/9.2.1/../../../../arm-none-eabi/lib/thumb/v7e-m+fp/hard\libc_nano.a(lib_a-strtod.o)
strtod                                            c:/arm_gcc/bin/../lib/gcc/arm-none-eabi/9.2.1/../../../../arm-none-eabi/lib/thumb/v7e-m+fp/hard\libc_nano.a(lib_a-strtod.o)
                                                  c:/arm_gcc/bin/../lib/gcc/arm-none-eabi/9.2.1/../../../../arm-none-eabi/lib/thumb/v7e-m+fp/hard\libc_nano.a(lib_a-atof.o)
strtod_l                                          c:/arm_gcc/bin/../lib/gcc/arm-none-eabi/9.2.1/../../../../arm-none-eabi/lib/thumb/v7e-m+fp/hard\libc_nano.a(lib_a-strtod.o)
strtof                                            c:/arm_gcc/bin/../lib/gcc/arm-none-eabi/9.2.1/../../../../arm-none-eabi/lib/thumb/v7e-m+fp/hard\libc_nano.a(lib_a-strtod.o)
strtof_l                                          c:/arm_gcc/bin/../lib/gcc/arm-none-eabi/9.2.1/../../../../arm-none-eabi/lib/thumb/v7e-m+fp/hard\libc_nano.a(lib_a-strtod.o)
temp_read                                         build_my/icm20600.o
test_direction                                    build_my/cmd_fun.o
test_s                                            build_my/cmd_fun.o
test_s2                                           build_my/cmd_fun.o
test_spi_com                                      build_my/cmd_fun.o
twiddleCoef_1024                                  build_my/arm_common_tables.o
twiddleCoef_1024_q15                              build_my/arm_common_tables.o
twiddleCoef_1024_q31                              build_my/arm_common_tables.o
twiddleCoef_128                                   build_my/arm_common_tables.o
twiddleCoef_128_q15                               build_my/arm_common_tables.o
twiddleCoef_128_q31                               build_my/arm_common_tables.o
twiddleCoef_16                                    build_my/arm_common_tables.o
twiddleCoef_16_q15                                build_my/arm_common_tables.o
twiddleCoef_16_q31                                build_my/arm_common_tables.o
twiddleCoef_2048                                  build_my/arm_common_tables.o
twiddleCoef_2048_q15                              build_my/arm_common_tables.o
twiddleCoef_2048_q31                              build_my/arm_common_tables.o
twiddleCoef_256                                   build_my/arm_common_tables.o
twiddleCoef_256_q15                               build_my/arm_common_tables.o
twiddleCoef_256_q31                               build_my/arm_common_tables.o
twiddleCoef_32                                    build_my/arm_common_tables.o
twiddleCoef_32_q15                                build_my/arm_common_tables.o
twiddleCoef_32_q31                                build_my/arm_common_tables.o
twiddleCoef_4096                                  build_my/arm_common_tables.o
twiddleCoef_4096_q15                              build_my/arm_common_tables.o
twiddleCoef_4096_q31                              build_my/arm_common_tables.o
twiddleCoef_512                                   build_my/arm_common_tables.o
twiddleCoef_512_q15                               build_my/arm_common_tables.o
twiddleCoef_512_q31                               build_my/arm_common_tables.o
twiddleCoef_64                                    build_my/arm_common_tables.o
twiddleCoef_64_q15                                build_my/arm_common_tables.o
twiddleCoef_64_q31                                build_my/arm_common_tables.o
twiddleCoef_rfft_1024                             build_my/arm_common_tables.o
twiddleCoef_rfft_128                              build_my/arm_common_tables.o
twiddleCoef_rfft_2048                             build_my/arm_common_tables.o
twiddleCoef_rfft_256                              build_my/arm_common_tables.o
twiddleCoef_rfft_32                               build_my/arm_common_tables.o
twiddleCoef_rfft_4096                             build_my/arm_common_tables.o
twiddleCoef_rfft_512                              build_my/arm_common_tables.o
twiddleCoef_rfft_64                               build_my/arm_common_tables.o
uart_buffer                                       build_my/uart_ext.o
uprintf                                           build_my/uart_ext.o
                                                  build_my/cmd_fun.o
                                                  build_my/foc.o
                                                  build_my/command.o
uprintf_polling                                   build_my/uart_ext.o
                                                  build_my/cmd_fun.o
                                                  build_my/foc.o
                                                  build_my/parameter.o
                                                  build_my/main.o
uwTick                                            build_my/stm32f4xx_hal.o
uwTickFreq                                        build_my/stm32f4xx_hal.o
uwTickPrio                                        build_my/stm32f4xx_hal.o
                                                  build_my/stm32f4xx_hal_rcc_ex.o
                                                  build_my/stm32f4xx_hal_rcc.o
vsniprintf                                        c:/arm_gcc/bin/../lib/gcc/arm-none-eabi/9.2.1/../../../../arm-none-eabi/lib/thumb/v7e-m+fp/hard\libc_nano.a(lib_a-vsnprintf.o)
vsnprintf                                         c:/arm_gcc/bin/../lib/gcc/arm-none-eabi/9.2.1/../../../../arm-none-eabi/lib/thumb/v7e-m+fp/hard\libc_nano.a(lib_a-vsnprintf.o)
                                                  build_my/uart_ext.o
wave                                              build_my/cmd_fun.o
wg1                                               build_my/utils.o
                                                  build_my/foc.o
wg2                                               build_my/utils.o
                                                  build_my/foc.o
wg3                                               build_my/utils.o
                                                  build_my/foc.o
wrtie_param                                       build_my/cmd_fun.o
