ARM GAS  C:\Users\ncer\AppData\Local\Temp\ccdOUS7h.s 			page 1


   1              		.cpu cortex-m4
   2              		.eabi_attribute 27, 1
   3              		.eabi_attribute 28, 1
   4              		.eabi_attribute 20, 1
   5              		.eabi_attribute 21, 1
   6              		.eabi_attribute 23, 3
   7              		.eabi_attribute 24, 1
   8              		.eabi_attribute 25, 1
   9              		.eabi_attribute 26, 1
  10              		.eabi_attribute 30, 1
  11              		.eabi_attribute 34, 1
  12              		.eabi_attribute 18, 4
  13              		.file	"stm32f4xx_it.c"
  14              		.text
  15              	.Ltext0:
  16              		.cfi_sections	.debug_frame
  17              		.section	.text.NMI_Handler,"ax",%progbits
  18              		.align	1
  19              		.global	NMI_Handler
  20              		.arch armv7e-m
  21              		.syntax unified
  22              		.thumb
  23              		.thumb_func
  24              		.fpu fpv4-sp-d16
  26              	NMI_Handler:
  27              	.LFB133:
  28              		.file 1 "Src/stm32f4xx_it.c"
   1:Src/stm32f4xx_it.c **** /* USER CODE BEGIN Header */
   2:Src/stm32f4xx_it.c **** /**
   3:Src/stm32f4xx_it.c ****   ******************************************************************************
   4:Src/stm32f4xx_it.c ****   * @file    stm32f4xx_it.c
   5:Src/stm32f4xx_it.c ****   * @brief   Interrupt Service Routines.
   6:Src/stm32f4xx_it.c ****   ******************************************************************************
   7:Src/stm32f4xx_it.c ****   * @attention
   8:Src/stm32f4xx_it.c ****   *
   9:Src/stm32f4xx_it.c ****   * <h2><center>&copy; Copyright (c) 2020 STMicroelectronics.
  10:Src/stm32f4xx_it.c ****   * All rights reserved.</center></h2>
  11:Src/stm32f4xx_it.c ****   *
  12:Src/stm32f4xx_it.c ****   * This software component is licensed by ST under BSD 3-Clause license,
  13:Src/stm32f4xx_it.c ****   * the "License"; You may not use this file except in compliance with the
  14:Src/stm32f4xx_it.c ****   * License. You may obtain a copy of the License at:
  15:Src/stm32f4xx_it.c ****   *                        opensource.org/licenses/BSD-3-Clause
  16:Src/stm32f4xx_it.c ****   *
  17:Src/stm32f4xx_it.c ****   ******************************************************************************
  18:Src/stm32f4xx_it.c ****   */
  19:Src/stm32f4xx_it.c **** /* USER CODE END Header */
  20:Src/stm32f4xx_it.c **** 
  21:Src/stm32f4xx_it.c **** /* Includes ------------------------------------------------------------------*/
  22:Src/stm32f4xx_it.c **** #include "main.h"
  23:Src/stm32f4xx_it.c **** #include "stm32f4xx_it.h"
  24:Src/stm32f4xx_it.c **** /* Private includes ----------------------------------------------------------*/
  25:Src/stm32f4xx_it.c **** /* USER CODE BEGIN Includes */
  26:Src/stm32f4xx_it.c **** #include "uart_ext.h"
  27:Src/stm32f4xx_it.c **** /* USER CODE END Includes */
  28:Src/stm32f4xx_it.c **** 
  29:Src/stm32f4xx_it.c **** /* Private typedef -----------------------------------------------------------*/
  30:Src/stm32f4xx_it.c **** /* USER CODE BEGIN TD */
ARM GAS  C:\Users\ncer\AppData\Local\Temp\ccdOUS7h.s 			page 2


  31:Src/stm32f4xx_it.c **** 
  32:Src/stm32f4xx_it.c **** /* USER CODE END TD */
  33:Src/stm32f4xx_it.c **** 
  34:Src/stm32f4xx_it.c **** /* Private define ------------------------------------------------------------*/
  35:Src/stm32f4xx_it.c **** /* USER CODE BEGIN PD */
  36:Src/stm32f4xx_it.c ****  
  37:Src/stm32f4xx_it.c **** /* USER CODE END PD */
  38:Src/stm32f4xx_it.c **** 
  39:Src/stm32f4xx_it.c **** /* Private macro -------------------------------------------------------------*/
  40:Src/stm32f4xx_it.c **** /* USER CODE BEGIN PM */
  41:Src/stm32f4xx_it.c **** 
  42:Src/stm32f4xx_it.c **** /* USER CODE END PM */
  43:Src/stm32f4xx_it.c **** 
  44:Src/stm32f4xx_it.c **** /* Private variables ---------------------------------------------------------*/
  45:Src/stm32f4xx_it.c **** /* USER CODE BEGIN PV */
  46:Src/stm32f4xx_it.c **** 
  47:Src/stm32f4xx_it.c **** /* USER CODE END PV */
  48:Src/stm32f4xx_it.c **** 
  49:Src/stm32f4xx_it.c **** /* Private function prototypes -----------------------------------------------*/
  50:Src/stm32f4xx_it.c **** /* USER CODE BEGIN PFP */
  51:Src/stm32f4xx_it.c **** 
  52:Src/stm32f4xx_it.c **** /* USER CODE END PFP */
  53:Src/stm32f4xx_it.c **** 
  54:Src/stm32f4xx_it.c **** /* Private user code ---------------------------------------------------------*/
  55:Src/stm32f4xx_it.c **** /* USER CODE BEGIN 0 */
  56:Src/stm32f4xx_it.c **** 
  57:Src/stm32f4xx_it.c **** /* USER CODE END 0 */
  58:Src/stm32f4xx_it.c **** 
  59:Src/stm32f4xx_it.c **** /* External variables --------------------------------------------------------*/
  60:Src/stm32f4xx_it.c **** extern DMA_HandleTypeDef hdma_adc1;
  61:Src/stm32f4xx_it.c **** extern DMA_HandleTypeDef hdma_adc2;
  62:Src/stm32f4xx_it.c **** extern TIM_HandleTypeDef htim1;
  63:Src/stm32f4xx_it.c **** extern TIM_HandleTypeDef htim6;
  64:Src/stm32f4xx_it.c **** extern TIM_HandleTypeDef htim7;
  65:Src/stm32f4xx_it.c **** extern DMA_HandleTypeDef hdma_uart5_rx;
  66:Src/stm32f4xx_it.c **** extern DMA_HandleTypeDef hdma_uart5_tx;
  67:Src/stm32f4xx_it.c **** extern UART_HandleTypeDef huart5;
  68:Src/stm32f4xx_it.c **** /* USER CODE BEGIN EV */
  69:Src/stm32f4xx_it.c **** extern void Ms_Handler();
  70:Src/stm32f4xx_it.c **** /* USER CODE END EV */
  71:Src/stm32f4xx_it.c **** 
  72:Src/stm32f4xx_it.c **** /******************************************************************************/
  73:Src/stm32f4xx_it.c **** /*           Cortex-M4 Processor Interruption and Exception Handlers          */ 
  74:Src/stm32f4xx_it.c **** /******************************************************************************/
  75:Src/stm32f4xx_it.c **** /**
  76:Src/stm32f4xx_it.c ****   * @brief This function handles Non maskable interrupt.
  77:Src/stm32f4xx_it.c ****   */
  78:Src/stm32f4xx_it.c **** void NMI_Handler(void)
  79:Src/stm32f4xx_it.c **** {
  29              		.loc 1 79 1 view -0
  30              		.cfi_startproc
  31              		@ args = 0, pretend = 0, frame = 0
  32              		@ frame_needed = 0, uses_anonymous_args = 0
  33              		@ link register save eliminated.
  80:Src/stm32f4xx_it.c ****   /* USER CODE BEGIN NonMaskableInt_IRQn 0 */
  81:Src/stm32f4xx_it.c **** 
  82:Src/stm32f4xx_it.c ****   /* USER CODE END NonMaskableInt_IRQn 0 */
ARM GAS  C:\Users\ncer\AppData\Local\Temp\ccdOUS7h.s 			page 3


  83:Src/stm32f4xx_it.c ****   /* USER CODE BEGIN NonMaskableInt_IRQn 1 */
  84:Src/stm32f4xx_it.c **** 
  85:Src/stm32f4xx_it.c ****   /* USER CODE END NonMaskableInt_IRQn 1 */
  86:Src/stm32f4xx_it.c **** }
  34              		.loc 1 86 1 view .LVU1
  35 0000 7047     		bx	lr
  36              		.cfi_endproc
  37              	.LFE133:
  39              		.section	.text.HardFault_Handler,"ax",%progbits
  40              		.align	1
  41              		.global	HardFault_Handler
  42              		.syntax unified
  43              		.thumb
  44              		.thumb_func
  45              		.fpu fpv4-sp-d16
  47              	HardFault_Handler:
  48              	.LFB134:
  87:Src/stm32f4xx_it.c **** 
  88:Src/stm32f4xx_it.c **** /**
  89:Src/stm32f4xx_it.c ****   * @brief This function handles Hard fault interrupt.
  90:Src/stm32f4xx_it.c ****   */
  91:Src/stm32f4xx_it.c **** void HardFault_Handler(void)
  92:Src/stm32f4xx_it.c **** {
  49              		.loc 1 92 1 view -0
  50              		.cfi_startproc
  51              		@ Volatile: function does not return.
  52              		@ args = 0, pretend = 0, frame = 0
  53              		@ frame_needed = 0, uses_anonymous_args = 0
  54              		@ link register save eliminated.
  55              	.L3:
  93:Src/stm32f4xx_it.c ****   /* USER CODE BEGIN HardFault_IRQn 0 */
  94:Src/stm32f4xx_it.c **** 
  95:Src/stm32f4xx_it.c ****   /* USER CODE END HardFault_IRQn 0 */
  96:Src/stm32f4xx_it.c ****   while (1)
  56              		.loc 1 96 3 discriminator 1 view .LVU3
  97:Src/stm32f4xx_it.c ****   {
  98:Src/stm32f4xx_it.c ****     /* USER CODE BEGIN W1_HardFault_IRQn 0 */
  99:Src/stm32f4xx_it.c ****     /* USER CODE END W1_HardFault_IRQn 0 */
 100:Src/stm32f4xx_it.c ****   }
  57              		.loc 1 100 3 discriminator 1 view .LVU4
  96:Src/stm32f4xx_it.c ****   {
  58              		.loc 1 96 9 discriminator 1 view .LVU5
  59 0000 FEE7     		b	.L3
  60              		.cfi_endproc
  61              	.LFE134:
  63              		.section	.text.MemManage_Handler,"ax",%progbits
  64              		.align	1
  65              		.global	MemManage_Handler
  66              		.syntax unified
  67              		.thumb
  68              		.thumb_func
  69              		.fpu fpv4-sp-d16
  71              	MemManage_Handler:
  72              	.LFB135:
 101:Src/stm32f4xx_it.c **** }
 102:Src/stm32f4xx_it.c **** 
 103:Src/stm32f4xx_it.c **** /**
ARM GAS  C:\Users\ncer\AppData\Local\Temp\ccdOUS7h.s 			page 4


 104:Src/stm32f4xx_it.c ****   * @brief This function handles Memory management fault.
 105:Src/stm32f4xx_it.c ****   */
 106:Src/stm32f4xx_it.c **** void MemManage_Handler(void)
 107:Src/stm32f4xx_it.c **** {
  73              		.loc 1 107 1 view -0
  74              		.cfi_startproc
  75              		@ Volatile: function does not return.
  76              		@ args = 0, pretend = 0, frame = 0
  77              		@ frame_needed = 0, uses_anonymous_args = 0
  78              		@ link register save eliminated.
  79              	.L5:
 108:Src/stm32f4xx_it.c ****   /* USER CODE BEGIN MemoryManagement_IRQn 0 */
 109:Src/stm32f4xx_it.c **** 
 110:Src/stm32f4xx_it.c ****   /* USER CODE END MemoryManagement_IRQn 0 */
 111:Src/stm32f4xx_it.c ****   while (1)
  80              		.loc 1 111 3 discriminator 1 view .LVU7
 112:Src/stm32f4xx_it.c ****   {
 113:Src/stm32f4xx_it.c ****     /* USER CODE BEGIN W1_MemoryManagement_IRQn 0 */
 114:Src/stm32f4xx_it.c ****     /* USER CODE END W1_MemoryManagement_IRQn 0 */
 115:Src/stm32f4xx_it.c ****   }
  81              		.loc 1 115 3 discriminator 1 view .LVU8
 111:Src/stm32f4xx_it.c ****   {
  82              		.loc 1 111 9 discriminator 1 view .LVU9
  83 0000 FEE7     		b	.L5
  84              		.cfi_endproc
  85              	.LFE135:
  87              		.section	.text.BusFault_Handler,"ax",%progbits
  88              		.align	1
  89              		.global	BusFault_Handler
  90              		.syntax unified
  91              		.thumb
  92              		.thumb_func
  93              		.fpu fpv4-sp-d16
  95              	BusFault_Handler:
  96              	.LFB136:
 116:Src/stm32f4xx_it.c **** }
 117:Src/stm32f4xx_it.c **** 
 118:Src/stm32f4xx_it.c **** /**
 119:Src/stm32f4xx_it.c ****   * @brief This function handles Pre-fetch fault, memory access fault.
 120:Src/stm32f4xx_it.c ****   */
 121:Src/stm32f4xx_it.c **** void BusFault_Handler(void)
 122:Src/stm32f4xx_it.c **** {
  97              		.loc 1 122 1 view -0
  98              		.cfi_startproc
  99              		@ Volatile: function does not return.
 100              		@ args = 0, pretend = 0, frame = 0
 101              		@ frame_needed = 0, uses_anonymous_args = 0
 102              		@ link register save eliminated.
 103              	.L7:
 123:Src/stm32f4xx_it.c ****   /* USER CODE BEGIN BusFault_IRQn 0 */
 124:Src/stm32f4xx_it.c **** 
 125:Src/stm32f4xx_it.c ****   /* USER CODE END BusFault_IRQn 0 */
 126:Src/stm32f4xx_it.c ****   while (1)
 104              		.loc 1 126 3 discriminator 1 view .LVU11
 127:Src/stm32f4xx_it.c ****   {
 128:Src/stm32f4xx_it.c ****     /* USER CODE BEGIN W1_BusFault_IRQn 0 */
 129:Src/stm32f4xx_it.c ****     /* USER CODE END W1_BusFault_IRQn 0 */
ARM GAS  C:\Users\ncer\AppData\Local\Temp\ccdOUS7h.s 			page 5


 130:Src/stm32f4xx_it.c ****   }
 105              		.loc 1 130 3 discriminator 1 view .LVU12
 126:Src/stm32f4xx_it.c ****   {
 106              		.loc 1 126 9 discriminator 1 view .LVU13
 107 0000 FEE7     		b	.L7
 108              		.cfi_endproc
 109              	.LFE136:
 111              		.section	.text.UsageFault_Handler,"ax",%progbits
 112              		.align	1
 113              		.global	UsageFault_Handler
 114              		.syntax unified
 115              		.thumb
 116              		.thumb_func
 117              		.fpu fpv4-sp-d16
 119              	UsageFault_Handler:
 120              	.LFB137:
 131:Src/stm32f4xx_it.c **** }
 132:Src/stm32f4xx_it.c **** 
 133:Src/stm32f4xx_it.c **** /**
 134:Src/stm32f4xx_it.c ****   * @brief This function handles Undefined instruction or illegal state.
 135:Src/stm32f4xx_it.c ****   */
 136:Src/stm32f4xx_it.c **** void UsageFault_Handler(void)
 137:Src/stm32f4xx_it.c **** {
 121              		.loc 1 137 1 view -0
 122              		.cfi_startproc
 123              		@ Volatile: function does not return.
 124              		@ args = 0, pretend = 0, frame = 0
 125              		@ frame_needed = 0, uses_anonymous_args = 0
 126              		@ link register save eliminated.
 127              	.L9:
 138:Src/stm32f4xx_it.c ****   /* USER CODE BEGIN UsageFault_IRQn 0 */
 139:Src/stm32f4xx_it.c **** 
 140:Src/stm32f4xx_it.c ****   /* USER CODE END UsageFault_IRQn 0 */
 141:Src/stm32f4xx_it.c ****   while (1)
 128              		.loc 1 141 3 discriminator 1 view .LVU15
 142:Src/stm32f4xx_it.c ****   {
 143:Src/stm32f4xx_it.c ****     /* USER CODE BEGIN W1_UsageFault_IRQn 0 */
 144:Src/stm32f4xx_it.c ****     /* USER CODE END W1_UsageFault_IRQn 0 */
 145:Src/stm32f4xx_it.c ****   }
 129              		.loc 1 145 3 discriminator 1 view .LVU16
 141:Src/stm32f4xx_it.c ****   {
 130              		.loc 1 141 9 discriminator 1 view .LVU17
 131 0000 FEE7     		b	.L9
 132              		.cfi_endproc
 133              	.LFE137:
 135              		.section	.text.SVC_Handler,"ax",%progbits
 136              		.align	1
 137              		.global	SVC_Handler
 138              		.syntax unified
 139              		.thumb
 140              		.thumb_func
 141              		.fpu fpv4-sp-d16
 143              	SVC_Handler:
 144              	.LFB138:
 146:Src/stm32f4xx_it.c **** }
 147:Src/stm32f4xx_it.c **** 
 148:Src/stm32f4xx_it.c **** /**
ARM GAS  C:\Users\ncer\AppData\Local\Temp\ccdOUS7h.s 			page 6


 149:Src/stm32f4xx_it.c ****   * @brief This function handles System service call via SWI instruction.
 150:Src/stm32f4xx_it.c ****   */
 151:Src/stm32f4xx_it.c **** void SVC_Handler(void)
 152:Src/stm32f4xx_it.c **** {
 145              		.loc 1 152 1 view -0
 146              		.cfi_startproc
 147              		@ args = 0, pretend = 0, frame = 0
 148              		@ frame_needed = 0, uses_anonymous_args = 0
 149              		@ link register save eliminated.
 153:Src/stm32f4xx_it.c ****   /* USER CODE BEGIN SVCall_IRQn 0 */
 154:Src/stm32f4xx_it.c **** 
 155:Src/stm32f4xx_it.c ****   /* USER CODE END SVCall_IRQn 0 */
 156:Src/stm32f4xx_it.c ****   /* USER CODE BEGIN SVCall_IRQn 1 */
 157:Src/stm32f4xx_it.c **** 
 158:Src/stm32f4xx_it.c ****   /* USER CODE END SVCall_IRQn 1 */
 159:Src/stm32f4xx_it.c **** }
 150              		.loc 1 159 1 view .LVU19
 151 0000 7047     		bx	lr
 152              		.cfi_endproc
 153              	.LFE138:
 155              		.section	.text.DebugMon_Handler,"ax",%progbits
 156              		.align	1
 157              		.global	DebugMon_Handler
 158              		.syntax unified
 159              		.thumb
 160              		.thumb_func
 161              		.fpu fpv4-sp-d16
 163              	DebugMon_Handler:
 164              	.LFB139:
 160:Src/stm32f4xx_it.c **** 
 161:Src/stm32f4xx_it.c **** /**
 162:Src/stm32f4xx_it.c ****   * @brief This function handles Debug monitor.
 163:Src/stm32f4xx_it.c ****   */
 164:Src/stm32f4xx_it.c **** void DebugMon_Handler(void)
 165:Src/stm32f4xx_it.c **** {
 165              		.loc 1 165 1 view -0
 166              		.cfi_startproc
 167              		@ args = 0, pretend = 0, frame = 0
 168              		@ frame_needed = 0, uses_anonymous_args = 0
 169              		@ link register save eliminated.
 166:Src/stm32f4xx_it.c ****   /* USER CODE BEGIN DebugMonitor_IRQn 0 */
 167:Src/stm32f4xx_it.c **** 
 168:Src/stm32f4xx_it.c ****   /* USER CODE END DebugMonitor_IRQn 0 */
 169:Src/stm32f4xx_it.c ****   /* USER CODE BEGIN DebugMonitor_IRQn 1 */
 170:Src/stm32f4xx_it.c **** 
 171:Src/stm32f4xx_it.c ****   /* USER CODE END DebugMonitor_IRQn 1 */
 172:Src/stm32f4xx_it.c **** }
 170              		.loc 1 172 1 view .LVU21
 171 0000 7047     		bx	lr
 172              		.cfi_endproc
 173              	.LFE139:
 175              		.section	.text.PendSV_Handler,"ax",%progbits
 176              		.align	1
 177              		.global	PendSV_Handler
 178              		.syntax unified
 179              		.thumb
 180              		.thumb_func
ARM GAS  C:\Users\ncer\AppData\Local\Temp\ccdOUS7h.s 			page 7


 181              		.fpu fpv4-sp-d16
 183              	PendSV_Handler:
 184              	.LFB140:
 173:Src/stm32f4xx_it.c **** 
 174:Src/stm32f4xx_it.c **** /**
 175:Src/stm32f4xx_it.c ****   * @brief This function handles Pendable request for system service.
 176:Src/stm32f4xx_it.c ****   */
 177:Src/stm32f4xx_it.c **** void PendSV_Handler(void)
 178:Src/stm32f4xx_it.c **** {
 185              		.loc 1 178 1 view -0
 186              		.cfi_startproc
 187              		@ args = 0, pretend = 0, frame = 0
 188              		@ frame_needed = 0, uses_anonymous_args = 0
 189              		@ link register save eliminated.
 179:Src/stm32f4xx_it.c ****   /* USER CODE BEGIN PendSV_IRQn 0 */
 180:Src/stm32f4xx_it.c **** 
 181:Src/stm32f4xx_it.c ****   /* USER CODE END PendSV_IRQn 0 */
 182:Src/stm32f4xx_it.c ****   /* USER CODE BEGIN PendSV_IRQn 1 */
 183:Src/stm32f4xx_it.c **** 
 184:Src/stm32f4xx_it.c ****   /* USER CODE END PendSV_IRQn 1 */
 185:Src/stm32f4xx_it.c **** }
 190              		.loc 1 185 1 view .LVU23
 191 0000 7047     		bx	lr
 192              		.cfi_endproc
 193              	.LFE140:
 195              		.section	.text.SysTick_Handler,"ax",%progbits
 196              		.align	1
 197              		.global	SysTick_Handler
 198              		.syntax unified
 199              		.thumb
 200              		.thumb_func
 201              		.fpu fpv4-sp-d16
 203              	SysTick_Handler:
 204              	.LFB141:
 186:Src/stm32f4xx_it.c **** 
 187:Src/stm32f4xx_it.c **** /**
 188:Src/stm32f4xx_it.c ****   * @brief This function handles System tick timer.
 189:Src/stm32f4xx_it.c ****   */
 190:Src/stm32f4xx_it.c **** void SysTick_Handler(void)
 191:Src/stm32f4xx_it.c **** {
 205              		.loc 1 191 1 view -0
 206              		.cfi_startproc
 207              		@ args = 0, pretend = 0, frame = 0
 208              		@ frame_needed = 0, uses_anonymous_args = 0
 209 0000 08B5     		push	{r3, lr}
 210              	.LCFI0:
 211              		.cfi_def_cfa_offset 8
 212              		.cfi_offset 3, -8
 213              		.cfi_offset 14, -4
 192:Src/stm32f4xx_it.c ****   /* USER CODE BEGIN SysTick_IRQn 0 */
 193:Src/stm32f4xx_it.c **** 
 194:Src/stm32f4xx_it.c ****   /* USER CODE END SysTick_IRQn 0 */
 195:Src/stm32f4xx_it.c ****   HAL_IncTick();
 214              		.loc 1 195 3 view .LVU25
 215 0002 FFF7FEFF 		bl	HAL_IncTick
 216              	.LVL0:
 196:Src/stm32f4xx_it.c ****   /* USER CODE BEGIN SysTick_IRQn 1 */
ARM GAS  C:\Users\ncer\AppData\Local\Temp\ccdOUS7h.s 			page 8


 197:Src/stm32f4xx_it.c ****   #ifdef USE_GYRO
 198:Src/stm32f4xx_it.c ****   Ms_Handler();
 199:Src/stm32f4xx_it.c ****   #endif
 200:Src/stm32f4xx_it.c ****   /* USER CODE END SysTick_IRQn 1 */
 201:Src/stm32f4xx_it.c **** }
 217              		.loc 1 201 1 is_stmt 0 view .LVU26
 218 0006 08BD     		pop	{r3, pc}
 219              		.cfi_endproc
 220              	.LFE141:
 222              		.section	.text.DMA1_Stream0_IRQHandler,"ax",%progbits
 223              		.align	1
 224              		.global	DMA1_Stream0_IRQHandler
 225              		.syntax unified
 226              		.thumb
 227              		.thumb_func
 228              		.fpu fpv4-sp-d16
 230              	DMA1_Stream0_IRQHandler:
 231              	.LFB142:
 202:Src/stm32f4xx_it.c **** 
 203:Src/stm32f4xx_it.c **** /******************************************************************************/
 204:Src/stm32f4xx_it.c **** /* STM32F4xx Peripheral Interrupt Handlers                                    */
 205:Src/stm32f4xx_it.c **** /* Add here the Interrupt Handlers for the used peripherals.                  */
 206:Src/stm32f4xx_it.c **** /* For the available peripheral interrupt handler names,                      */
 207:Src/stm32f4xx_it.c **** /* please refer to the startup file (startup_stm32f4xx.s).                    */
 208:Src/stm32f4xx_it.c **** /******************************************************************************/
 209:Src/stm32f4xx_it.c **** 
 210:Src/stm32f4xx_it.c **** /**
 211:Src/stm32f4xx_it.c ****   * @brief This function handles DMA1 stream0 global interrupt.
 212:Src/stm32f4xx_it.c ****   */
 213:Src/stm32f4xx_it.c **** void DMA1_Stream0_IRQHandler(void)
 214:Src/stm32f4xx_it.c **** {
 232              		.loc 1 214 1 is_stmt 1 view -0
 233              		.cfi_startproc
 234              		@ args = 0, pretend = 0, frame = 0
 235              		@ frame_needed = 0, uses_anonymous_args = 0
 236 0000 08B5     		push	{r3, lr}
 237              	.LCFI1:
 238              		.cfi_def_cfa_offset 8
 239              		.cfi_offset 3, -8
 240              		.cfi_offset 14, -4
 215:Src/stm32f4xx_it.c ****   /* USER CODE BEGIN DMA1_Stream0_IRQn 0 */
 216:Src/stm32f4xx_it.c **** 
 217:Src/stm32f4xx_it.c ****   /* USER CODE END DMA1_Stream0_IRQn 0 */
 218:Src/stm32f4xx_it.c ****   HAL_DMA_IRQHandler(&hdma_uart5_rx);
 241              		.loc 1 218 3 view .LVU28
 242 0002 0248     		ldr	r0, .L17
 243 0004 FFF7FEFF 		bl	HAL_DMA_IRQHandler
 244              	.LVL1:
 219:Src/stm32f4xx_it.c ****   /* USER CODE BEGIN DMA1_Stream0_IRQn 1 */
 220:Src/stm32f4xx_it.c **** 
 221:Src/stm32f4xx_it.c ****   /* USER CODE END DMA1_Stream0_IRQn 1 */
 222:Src/stm32f4xx_it.c **** }
 245              		.loc 1 222 1 is_stmt 0 view .LVU29
 246 0008 08BD     		pop	{r3, pc}
 247              	.L18:
 248 000a 00BF     		.align	2
 249              	.L17:
ARM GAS  C:\Users\ncer\AppData\Local\Temp\ccdOUS7h.s 			page 9


 250 000c 00000000 		.word	hdma_uart5_rx
 251              		.cfi_endproc
 252              	.LFE142:
 254              		.section	.text.TIM1_UP_TIM10_IRQHandler,"ax",%progbits
 255              		.align	1
 256              		.global	TIM1_UP_TIM10_IRQHandler
 257              		.syntax unified
 258              		.thumb
 259              		.thumb_func
 260              		.fpu fpv4-sp-d16
 262              	TIM1_UP_TIM10_IRQHandler:
 263              	.LFB143:
 223:Src/stm32f4xx_it.c **** 
 224:Src/stm32f4xx_it.c **** /**
 225:Src/stm32f4xx_it.c ****   * @brief This function handles TIM1 update interrupt and TIM10 global interrupt.
 226:Src/stm32f4xx_it.c ****   */
 227:Src/stm32f4xx_it.c **** void TIM1_UP_TIM10_IRQHandler(void)
 228:Src/stm32f4xx_it.c **** {
 264              		.loc 1 228 1 is_stmt 1 view -0
 265              		.cfi_startproc
 266              		@ args = 0, pretend = 0, frame = 0
 267              		@ frame_needed = 0, uses_anonymous_args = 0
 268 0000 08B5     		push	{r3, lr}
 269              	.LCFI2:
 270              		.cfi_def_cfa_offset 8
 271              		.cfi_offset 3, -8
 272              		.cfi_offset 14, -4
 229:Src/stm32f4xx_it.c ****   /* USER CODE BEGIN TIM1_UP_TIM10_IRQn 0 */
 230:Src/stm32f4xx_it.c **** 
 231:Src/stm32f4xx_it.c ****   /* USER CODE END TIM1_UP_TIM10_IRQn 0 */
 232:Src/stm32f4xx_it.c ****   HAL_TIM_IRQHandler(&htim1);
 273              		.loc 1 232 3 view .LVU31
 274 0002 0248     		ldr	r0, .L21
 275 0004 FFF7FEFF 		bl	HAL_TIM_IRQHandler
 276              	.LVL2:
 233:Src/stm32f4xx_it.c ****   /* USER CODE BEGIN TIM1_UP_TIM10_IRQn 1 */
 234:Src/stm32f4xx_it.c **** 
 235:Src/stm32f4xx_it.c ****   /* USER CODE END TIM1_UP_TIM10_IRQn 1 */
 236:Src/stm32f4xx_it.c **** }
 277              		.loc 1 236 1 is_stmt 0 view .LVU32
 278 0008 08BD     		pop	{r3, pc}
 279              	.L22:
 280 000a 00BF     		.align	2
 281              	.L21:
 282 000c 00000000 		.word	htim1
 283              		.cfi_endproc
 284              	.LFE143:
 286              		.section	.text.DMA1_Stream7_IRQHandler,"ax",%progbits
 287              		.align	1
 288              		.global	DMA1_Stream7_IRQHandler
 289              		.syntax unified
 290              		.thumb
 291              		.thumb_func
 292              		.fpu fpv4-sp-d16
 294              	DMA1_Stream7_IRQHandler:
 295              	.LFB144:
 237:Src/stm32f4xx_it.c **** 
ARM GAS  C:\Users\ncer\AppData\Local\Temp\ccdOUS7h.s 			page 10


 238:Src/stm32f4xx_it.c **** /**
 239:Src/stm32f4xx_it.c ****   * @brief This function handles DMA1 stream7 global interrupt.
 240:Src/stm32f4xx_it.c ****   */
 241:Src/stm32f4xx_it.c **** void DMA1_Stream7_IRQHandler(void)
 242:Src/stm32f4xx_it.c **** {
 296              		.loc 1 242 1 is_stmt 1 view -0
 297              		.cfi_startproc
 298              		@ args = 0, pretend = 0, frame = 0
 299              		@ frame_needed = 0, uses_anonymous_args = 0
 300 0000 08B5     		push	{r3, lr}
 301              	.LCFI3:
 302              		.cfi_def_cfa_offset 8
 303              		.cfi_offset 3, -8
 304              		.cfi_offset 14, -4
 243:Src/stm32f4xx_it.c ****   /* USER CODE BEGIN DMA1_Stream7_IRQn 0 */
 244:Src/stm32f4xx_it.c **** 
 245:Src/stm32f4xx_it.c ****   /* USER CODE END DMA1_Stream7_IRQn 0 */
 246:Src/stm32f4xx_it.c ****   HAL_DMA_IRQHandler(&hdma_uart5_tx);
 305              		.loc 1 246 3 view .LVU34
 306 0002 0248     		ldr	r0, .L25
 307 0004 FFF7FEFF 		bl	HAL_DMA_IRQHandler
 308              	.LVL3:
 247:Src/stm32f4xx_it.c ****   /* USER CODE BEGIN DMA1_Stream7_IRQn 1 */
 248:Src/stm32f4xx_it.c **** 
 249:Src/stm32f4xx_it.c ****   /* USER CODE END DMA1_Stream7_IRQn 1 */
 250:Src/stm32f4xx_it.c **** }
 309              		.loc 1 250 1 is_stmt 0 view .LVU35
 310 0008 08BD     		pop	{r3, pc}
 311              	.L26:
 312 000a 00BF     		.align	2
 313              	.L25:
 314 000c 00000000 		.word	hdma_uart5_tx
 315              		.cfi_endproc
 316              	.LFE144:
 318              		.section	.text.UART5_IRQHandler,"ax",%progbits
 319              		.align	1
 320              		.global	UART5_IRQHandler
 321              		.syntax unified
 322              		.thumb
 323              		.thumb_func
 324              		.fpu fpv4-sp-d16
 326              	UART5_IRQHandler:
 327              	.LFB145:
 251:Src/stm32f4xx_it.c **** 
 252:Src/stm32f4xx_it.c **** /**
 253:Src/stm32f4xx_it.c ****   * @brief This function handles UART5 global interrupt.
 254:Src/stm32f4xx_it.c ****   */
 255:Src/stm32f4xx_it.c **** void UART5_IRQHandler(void)
 256:Src/stm32f4xx_it.c **** {
 328              		.loc 1 256 1 is_stmt 1 view -0
 329              		.cfi_startproc
 330              		@ args = 0, pretend = 0, frame = 0
 331              		@ frame_needed = 0, uses_anonymous_args = 0
 332 0000 10B5     		push	{r4, lr}
 333              	.LCFI4:
 334              		.cfi_def_cfa_offset 8
 335              		.cfi_offset 4, -8
ARM GAS  C:\Users\ncer\AppData\Local\Temp\ccdOUS7h.s 			page 11


 336              		.cfi_offset 14, -4
 257:Src/stm32f4xx_it.c ****   /* USER CODE BEGIN UART5_IRQn 0 */
 258:Src/stm32f4xx_it.c **** 
 259:Src/stm32f4xx_it.c ****   /* USER CODE END UART5_IRQn 0 */
 260:Src/stm32f4xx_it.c ****   HAL_UART_IRQHandler(&huart5);
 337              		.loc 1 260 3 view .LVU37
 338 0002 074C     		ldr	r4, .L31
 339 0004 2046     		mov	r0, r4
 340 0006 FFF7FEFF 		bl	HAL_UART_IRQHandler
 341              	.LVL4:
 261:Src/stm32f4xx_it.c ****   /* USER CODE BEGIN UART5_IRQn 1 */
 262:Src/stm32f4xx_it.c ****    if(__HAL_UART_GET_FLAG(&huart5, UART_FLAG_IDLE) != RESET){
 342              		.loc 1 262 4 view .LVU38
 343              		.loc 1 262 7 is_stmt 0 view .LVU39
 344 000a 2368     		ldr	r3, [r4]
 345 000c 1B68     		ldr	r3, [r3]
 346              		.loc 1 262 6 view .LVU40
 347 000e 13F0100F 		tst	r3, #16
 348 0012 00D1     		bne	.L30
 349              	.L27:
 263:Src/stm32f4xx_it.c ****     HAL_UART_IDLECallback(&huart5);
 264:Src/stm32f4xx_it.c ****     return ;
 265:Src/stm32f4xx_it.c ****   }  
 266:Src/stm32f4xx_it.c ****   /* USER CODE END UART5_IRQn 1 */
 267:Src/stm32f4xx_it.c **** }
 350              		.loc 1 267 1 view .LVU41
 351 0014 10BD     		pop	{r4, pc}
 352              	.L30:
 263:Src/stm32f4xx_it.c ****     HAL_UART_IDLECallback(&huart5);
 353              		.loc 1 263 5 is_stmt 1 view .LVU42
 354 0016 2046     		mov	r0, r4
 355 0018 FFF7FEFF 		bl	HAL_UART_IDLECallback
 356              	.LVL5:
 264:Src/stm32f4xx_it.c ****   }  
 357              		.loc 1 264 5 view .LVU43
 358 001c FAE7     		b	.L27
 359              	.L32:
 360 001e 00BF     		.align	2
 361              	.L31:
 362 0020 00000000 		.word	huart5
 363              		.cfi_endproc
 364              	.LFE145:
 366              		.section	.text.TIM6_DAC_IRQHandler,"ax",%progbits
 367              		.align	1
 368              		.global	TIM6_DAC_IRQHandler
 369              		.syntax unified
 370              		.thumb
 371              		.thumb_func
 372              		.fpu fpv4-sp-d16
 374              	TIM6_DAC_IRQHandler:
 375              	.LFB146:
 268:Src/stm32f4xx_it.c **** 
 269:Src/stm32f4xx_it.c **** /**
 270:Src/stm32f4xx_it.c ****   * @brief This function handles TIM6 global interrupt, DAC1 and DAC2 underrun error interrupts.
 271:Src/stm32f4xx_it.c ****   */
 272:Src/stm32f4xx_it.c **** void TIM6_DAC_IRQHandler(void)
 273:Src/stm32f4xx_it.c **** {
ARM GAS  C:\Users\ncer\AppData\Local\Temp\ccdOUS7h.s 			page 12


 376              		.loc 1 273 1 view -0
 377              		.cfi_startproc
 378              		@ args = 0, pretend = 0, frame = 0
 379              		@ frame_needed = 0, uses_anonymous_args = 0
 380 0000 08B5     		push	{r3, lr}
 381              	.LCFI5:
 382              		.cfi_def_cfa_offset 8
 383              		.cfi_offset 3, -8
 384              		.cfi_offset 14, -4
 274:Src/stm32f4xx_it.c ****   /* USER CODE BEGIN TIM6_DAC_IRQn 0 */
 275:Src/stm32f4xx_it.c **** 
 276:Src/stm32f4xx_it.c ****   /* USER CODE END TIM6_DAC_IRQn 0 */
 277:Src/stm32f4xx_it.c ****   HAL_TIM_IRQHandler(&htim6);
 385              		.loc 1 277 3 view .LVU45
 386 0002 0248     		ldr	r0, .L35
 387 0004 FFF7FEFF 		bl	HAL_TIM_IRQHandler
 388              	.LVL6:
 278:Src/stm32f4xx_it.c ****   /* USER CODE BEGIN TIM6_DAC_IRQn 1 */
 279:Src/stm32f4xx_it.c **** 
 280:Src/stm32f4xx_it.c ****   /* USER CODE END TIM6_DAC_IRQn 1 */
 281:Src/stm32f4xx_it.c **** }
 389              		.loc 1 281 1 is_stmt 0 view .LVU46
 390 0008 08BD     		pop	{r3, pc}
 391              	.L36:
 392 000a 00BF     		.align	2
 393              	.L35:
 394 000c 00000000 		.word	htim6
 395              		.cfi_endproc
 396              	.LFE146:
 398              		.section	.text.TIM7_IRQHandler,"ax",%progbits
 399              		.align	1
 400              		.global	TIM7_IRQHandler
 401              		.syntax unified
 402              		.thumb
 403              		.thumb_func
 404              		.fpu fpv4-sp-d16
 406              	TIM7_IRQHandler:
 407              	.LFB147:
 282:Src/stm32f4xx_it.c **** 
 283:Src/stm32f4xx_it.c **** /**
 284:Src/stm32f4xx_it.c ****   * @brief This function handles TIM7 global interrupt.
 285:Src/stm32f4xx_it.c ****   */
 286:Src/stm32f4xx_it.c **** void TIM7_IRQHandler(void)
 287:Src/stm32f4xx_it.c **** {
 408              		.loc 1 287 1 is_stmt 1 view -0
 409              		.cfi_startproc
 410              		@ args = 0, pretend = 0, frame = 0
 411              		@ frame_needed = 0, uses_anonymous_args = 0
 412 0000 08B5     		push	{r3, lr}
 413              	.LCFI6:
 414              		.cfi_def_cfa_offset 8
 415              		.cfi_offset 3, -8
 416              		.cfi_offset 14, -4
 288:Src/stm32f4xx_it.c ****   /* USER CODE BEGIN TIM7_IRQn 0 */
 289:Src/stm32f4xx_it.c **** 
 290:Src/stm32f4xx_it.c ****   /* USER CODE END TIM7_IRQn 0 */
 291:Src/stm32f4xx_it.c ****   HAL_TIM_IRQHandler(&htim7);
ARM GAS  C:\Users\ncer\AppData\Local\Temp\ccdOUS7h.s 			page 13


 417              		.loc 1 291 3 view .LVU48
 418 0002 0248     		ldr	r0, .L39
 419 0004 FFF7FEFF 		bl	HAL_TIM_IRQHandler
 420              	.LVL7:
 292:Src/stm32f4xx_it.c ****   /* USER CODE BEGIN TIM7_IRQn 1 */
 293:Src/stm32f4xx_it.c **** 
 294:Src/stm32f4xx_it.c ****   /* USER CODE END TIM7_IRQn 1 */
 295:Src/stm32f4xx_it.c **** }
 421              		.loc 1 295 1 is_stmt 0 view .LVU49
 422 0008 08BD     		pop	{r3, pc}
 423              	.L40:
 424 000a 00BF     		.align	2
 425              	.L39:
 426 000c 00000000 		.word	htim7
 427              		.cfi_endproc
 428              	.LFE147:
 430              		.section	.text.DMA2_Stream0_IRQHandler,"ax",%progbits
 431              		.align	1
 432              		.global	DMA2_Stream0_IRQHandler
 433              		.syntax unified
 434              		.thumb
 435              		.thumb_func
 436              		.fpu fpv4-sp-d16
 438              	DMA2_Stream0_IRQHandler:
 439              	.LFB148:
 296:Src/stm32f4xx_it.c **** 
 297:Src/stm32f4xx_it.c **** /**
 298:Src/stm32f4xx_it.c ****   * @brief This function handles DMA2 stream0 global interrupt.
 299:Src/stm32f4xx_it.c ****   */
 300:Src/stm32f4xx_it.c **** void DMA2_Stream0_IRQHandler(void)
 301:Src/stm32f4xx_it.c **** {
 440              		.loc 1 301 1 is_stmt 1 view -0
 441              		.cfi_startproc
 442              		@ args = 0, pretend = 0, frame = 0
 443              		@ frame_needed = 0, uses_anonymous_args = 0
 444 0000 08B5     		push	{r3, lr}
 445              	.LCFI7:
 446              		.cfi_def_cfa_offset 8
 447              		.cfi_offset 3, -8
 448              		.cfi_offset 14, -4
 302:Src/stm32f4xx_it.c ****   /* USER CODE BEGIN DMA2_Stream0_IRQn 0 */
 303:Src/stm32f4xx_it.c **** 
 304:Src/stm32f4xx_it.c ****   /* USER CODE END DMA2_Stream0_IRQn 0 */
 305:Src/stm32f4xx_it.c ****   HAL_DMA_IRQHandler(&hdma_adc1);
 449              		.loc 1 305 3 view .LVU51
 450 0002 0248     		ldr	r0, .L43
 451 0004 FFF7FEFF 		bl	HAL_DMA_IRQHandler
 452              	.LVL8:
 306:Src/stm32f4xx_it.c ****   /* USER CODE BEGIN DMA2_Stream0_IRQn 1 */
 307:Src/stm32f4xx_it.c **** 
 308:Src/stm32f4xx_it.c ****   /* USER CODE END DMA2_Stream0_IRQn 1 */
 309:Src/stm32f4xx_it.c **** }
 453              		.loc 1 309 1 is_stmt 0 view .LVU52
 454 0008 08BD     		pop	{r3, pc}
 455              	.L44:
 456 000a 00BF     		.align	2
 457              	.L43:
ARM GAS  C:\Users\ncer\AppData\Local\Temp\ccdOUS7h.s 			page 14


 458 000c 00000000 		.word	hdma_adc1
 459              		.cfi_endproc
 460              	.LFE148:
 462              		.section	.text.DMA2_Stream2_IRQHandler,"ax",%progbits
 463              		.align	1
 464              		.global	DMA2_Stream2_IRQHandler
 465              		.syntax unified
 466              		.thumb
 467              		.thumb_func
 468              		.fpu fpv4-sp-d16
 470              	DMA2_Stream2_IRQHandler:
 471              	.LFB149:
 310:Src/stm32f4xx_it.c **** 
 311:Src/stm32f4xx_it.c **** /**
 312:Src/stm32f4xx_it.c ****   * @brief This function handles DMA2 stream2 global interrupt.
 313:Src/stm32f4xx_it.c ****   */
 314:Src/stm32f4xx_it.c **** void DMA2_Stream2_IRQHandler(void)
 315:Src/stm32f4xx_it.c **** {
 472              		.loc 1 315 1 is_stmt 1 view -0
 473              		.cfi_startproc
 474              		@ args = 0, pretend = 0, frame = 0
 475              		@ frame_needed = 0, uses_anonymous_args = 0
 476 0000 08B5     		push	{r3, lr}
 477              	.LCFI8:
 478              		.cfi_def_cfa_offset 8
 479              		.cfi_offset 3, -8
 480              		.cfi_offset 14, -4
 316:Src/stm32f4xx_it.c ****   /* USER CODE BEGIN DMA2_Stream2_IRQn 0 */
 317:Src/stm32f4xx_it.c **** 
 318:Src/stm32f4xx_it.c ****   /* USER CODE END DMA2_Stream2_IRQn 0 */
 319:Src/stm32f4xx_it.c ****   HAL_DMA_IRQHandler(&hdma_adc2);
 481              		.loc 1 319 3 view .LVU54
 482 0002 0248     		ldr	r0, .L47
 483 0004 FFF7FEFF 		bl	HAL_DMA_IRQHandler
 484              	.LVL9:
 320:Src/stm32f4xx_it.c ****   /* USER CODE BEGIN DMA2_Stream2_IRQn 1 */
 321:Src/stm32f4xx_it.c **** 
 322:Src/stm32f4xx_it.c ****   /* USER CODE END DMA2_Stream2_IRQn 1 */
 323:Src/stm32f4xx_it.c **** }
 485              		.loc 1 323 1 is_stmt 0 view .LVU55
 486 0008 08BD     		pop	{r3, pc}
 487              	.L48:
 488 000a 00BF     		.align	2
 489              	.L47:
 490 000c 00000000 		.word	hdma_adc2
 491              		.cfi_endproc
 492              	.LFE149:
 494              		.text
 495              	.Letext0:
 496              		.file 2 "c:\\arm_gcc\\arm-none-eabi\\include\\machine\\_default_types.h"
 497              		.file 3 "c:\\arm_gcc\\arm-none-eabi\\include\\sys\\_stdint.h"
 498              		.file 4 "Drivers/CMSIS/Include/core_cm4.h"
 499              		.file 5 "Drivers/CMSIS/Device/ST/STM32F4xx/Include/system_stm32f4xx.h"
 500              		.file 6 "Drivers/CMSIS/Device/ST/STM32F4xx/Include/stm32f405xx.h"
 501              		.file 7 "Drivers/CMSIS/Device/ST/STM32F4xx/Include/stm32f4xx.h"
 502              		.file 8 "Drivers/STM32F4xx_HAL_Driver/Inc/stm32f4xx_hal_def.h"
 503              		.file 9 "Drivers/STM32F4xx_HAL_Driver/Inc/stm32f4xx_hal_dma.h"
ARM GAS  C:\Users\ncer\AppData\Local\Temp\ccdOUS7h.s 			page 15


 504              		.file 10 "Drivers/STM32F4xx_HAL_Driver/Inc/stm32f4xx_hal_tim.h"
 505              		.file 11 "Drivers/STM32F4xx_HAL_Driver/Inc/stm32f4xx_hal_uart.h"
 506              		.file 12 "Drivers/STM32F4xx_HAL_Driver/Inc/stm32f4xx_hal.h"
 507              		.file 13 "c:\\arm_gcc\\arm-none-eabi\\include\\sys\\lock.h"
 508              		.file 14 "c:\\arm_gcc\\arm-none-eabi\\include\\sys\\_types.h"
 509              		.file 15 "c:\\arm_gcc\\lib\\gcc\\arm-none-eabi\\9.2.1\\include\\stddef.h"
 510              		.file 16 "c:\\arm_gcc\\arm-none-eabi\\include\\sys\\reent.h"
 511              		.file 17 "c:\\arm_gcc\\arm-none-eabi\\include\\stdlib.h"
 512              		.file 18 "mylib/uart_ext.h"
ARM GAS  C:\Users\ncer\AppData\Local\Temp\ccdOUS7h.s 			page 16

