ARM GAS  C:\Users\ncer\AppData\Local\Temp\ccP4ymp6.s 			page 1


   1              		.cpu cortex-m4
   2              		.eabi_attribute 27, 1
   3              		.eabi_attribute 28, 1
   4              		.eabi_attribute 20, 1
   5              		.eabi_attribute 21, 1
   6              		.eabi_attribute 23, 3
   7              		.eabi_attribute 24, 1
   8              		.eabi_attribute 25, 1
   9              		.eabi_attribute 26, 1
  10              		.eabi_attribute 30, 1
  11              		.eabi_attribute 34, 1
  12              		.eabi_attribute 18, 4
  13              		.file	"SVPWM.c"
  14              		.text
  15              	.Ltext0:
  16              		.cfi_sections	.debug_frame
  17              		.section	.text.SVPWM_Step,"ax",%progbits
  18              		.align	1
  19              		.arch armv7e-m
  20              		.syntax unified
  21              		.thumb
  22              		.thumb_func
  23              		.fpu fpv4-sp-d16
  25              	SVPWM_Step:
  26              	.LFB163:
  27              		.file 1 "Src/SVPWM.c"
   1:Src/SVPWM.c   **** 
   2:Src/SVPWM.c   **** #include "SVPWM.h"
   3:Src/SVPWM.c   **** #include "arm_math.h"
   4:Src/SVPWM.c   **** 
   5:Src/SVPWM.c   **** Uvect_Mos U0 = {0, 0, 0, 0};
   6:Src/SVPWM.c   **** Uvect_Mos U4 = {1, 0, 0, 0};
   7:Src/SVPWM.c   **** Uvect_Mos U6 = {1, 1, 0, PI / 3};
   8:Src/SVPWM.c   **** Uvect_Mos U2 = {0, 1, 0, PI / 3 * 2};
   9:Src/SVPWM.c   **** Uvect_Mos U3 = {0, 1, 1, PI};
  10:Src/SVPWM.c   **** Uvect_Mos U1 = {0, 0, 1, PI / 3 * 4};
  11:Src/SVPWM.c   **** Uvect_Mos U5 = {1, 0, 1, PI / 3 * 5};
  12:Src/SVPWM.c   **** Uvect_Mos U7 = {1, 1, 1, 0};
  13:Src/SVPWM.c   **** 
  14:Src/SVPWM.c   **** static void SVPWM_Step(CCR_Duty duty)
  15:Src/SVPWM.c   **** {
  28              		.loc 1 15 1 view -0
  29              		.cfi_startproc
  30              		@ args = 0, pretend = 0, frame = 16
  31              		@ frame_needed = 0, uses_anonymous_args = 0
  32              		@ link register save eliminated.
  33 0000 84B0     		sub	sp, sp, #16
  34              	.LCFI0:
  35              		.cfi_def_cfa_offset 16
  36 0002 8DED010A 		vstr.32	s0, [sp, #4]
  37 0006 CDED020A 		vstr.32	s1, [sp, #8]
  38 000a 8DED031A 		vstr.32	s2, [sp, #12]
  16:Src/SVPWM.c   ****     SVPWM_TIM->CCRA = duty.ccra * SVPWM_TIM->ARR;
  39              		.loc 1 16 5 view .LVU1
  40              		.loc 1 16 44 is_stmt 0 view .LVU2
  41 000e 124B     		ldr	r3, .L3
  42 0010 D3ED0B7A 		vldr.32	s15, [r3, #44]	@ int
ARM GAS  C:\Users\ncer\AppData\Local\Temp\ccP4ymp6.s 			page 2


  43              		.loc 1 16 33 view .LVU3
  44 0014 F8EE677A 		vcvt.f32.u32	s15, s15
  45 0018 27EE800A 		vmul.f32	s0, s15, s0
  46              		.loc 1 16 21 view .LVU4
  47 001c BCEEC00A 		vcvt.u32.f32	s0, s0
  48 0020 83ED0D0A 		vstr.32	s0, [r3, #52]	@ int
  17:Src/SVPWM.c   ****     SVPWM_TIM->CCRB = duty.ccrb * SVPWM_TIM->ARR;
  49              		.loc 1 17 5 is_stmt 1 view .LVU5
  50              		.loc 1 17 44 is_stmt 0 view .LVU6
  51 0024 D3ED0B7A 		vldr.32	s15, [r3, #44]	@ int
  52              		.loc 1 17 33 view .LVU7
  53 0028 F8EE677A 		vcvt.f32.u32	s15, s15
  54 002c 9DED027A 		vldr.32	s14, [sp, #8]
  55 0030 67EE877A 		vmul.f32	s15, s15, s14
  56              		.loc 1 17 21 view .LVU8
  57 0034 FCEEE77A 		vcvt.u32.f32	s15, s15
  58 0038 C3ED0E7A 		vstr.32	s15, [r3, #56]	@ int
  18:Src/SVPWM.c   ****     SVPWM_TIM->CCRC = duty.ccrc * SVPWM_TIM->ARR;
  59              		.loc 1 18 5 is_stmt 1 view .LVU9
  60              		.loc 1 18 44 is_stmt 0 view .LVU10
  61 003c D3ED0B7A 		vldr.32	s15, [r3, #44]	@ int
  62              		.loc 1 18 33 view .LVU11
  63 0040 F8EE677A 		vcvt.f32.u32	s15, s15
  64 0044 9DED037A 		vldr.32	s14, [sp, #12]
  65 0048 67EE877A 		vmul.f32	s15, s15, s14
  66              		.loc 1 18 21 view .LVU12
  67 004c FCEEE77A 		vcvt.u32.f32	s15, s15
  68 0050 C3ED0F7A 		vstr.32	s15, [r3, #60]	@ int
  19:Src/SVPWM.c   **** }
  69              		.loc 1 19 1 view .LVU13
  70 0054 04B0     		add	sp, sp, #16
  71              	.LCFI1:
  72              		.cfi_def_cfa_offset 0
  73              		@ sp needed
  74 0056 7047     		bx	lr
  75              	.L4:
  76              		.align	2
  77              	.L3:
  78 0058 00000140 		.word	1073807360
  79              		.cfi_endproc
  80              	.LFE163:
  82              		.section	.text.get_area_u,"ax",%progbits
  83              		.align	1
  84              		.syntax unified
  85              		.thumb
  86              		.thumb_func
  87              		.fpu fpv4-sp-d16
  89              	get_area_u:
  90              	.LVL0:
  91              	.LFB167:
  20:Src/SVPWM.c   **** 
  21:Src/SVPWM.c   **** 
  22:Src/SVPWM.c   **** void Set_Vector(Uvect_Mos u, float duty)
  23:Src/SVPWM.c   **** {
  24:Src/SVPWM.c   ****     CCR_Duty temp_duty = {0};
  25:Src/SVPWM.c   ****     if(duty>0.95f){
  26:Src/SVPWM.c   ****         duty=0.95f;
ARM GAS  C:\Users\ncer\AppData\Local\Temp\ccP4ymp6.s 			page 3


  27:Src/SVPWM.c   ****     }
  28:Src/SVPWM.c   **** 
  29:Src/SVPWM.c   ****     temp_duty.ccra = u.a * duty; //011
  30:Src/SVPWM.c   ****     temp_duty.ccrb = u.b * duty;
  31:Src/SVPWM.c   ****     temp_duty.ccrc = u.c * duty;
  32:Src/SVPWM.c   **** 
  33:Src/SVPWM.c   ****     SVPWM_Step(temp_duty);
  34:Src/SVPWM.c   **** }
  35:Src/SVPWM.c   **** 
  36:Src/SVPWM.c   **** /*
  37:Src/SVPWM.c   ****     将电压矢量设置为Un，并持续一段时间
  38:Src/SVPWM.c   **** */
  39:Src/SVPWM.c   **** void Set_to_Un(uint8_t t,Uvect_Mos target,float duty)
  40:Src/SVPWM.c   **** {
  41:Src/SVPWM.c   ****     Set_Vector(target,duty);
  42:Src/SVPWM.c   ****     HAL_Delay(t);
  43:Src/SVPWM.c   ****     Set_Vector(U0,duty); 
  44:Src/SVPWM.c   **** }
  45:Src/SVPWM.c   **** 
  46:Src/SVPWM.c   **** 
  47:Src/SVPWM.c   **** inline uint8_t get_area(uint32_t now_theta)
  48:Src/SVPWM.c   **** {
  49:Src/SVPWM.c   ****     return now_theta / 60 + 1;
  50:Src/SVPWM.c   **** }
  51:Src/SVPWM.c   **** 
  52:Src/SVPWM.c   **** 
  53:Src/SVPWM.c   **** // 根据扇区号，获取该扇区的两个电压矢量
  54:Src/SVPWM.c   **** // area:1-6
  55:Src/SVPWM.c   **** static void get_area_u(uint8_t area, Uvect_Mos *u1, Uvect_Mos *u2)
  56:Src/SVPWM.c   **** {
  92              		.loc 1 56 1 is_stmt 1 view -0
  93              		.cfi_startproc
  94              		@ args = 0, pretend = 0, frame = 0
  95              		@ frame_needed = 0, uses_anonymous_args = 0
  96              		@ link register save eliminated.
  97              		.loc 1 56 1 is_stmt 0 view .LVU15
  98 0000 30B4     		push	{r4, r5}
  99              	.LCFI2:
 100              		.cfi_def_cfa_offset 8
 101              		.cfi_offset 4, -8
 102              		.cfi_offset 5, -4
 103 0002 0D46     		mov	r5, r1
 104 0004 1446     		mov	r4, r2
  57:Src/SVPWM.c   ****     switch (area)
 105              		.loc 1 57 5 is_stmt 1 view .LVU16
 106 0006 0138     		subs	r0, r0, #1
 107              	.LVL1:
 108              		.loc 1 57 5 is_stmt 0 view .LVU17
 109 0008 0528     		cmp	r0, #5
 110 000a 0CD8     		bhi	.L5
 111 000c DFE800F0 		tbb	[pc, r0]
 112              	.L8:
 113 0010 03       		.byte	(.L13-.L8)/2
 114 0011 0D       		.byte	(.L12-.L8)/2
 115 0012 16       		.byte	(.L11-.L8)/2
 116 0013 1F       		.byte	(.L10-.L8)/2
 117 0014 28       		.byte	(.L9-.L8)/2
ARM GAS  C:\Users\ncer\AppData\Local\Temp\ccP4ymp6.s 			page 4


 118 0015 31       		.byte	(.L7-.L8)/2
 119              		.p2align 1
 120              	.L13:
  58:Src/SVPWM.c   ****     {
  59:Src/SVPWM.c   ****     case 1:
  60:Src/SVPWM.c   ****         *u1 = U4;
 121              		.loc 1 60 9 is_stmt 1 view .LVU18
 122              		.loc 1 60 13 is_stmt 0 view .LVU19
 123 0016 1B4B     		ldr	r3, .L15
 124 0018 0FCB     		ldm	r3, {r0, r1, r2, r3}
 125              	.LVL2:
 126              		.loc 1 60 13 view .LVU20
 127 001a 85E80F00 		stm	r5, {r0, r1, r2, r3}
  61:Src/SVPWM.c   ****         *u2 = U6;
 128              		.loc 1 61 9 is_stmt 1 view .LVU21
 129              		.loc 1 61 13 is_stmt 0 view .LVU22
 130 001e 1A4B     		ldr	r3, .L15+4
 131 0020 0FCB     		ldm	r3, {r0, r1, r2, r3}
 132 0022 84E80F00 		stm	r4, {r0, r1, r2, r3}
  62:Src/SVPWM.c   ****         break;
 133              		.loc 1 62 9 is_stmt 1 view .LVU23
 134              	.L5:
  63:Src/SVPWM.c   ****     case 2:
  64:Src/SVPWM.c   ****         *u1 = U6;
  65:Src/SVPWM.c   ****         *u2 = U2;
  66:Src/SVPWM.c   ****         break;
  67:Src/SVPWM.c   ****     case 3:
  68:Src/SVPWM.c   ****         *u1 = U2;
  69:Src/SVPWM.c   ****         *u2 = U3;
  70:Src/SVPWM.c   ****         break;
  71:Src/SVPWM.c   ****     case 4:
  72:Src/SVPWM.c   ****         *u1 = U3;
  73:Src/SVPWM.c   ****         *u2 = U1;
  74:Src/SVPWM.c   ****         break;
  75:Src/SVPWM.c   ****     case 5:
  76:Src/SVPWM.c   ****         *u1 = U1;
  77:Src/SVPWM.c   ****         *u2 = U5;
  78:Src/SVPWM.c   ****         break;
  79:Src/SVPWM.c   ****     case 6:
  80:Src/SVPWM.c   ****         *u1 = U5;
  81:Src/SVPWM.c   ****         *u2 = U4;
  82:Src/SVPWM.c   ****         break;
  83:Src/SVPWM.c   ****     default:
  84:Src/SVPWM.c   ****         break;
  85:Src/SVPWM.c   ****     }
  86:Src/SVPWM.c   **** }
 135              		.loc 1 86 1 is_stmt 0 view .LVU24
 136 0026 30BC     		pop	{r4, r5}
 137              	.LCFI3:
 138              		.cfi_remember_state
 139              		.cfi_restore 5
 140              		.cfi_restore 4
 141              		.cfi_def_cfa_offset 0
 142              	.LVL3:
 143              		.loc 1 86 1 view .LVU25
 144 0028 7047     		bx	lr
 145              	.LVL4:
ARM GAS  C:\Users\ncer\AppData\Local\Temp\ccP4ymp6.s 			page 5


 146              	.L12:
 147              	.LCFI4:
 148              		.cfi_restore_state
  64:Src/SVPWM.c   ****         *u2 = U2;
 149              		.loc 1 64 9 is_stmt 1 view .LVU26
  64:Src/SVPWM.c   ****         *u2 = U2;
 150              		.loc 1 64 13 is_stmt 0 view .LVU27
 151 002a 174B     		ldr	r3, .L15+4
 152 002c 0FCB     		ldm	r3, {r0, r1, r2, r3}
 153              	.LVL5:
  64:Src/SVPWM.c   ****         *u2 = U2;
 154              		.loc 1 64 13 view .LVU28
 155 002e 85E80F00 		stm	r5, {r0, r1, r2, r3}
  65:Src/SVPWM.c   ****         break;
 156              		.loc 1 65 9 is_stmt 1 view .LVU29
  65:Src/SVPWM.c   ****         break;
 157              		.loc 1 65 13 is_stmt 0 view .LVU30
 158 0032 164B     		ldr	r3, .L15+8
 159 0034 0FCB     		ldm	r3, {r0, r1, r2, r3}
 160 0036 84E80F00 		stm	r4, {r0, r1, r2, r3}
  66:Src/SVPWM.c   ****     case 3:
 161              		.loc 1 66 9 is_stmt 1 view .LVU31
 162 003a F4E7     		b	.L5
 163              	.LVL6:
 164              	.L11:
  68:Src/SVPWM.c   ****         *u2 = U3;
 165              		.loc 1 68 9 view .LVU32
  68:Src/SVPWM.c   ****         *u2 = U3;
 166              		.loc 1 68 13 is_stmt 0 view .LVU33
 167 003c 134B     		ldr	r3, .L15+8
 168 003e 0FCB     		ldm	r3, {r0, r1, r2, r3}
 169              	.LVL7:
  68:Src/SVPWM.c   ****         *u2 = U3;
 170              		.loc 1 68 13 view .LVU34
 171 0040 85E80F00 		stm	r5, {r0, r1, r2, r3}
  69:Src/SVPWM.c   ****         break;
 172              		.loc 1 69 9 is_stmt 1 view .LVU35
  69:Src/SVPWM.c   ****         break;
 173              		.loc 1 69 13 is_stmt 0 view .LVU36
 174 0044 124B     		ldr	r3, .L15+12
 175 0046 0FCB     		ldm	r3, {r0, r1, r2, r3}
 176 0048 84E80F00 		stm	r4, {r0, r1, r2, r3}
  70:Src/SVPWM.c   ****     case 4:
 177              		.loc 1 70 9 is_stmt 1 view .LVU37
 178 004c EBE7     		b	.L5
 179              	.LVL8:
 180              	.L10:
  72:Src/SVPWM.c   ****         *u2 = U1;
 181              		.loc 1 72 9 view .LVU38
  72:Src/SVPWM.c   ****         *u2 = U1;
 182              		.loc 1 72 13 is_stmt 0 view .LVU39
 183 004e 104B     		ldr	r3, .L15+12
 184 0050 0FCB     		ldm	r3, {r0, r1, r2, r3}
 185              	.LVL9:
  72:Src/SVPWM.c   ****         *u2 = U1;
 186              		.loc 1 72 13 view .LVU40
 187 0052 85E80F00 		stm	r5, {r0, r1, r2, r3}
ARM GAS  C:\Users\ncer\AppData\Local\Temp\ccP4ymp6.s 			page 6


  73:Src/SVPWM.c   ****         break;
 188              		.loc 1 73 9 is_stmt 1 view .LVU41
  73:Src/SVPWM.c   ****         break;
 189              		.loc 1 73 13 is_stmt 0 view .LVU42
 190 0056 0F4B     		ldr	r3, .L15+16
 191 0058 0FCB     		ldm	r3, {r0, r1, r2, r3}
 192 005a 84E80F00 		stm	r4, {r0, r1, r2, r3}
  74:Src/SVPWM.c   ****     case 5:
 193              		.loc 1 74 9 is_stmt 1 view .LVU43
 194 005e E2E7     		b	.L5
 195              	.LVL10:
 196              	.L9:
  76:Src/SVPWM.c   ****         *u2 = U5;
 197              		.loc 1 76 9 view .LVU44
  76:Src/SVPWM.c   ****         *u2 = U5;
 198              		.loc 1 76 13 is_stmt 0 view .LVU45
 199 0060 0C4B     		ldr	r3, .L15+16
 200 0062 0FCB     		ldm	r3, {r0, r1, r2, r3}
 201              	.LVL11:
  76:Src/SVPWM.c   ****         *u2 = U5;
 202              		.loc 1 76 13 view .LVU46
 203 0064 85E80F00 		stm	r5, {r0, r1, r2, r3}
  77:Src/SVPWM.c   ****         break;
 204              		.loc 1 77 9 is_stmt 1 view .LVU47
  77:Src/SVPWM.c   ****         break;
 205              		.loc 1 77 13 is_stmt 0 view .LVU48
 206 0068 0B4B     		ldr	r3, .L15+20
 207 006a 0FCB     		ldm	r3, {r0, r1, r2, r3}
 208 006c 84E80F00 		stm	r4, {r0, r1, r2, r3}
  78:Src/SVPWM.c   ****     case 6:
 209              		.loc 1 78 9 is_stmt 1 view .LVU49
 210 0070 D9E7     		b	.L5
 211              	.LVL12:
 212              	.L7:
  80:Src/SVPWM.c   ****         *u2 = U4;
 213              		.loc 1 80 9 view .LVU50
  80:Src/SVPWM.c   ****         *u2 = U4;
 214              		.loc 1 80 13 is_stmt 0 view .LVU51
 215 0072 094B     		ldr	r3, .L15+20
 216 0074 0FCB     		ldm	r3, {r0, r1, r2, r3}
 217              	.LVL13:
  80:Src/SVPWM.c   ****         *u2 = U4;
 218              		.loc 1 80 13 view .LVU52
 219 0076 85E80F00 		stm	r5, {r0, r1, r2, r3}
  81:Src/SVPWM.c   ****         break;
 220              		.loc 1 81 9 is_stmt 1 view .LVU53
  81:Src/SVPWM.c   ****         break;
 221              		.loc 1 81 13 is_stmt 0 view .LVU54
 222 007a 024B     		ldr	r3, .L15
 223 007c 0FCB     		ldm	r3, {r0, r1, r2, r3}
 224 007e 84E80F00 		stm	r4, {r0, r1, r2, r3}
  82:Src/SVPWM.c   ****     default:
 225              		.loc 1 82 9 is_stmt 1 view .LVU55
 226              		.loc 1 86 1 is_stmt 0 view .LVU56
 227 0082 D0E7     		b	.L5
 228              	.L16:
 229              		.align	2
ARM GAS  C:\Users\ncer\AppData\Local\Temp\ccP4ymp6.s 			page 7


 230              	.L15:
 231 0084 00000000 		.word	.LANCHOR0
 232 0088 00000000 		.word	.LANCHOR1
 233 008c 00000000 		.word	.LANCHOR2
 234 0090 00000000 		.word	.LANCHOR3
 235 0094 00000000 		.word	.LANCHOR4
 236 0098 00000000 		.word	.LANCHOR5
 237              		.cfi_endproc
 238              	.LFE167:
 240              		.section	.text.SVPWM_Normal_CalT1T2,"ax",%progbits
 241              		.align	1
 242              		.syntax unified
 243              		.thumb
 244              		.thumb_func
 245              		.fpu fpv4-sp-d16
 247              	SVPWM_Normal_CalT1T2:
 248              	.LVL14:
 249              	.LFB169:
  87:Src/SVPWM.c   **** 
  88:Src/SVPWM.c   **** // 计算某个矢量的CCR1-CCR3的占空比（0-1）
  89:Src/SVPWM.c   **** // 该矢量可由U1和U2合成，该矢量在U1轴上的投影为t1，在U2轴上的投影为t2
  90:Src/SVPWM.c   **** CCR_Duty Get_CCR_Duty(float t1, float t2, Uvect_Mos u1, Uvect_Mos u2)
  91:Src/SVPWM.c   **** {
  92:Src/SVPWM.c   **** 
  93:Src/SVPWM.c   ****     float t0, t3;
  94:Src/SVPWM.c   ****     CCR_Duty result;
  95:Src/SVPWM.c   ****     t0 = (1 - t1 - t2) / 2;  // t0 为U0矢量所占的时间
  96:Src/SVPWM.c   ****     t3 = t0;                 // t3 为U7矢量所占的时间
  97:Src/SVPWM.c   **** 
  98:Src/SVPWM.c   ****     result.ccra = U7.a * t3 + u1.a * t1 + u2.a * t2;
  99:Src/SVPWM.c   ****     result.ccrb = U7.b * t3 + u1.b * t1 + u2.b * t2;
 100:Src/SVPWM.c   ****     result.ccrc = U7.c * t3 + u1.c * t1 + u2.c * t2;
 101:Src/SVPWM.c   **** 
 102:Src/SVPWM.c   ****     return result;
 103:Src/SVPWM.c   **** }
 104:Src/SVPWM.c   **** 
 105:Src/SVPWM.c   **** // 计算某个矢量在相邻两个基矢量轴上的投影(t1,t2)
 106:Src/SVPWM.c   **** // 所谓基矢量轴，假设当前矢量为45°，则相邻的两个基矢量就是0°(U4),60°(U
 107:Src/SVPWM.c   **** // alpah 为该矢量在alpha轴的投影，beta同理
 108:Src/SVPWM.c   **** // area 为该矢量所在扇区
 109:Src/SVPWM.c   **** static void SVPWM_Normal_CalT1T2(float alpha, float beta, uint8_t area, float *t1, float *t2)
 110:Src/SVPWM.c   **** {
 250              		.loc 1 110 1 is_stmt 1 view -0
 251              		.cfi_startproc
 252              		@ args = 0, pretend = 0, frame = 0
 253              		@ frame_needed = 0, uses_anonymous_args = 0
 254              		@ link register save eliminated.
 111:Src/SVPWM.c   ****     float temp = 0;
 255              		.loc 1 111 5 view .LVU58
 112:Src/SVPWM.c   ****     switch (area)
 256              		.loc 1 112 5 view .LVU59
 257 0000 0138     		subs	r0, r0, #1
 258              	.LVL15:
 259              		.loc 1 112 5 is_stmt 0 view .LVU60
 260 0002 0528     		cmp	r0, #5
 261 0004 5BD8     		bhi	.L17
 262 0006 DFE800F0 		tbb	[pc, r0]
ARM GAS  C:\Users\ncer\AppData\Local\Temp\ccP4ymp6.s 			page 8


 263              	.L20:
 264 000a 03       		.byte	(.L25-.L20)/2
 265 000b 12       		.byte	(.L24-.L20)/2
 266 000c 1F       		.byte	(.L23-.L20)/2
 267 000d 30       		.byte	(.L22-.L20)/2
 268 000e 3F       		.byte	(.L21-.L20)/2
 269 000f 4C       		.byte	(.L19-.L20)/2
 270              		.p2align 1
 271              	.L25:
 113:Src/SVPWM.c   ****     {
 114:Src/SVPWM.c   ****     case 1:
 115:Src/SVPWM.c   ****         *t1 = alpha - 0.57735f * beta;
 272              		.loc 1 115 9 is_stmt 1 view .LVU61
 273              		.loc 1 115 32 is_stmt 0 view .LVU62
 274 0010 DFED2B7A 		vldr.32	s15, .L26
 275 0014 60EEA77A 		vmul.f32	s15, s1, s15
 276              		.loc 1 115 21 view .LVU63
 277 0018 30EE670A 		vsub.f32	s0, s0, s15
 278              	.LVL16:
 279              		.loc 1 115 13 view .LVU64
 280 001c 81ED000A 		vstr.32	s0, [r1]
 116:Src/SVPWM.c   ****         *t2 = 1.1547f * beta;
 281              		.loc 1 116 9 is_stmt 1 view .LVU65
 282              		.loc 1 116 23 is_stmt 0 view .LVU66
 283 0020 DFED287A 		vldr.32	s15, .L26+4
 284 0024 60EEA70A 		vmul.f32	s1, s1, s15
 285              	.LVL17:
 286              		.loc 1 116 13 view .LVU67
 287 0028 C2ED000A 		vstr.32	s1, [r2]
 117:Src/SVPWM.c   ****         break;
 288              		.loc 1 117 9 is_stmt 1 view .LVU68
 289 002c 7047     		bx	lr
 290              	.LVL18:
 291              	.L24:
 118:Src/SVPWM.c   ****     case 2:
 119:Src/SVPWM.c   ****         *t1 = alpha + 0.57735f * beta;
 292              		.loc 1 119 9 view .LVU69
 293              		.loc 1 119 32 is_stmt 0 view .LVU70
 294 002e DFED247A 		vldr.32	s15, .L26
 295 0032 60EEA70A 		vmul.f32	s1, s1, s15
 296              	.LVL19:
 297              		.loc 1 119 21 view .LVU71
 298 0036 70EE807A 		vadd.f32	s15, s1, s0
 299              		.loc 1 119 13 view .LVU72
 300 003a C1ED007A 		vstr.32	s15, [r1]
 120:Src/SVPWM.c   ****         *t2 = 0.57735f * beta - alpha;
 301              		.loc 1 120 9 is_stmt 1 view .LVU73
 302              		.loc 1 120 31 is_stmt 0 view .LVU74
 303 003e 70EEC00A 		vsub.f32	s1, s1, s0
 304              		.loc 1 120 13 view .LVU75
 305 0042 C2ED000A 		vstr.32	s1, [r2]
 121:Src/SVPWM.c   ****         break;
 306              		.loc 1 121 9 is_stmt 1 view .LVU76
 307 0046 7047     		bx	lr
 308              	.LVL20:
 309              	.L23:
 122:Src/SVPWM.c   ****     case 3:
ARM GAS  C:\Users\ncer\AppData\Local\Temp\ccP4ymp6.s 			page 9


 123:Src/SVPWM.c   ****         *t1 = 1.1547f * beta;
 310              		.loc 1 123 9 view .LVU77
 311              		.loc 1 123 23 is_stmt 0 view .LVU78
 312 0048 DFED1E7A 		vldr.32	s15, .L26+4
 313 004c 60EEA77A 		vmul.f32	s15, s1, s15
 314              		.loc 1 123 13 view .LVU79
 315 0050 C1ED007A 		vstr.32	s15, [r1]
 124:Src/SVPWM.c   ****         *t2 = -alpha - 0.57735f * beta;
 316              		.loc 1 124 9 is_stmt 1 view .LVU80
 317              		.loc 1 124 15 is_stmt 0 view .LVU81
 318 0054 B1EE400A 		vneg.f32	s0, s0
 319              	.LVL21:
 320              		.loc 1 124 33 view .LVU82
 321 0058 DFED197A 		vldr.32	s15, .L26
 322 005c 60EEA70A 		vmul.f32	s1, s1, s15
 323              	.LVL22:
 324              		.loc 1 124 22 view .LVU83
 325 0060 70EE600A 		vsub.f32	s1, s0, s1
 326              		.loc 1 124 13 view .LVU84
 327 0064 C2ED000A 		vstr.32	s1, [r2]
 125:Src/SVPWM.c   ****         break;
 328              		.loc 1 125 9 is_stmt 1 view .LVU85
 329 0068 7047     		bx	lr
 330              	.LVL23:
 331              	.L22:
 126:Src/SVPWM.c   ****     case 4:
 127:Src/SVPWM.c   ****         *t1 = 0.57735f * beta - alpha;
 332              		.loc 1 127 9 view .LVU86
 333              		.loc 1 127 24 is_stmt 0 view .LVU87
 334 006a DFED157A 		vldr.32	s15, .L26
 335 006e 60EEA77A 		vmul.f32	s15, s1, s15
 336              		.loc 1 127 31 view .LVU88
 337 0072 37EEC00A 		vsub.f32	s0, s15, s0
 338              	.LVL24:
 339              		.loc 1 127 13 view .LVU89
 340 0076 81ED000A 		vstr.32	s0, [r1]
 128:Src/SVPWM.c   ****         *t2 = -1.1547f * beta;
 341              		.loc 1 128 9 is_stmt 1 view .LVU90
 342              		.loc 1 128 24 is_stmt 0 view .LVU91
 343 007a DFED137A 		vldr.32	s15, .L26+8
 344 007e 60EEA70A 		vmul.f32	s1, s1, s15
 345              	.LVL25:
 346              		.loc 1 128 13 view .LVU92
 347 0082 C2ED000A 		vstr.32	s1, [r2]
 129:Src/SVPWM.c   ****         break;
 348              		.loc 1 129 9 is_stmt 1 view .LVU93
 349 0086 7047     		bx	lr
 350              	.LVL26:
 351              	.L21:
 130:Src/SVPWM.c   ****     case 5:
 131:Src/SVPWM.c   ****         temp = -0.57735f * beta;
 352              		.loc 1 131 9 view .LVU94
 353              		.loc 1 131 14 is_stmt 0 view .LVU95
 354 0088 DFED107A 		vldr.32	s15, .L26+12
 355 008c 60EEA70A 		vmul.f32	s1, s1, s15
 356              	.LVL27:
 132:Src/SVPWM.c   ****         *t1 = temp - alpha;
ARM GAS  C:\Users\ncer\AppData\Local\Temp\ccP4ymp6.s 			page 10


 357              		.loc 1 132 9 is_stmt 1 view .LVU96
 358              		.loc 1 132 20 is_stmt 0 view .LVU97
 359 0090 70EEC07A 		vsub.f32	s15, s1, s0
 360              		.loc 1 132 13 view .LVU98
 361 0094 C1ED007A 		vstr.32	s15, [r1]
 133:Src/SVPWM.c   ****         *t2 = temp + alpha;
 362              		.loc 1 133 9 is_stmt 1 view .LVU99
 363              		.loc 1 133 20 is_stmt 0 view .LVU100
 364 0098 70EE200A 		vadd.f32	s1, s0, s1
 365              	.LVL28:
 366              		.loc 1 133 13 view .LVU101
 367 009c C2ED000A 		vstr.32	s1, [r2]
 134:Src/SVPWM.c   ****         break;
 368              		.loc 1 134 9 is_stmt 1 view .LVU102
 369 00a0 7047     		bx	lr
 370              	.LVL29:
 371              	.L19:
 135:Src/SVPWM.c   ****     case 6:
 136:Src/SVPWM.c   ****         *t1 = -1.1547f * beta;
 372              		.loc 1 136 9 view .LVU103
 373              		.loc 1 136 24 is_stmt 0 view .LVU104
 374 00a2 DFED097A 		vldr.32	s15, .L26+8
 375 00a6 60EEA77A 		vmul.f32	s15, s1, s15
 376              		.loc 1 136 13 view .LVU105
 377 00aa C1ED007A 		vstr.32	s15, [r1]
 137:Src/SVPWM.c   ****         *t2 = alpha + 0.57735f * beta;
 378              		.loc 1 137 9 is_stmt 1 view .LVU106
 379              		.loc 1 137 32 is_stmt 0 view .LVU107
 380 00ae DFED047A 		vldr.32	s15, .L26
 381 00b2 60EEA77A 		vmul.f32	s15, s1, s15
 382              		.loc 1 137 21 view .LVU108
 383 00b6 77EE800A 		vadd.f32	s1, s15, s0
 384              	.LVL30:
 385              		.loc 1 137 13 view .LVU109
 386 00ba C2ED000A 		vstr.32	s1, [r2]
 138:Src/SVPWM.c   ****         break;
 387              		.loc 1 138 9 is_stmt 1 view .LVU110
 388              	.L17:
 139:Src/SVPWM.c   ****     }
 140:Src/SVPWM.c   **** }
 389              		.loc 1 140 1 is_stmt 0 view .LVU111
 390 00be 7047     		bx	lr
 391              	.L27:
 392              		.align	2
 393              	.L26:
 394 00c0 36CD133F 		.word	1058262326
 395 00c4 36CD933F 		.word	1066650934
 396 00c8 36CD93BF 		.word	-1080832714
 397 00cc 36CD13BF 		.word	-1089221322
 398              		.cfi_endproc
 399              	.LFE169:
 401              		.section	.text.Set_Vector,"ax",%progbits
 402              		.align	1
 403              		.global	Set_Vector
 404              		.syntax unified
 405              		.thumb
 406              		.thumb_func
ARM GAS  C:\Users\ncer\AppData\Local\Temp\ccP4ymp6.s 			page 11


 407              		.fpu fpv4-sp-d16
 409              	Set_Vector:
 410              	.LVL31:
 411              	.LFB164:
  23:Src/SVPWM.c   ****     CCR_Duty temp_duty = {0};
 412              		.loc 1 23 1 is_stmt 1 view -0
 413              		.cfi_startproc
 414              		@ args = 0, pretend = 0, frame = 32
 415              		@ frame_needed = 0, uses_anonymous_args = 0
  23:Src/SVPWM.c   ****     CCR_Duty temp_duty = {0};
 416              		.loc 1 23 1 is_stmt 0 view .LVU113
 417 0000 10B5     		push	{r4, lr}
 418              	.LCFI5:
 419              		.cfi_def_cfa_offset 8
 420              		.cfi_offset 4, -8
 421              		.cfi_offset 14, -4
 422 0002 88B0     		sub	sp, sp, #32
 423              	.LCFI6:
 424              		.cfi_def_cfa_offset 40
 425 0004 6C46     		mov	r4, sp
 426 0006 84E80F00 		stm	r4, {r0, r1, r2, r3}
 427 000a F0EE407A 		vmov.f32	s15, s0
  24:Src/SVPWM.c   ****     if(duty>0.95f){
 428              		.loc 1 24 5 is_stmt 1 view .LVU114
  25:Src/SVPWM.c   ****         duty=0.95f;
 429              		.loc 1 25 5 view .LVU115
  25:Src/SVPWM.c   ****         duty=0.95f;
 430              		.loc 1 25 7 is_stmt 0 view .LVU116
 431 000e 9FED127A 		vldr.32	s14, .L32
 432 0012 B4EEC70A 		vcmpe.f32	s0, s14
 433 0016 F1EE10FA 		vmrs	APSR_nzcv, FPSCR
 434 001a 01DD     		ble	.L29
  26:Src/SVPWM.c   ****     }
 435              		.loc 1 26 13 view .LVU117
 436 001c F0EE477A 		vmov.f32	s15, s14
 437              	.L29:
 438              	.LVL32:
  29:Src/SVPWM.c   ****     temp_duty.ccrb = u.b * duty;
 439              		.loc 1 29 5 is_stmt 1 view .LVU118
  29:Src/SVPWM.c   ****     temp_duty.ccrb = u.b * duty;
 440              		.loc 1 29 23 is_stmt 0 view .LVU119
 441 0020 9DF80030 		ldrb	r3, [sp]	@ zero_extendqisi2
 442 0024 00EE103A 		vmov	s0, r3	@ int
  29:Src/SVPWM.c   ****     temp_duty.ccrb = u.b * duty;
 443              		.loc 1 29 26 view .LVU120
 444 0028 B8EEC00A 		vcvt.f32.s32	s0, s0
  30:Src/SVPWM.c   ****     temp_duty.ccrc = u.c * duty;
 445              		.loc 1 30 5 is_stmt 1 view .LVU121
  30:Src/SVPWM.c   ****     temp_duty.ccrc = u.c * duty;
 446              		.loc 1 30 23 is_stmt 0 view .LVU122
 447 002c 9DF80130 		ldrb	r3, [sp, #1]	@ zero_extendqisi2
 448 0030 00EE903A 		vmov	s1, r3	@ int
  30:Src/SVPWM.c   ****     temp_duty.ccrc = u.c * duty;
 449              		.loc 1 30 26 view .LVU123
 450 0034 F8EEE00A 		vcvt.f32.s32	s1, s1
  31:Src/SVPWM.c   **** 
 451              		.loc 1 31 5 is_stmt 1 view .LVU124
ARM GAS  C:\Users\ncer\AppData\Local\Temp\ccP4ymp6.s 			page 12


  31:Src/SVPWM.c   **** 
 452              		.loc 1 31 23 is_stmt 0 view .LVU125
 453 0038 9DF80230 		ldrb	r3, [sp, #2]	@ zero_extendqisi2
 454 003c 01EE103A 		vmov	s2, r3	@ int
  31:Src/SVPWM.c   **** 
 455              		.loc 1 31 26 view .LVU126
 456 0040 B8EEC11A 		vcvt.f32.s32	s2, s2
  33:Src/SVPWM.c   **** }
 457              		.loc 1 33 5 is_stmt 1 view .LVU127
 458 0044 20EE270A 		vmul.f32	s0, s0, s15
 459 0048 60EEA70A 		vmul.f32	s1, s1, s15
 460 004c 21EE271A 		vmul.f32	s2, s2, s15
 461 0050 FFF7FEFF 		bl	SVPWM_Step
 462              	.LVL33:
  34:Src/SVPWM.c   **** 
 463              		.loc 1 34 1 is_stmt 0 view .LVU128
 464 0054 08B0     		add	sp, sp, #32
 465              	.LCFI7:
 466              		.cfi_def_cfa_offset 8
 467              		@ sp needed
 468 0056 10BD     		pop	{r4, pc}
 469              	.L33:
 470              		.align	2
 471              	.L32:
 472 0058 3333733F 		.word	1064514355
 473              		.cfi_endproc
 474              	.LFE164:
 476              		.section	.text.Set_to_Un,"ax",%progbits
 477              		.align	1
 478              		.global	Set_to_Un
 479              		.syntax unified
 480              		.thumb
 481              		.thumb_func
 482              		.fpu fpv4-sp-d16
 484              	Set_to_Un:
 485              	.LVL34:
 486              	.LFB165:
  40:Src/SVPWM.c   ****     Set_Vector(target,duty);
 487              		.loc 1 40 1 is_stmt 1 view -0
 488              		.cfi_startproc
 489              		@ args = 20, pretend = 16, frame = 0
 490              		@ frame_needed = 0, uses_anonymous_args = 0
  40:Src/SVPWM.c   ****     Set_Vector(target,duty);
 491              		.loc 1 40 1 is_stmt 0 view .LVU130
 492 0000 84B0     		sub	sp, sp, #16
 493              	.LCFI8:
 494              		.cfi_def_cfa_offset 16
 495 0002 38B5     		push	{r3, r4, r5, lr}
 496              	.LCFI9:
 497              		.cfi_def_cfa_offset 32
 498              		.cfi_offset 3, -32
 499              		.cfi_offset 4, -28
 500              		.cfi_offset 5, -24
 501              		.cfi_offset 14, -20
 502 0004 2DED028B 		vpush.64	{d8}
 503              	.LCFI10:
 504              		.cfi_def_cfa_offset 40
ARM GAS  C:\Users\ncer\AppData\Local\Temp\ccP4ymp6.s 			page 13


 505              		.cfi_offset 80, -40
 506              		.cfi_offset 81, -36
 507 0008 0546     		mov	r5, r0
 508 000a 07AC     		add	r4, sp, #28
 509 000c 84E80E00 		stm	r4, {r1, r2, r3}
 510 0010 B0EE408A 		vmov.f32	s16, s0
  41:Src/SVPWM.c   ****     HAL_Delay(t);
 511              		.loc 1 41 5 is_stmt 1 view .LVU131
 512 0014 94E80F00 		ldm	r4, {r0, r1, r2, r3}
 513              	.LVL35:
  41:Src/SVPWM.c   ****     HAL_Delay(t);
 514              		.loc 1 41 5 is_stmt 0 view .LVU132
 515 0018 FFF7FEFF 		bl	Set_Vector
 516              	.LVL36:
  42:Src/SVPWM.c   ****     Set_Vector(U0,duty); 
 517              		.loc 1 42 5 is_stmt 1 view .LVU133
 518 001c 2846     		mov	r0, r5
 519 001e FFF7FEFF 		bl	HAL_Delay
 520              	.LVL37:
  43:Src/SVPWM.c   **** }
 521              		.loc 1 43 5 view .LVU134
 522 0022 064B     		ldr	r3, .L36
 523 0024 B0EE480A 		vmov.f32	s0, s16
 524 0028 0FCB     		ldm	r3, {r0, r1, r2, r3}
 525 002a FFF7FEFF 		bl	Set_Vector
 526              	.LVL38:
  44:Src/SVPWM.c   **** 
 527              		.loc 1 44 1 is_stmt 0 view .LVU135
 528 002e BDEC028B 		vldm	sp!, {d8}
 529              	.LCFI11:
 530              		.cfi_restore 80
 531              		.cfi_restore 81
 532              		.cfi_def_cfa_offset 32
 533              	.LVL39:
  44:Src/SVPWM.c   **** 
 534              		.loc 1 44 1 view .LVU136
 535 0032 BDE83840 		pop	{r3, r4, r5, lr}
 536              	.LCFI12:
 537              		.cfi_restore 14
 538              		.cfi_restore 5
 539              		.cfi_restore 4
 540              		.cfi_restore 3
 541              		.cfi_def_cfa_offset 16
 542 0036 04B0     		add	sp, sp, #16
 543              	.LCFI13:
 544              		.cfi_def_cfa_offset 0
 545 0038 7047     		bx	lr
 546              	.L37:
 547 003a 00BF     		.align	2
 548              	.L36:
 549 003c 00000000 		.word	.LANCHOR6
 550              		.cfi_endproc
 551              	.LFE165:
 553              		.section	.text.Get_CCR_Duty,"ax",%progbits
 554              		.align	1
 555              		.global	Get_CCR_Duty
 556              		.syntax unified
ARM GAS  C:\Users\ncer\AppData\Local\Temp\ccP4ymp6.s 			page 14


 557              		.thumb
 558              		.thumb_func
 559              		.fpu fpv4-sp-d16
 561              	Get_CCR_Duty:
 562              	.LVL40:
 563              	.LFB168:
  91:Src/SVPWM.c   **** 
 564              		.loc 1 91 1 is_stmt 1 view -0
 565              		.cfi_startproc
 566              		@ args = 16, pretend = 0, frame = 56
 567              		@ frame_needed = 0, uses_anonymous_args = 0
 568              		@ link register save eliminated.
  91:Src/SVPWM.c   **** 
 569              		.loc 1 91 1 is_stmt 0 view .LVU138
 570 0000 10B4     		push	{r4}
 571              	.LCFI14:
 572              		.cfi_def_cfa_offset 4
 573              		.cfi_offset 4, -4
 574 0002 8FB0     		sub	sp, sp, #60
 575              	.LCFI15:
 576              		.cfi_def_cfa_offset 64
 577 0004 04AC     		add	r4, sp, #16
 578 0006 84E80F00 		stm	r4, {r0, r1, r2, r3}
  93:Src/SVPWM.c   ****     CCR_Duty result;
 579              		.loc 1 93 5 is_stmt 1 view .LVU139
  94:Src/SVPWM.c   ****     t0 = (1 - t1 - t2) / 2;  // t0 为U0矢量所占的时间
 580              		.loc 1 94 5 view .LVU140
  95:Src/SVPWM.c   ****     t3 = t0;                 // t3 为U7矢量所占的时间
 581              		.loc 1 95 5 view .LVU141
  95:Src/SVPWM.c   ****     t3 = t0;                 // t3 为U7矢量所占的时间
 582              		.loc 1 95 13 is_stmt 0 view .LVU142
 583 000a F7EE007A 		vmov.f32	s15, #1.0e+0
 584 000e 77EEC07A 		vsub.f32	s15, s15, s0
  95:Src/SVPWM.c   ****     t3 = t0;                 // t3 为U7矢量所占的时间
 585              		.loc 1 95 18 view .LVU143
 586 0012 77EEE07A 		vsub.f32	s15, s15, s1
  95:Src/SVPWM.c   ****     t3 = t0;                 // t3 为U7矢量所占的时间
 587              		.loc 1 95 8 view .LVU144
 588 0016 B6EE007A 		vmov.f32	s14, #5.0e-1
 589 001a 27EE877A 		vmul.f32	s14, s15, s14
 590              	.LVL41:
  96:Src/SVPWM.c   **** 
 591              		.loc 1 96 5 is_stmt 1 view .LVU145
  98:Src/SVPWM.c   ****     result.ccrb = U7.b * t3 + u1.b * t1 + u2.b * t2;
 592              		.loc 1 98 5 view .LVU146
  98:Src/SVPWM.c   ****     result.ccrb = U7.b * t3 + u1.b * t1 + u2.b * t2;
 593              		.loc 1 98 21 is_stmt 0 view .LVU147
 594 001e 344B     		ldr	r3, .L40
 595 0020 1A78     		ldrb	r2, [r3]	@ zero_extendqisi2
 596 0022 07EE902A 		vmov	s15, r2	@ int
  98:Src/SVPWM.c   ****     result.ccrb = U7.b * t3 + u1.b * t1 + u2.b * t2;
 597              		.loc 1 98 24 view .LVU148
 598 0026 F8EEE77A 		vcvt.f32.s32	s15, s15
 599 002a 67EE877A 		vmul.f32	s15, s15, s14
  98:Src/SVPWM.c   ****     result.ccrb = U7.b * t3 + u1.b * t1 + u2.b * t2;
 600              		.loc 1 98 33 view .LVU149
 601 002e 9DF81020 		ldrb	r2, [sp, #16]	@ zero_extendqisi2
ARM GAS  C:\Users\ncer\AppData\Local\Temp\ccP4ymp6.s 			page 15


 602 0032 06EE902A 		vmov	s13, r2	@ int
  98:Src/SVPWM.c   ****     result.ccrb = U7.b * t3 + u1.b * t1 + u2.b * t2;
 603              		.loc 1 98 36 view .LVU150
 604 0036 F8EEE66A 		vcvt.f32.s32	s13, s13
 605 003a 66EE806A 		vmul.f32	s13, s13, s0
  98:Src/SVPWM.c   ****     result.ccrb = U7.b * t3 + u1.b * t1 + u2.b * t2;
 606              		.loc 1 98 29 view .LVU151
 607 003e 77EEA67A 		vadd.f32	s15, s15, s13
  98:Src/SVPWM.c   ****     result.ccrb = U7.b * t3 + u1.b * t1 + u2.b * t2;
 608              		.loc 1 98 45 view .LVU152
 609 0042 9DF84020 		ldrb	r2, [sp, #64]	@ zero_extendqisi2
 610 0046 06EE902A 		vmov	s13, r2	@ int
  98:Src/SVPWM.c   ****     result.ccrb = U7.b * t3 + u1.b * t1 + u2.b * t2;
 611              		.loc 1 98 48 view .LVU153
 612 004a F8EEE66A 		vcvt.f32.s32	s13, s13
 613 004e 66EEA06A 		vmul.f32	s13, s13, s1
  98:Src/SVPWM.c   ****     result.ccrb = U7.b * t3 + u1.b * t1 + u2.b * t2;
 614              		.loc 1 98 41 view .LVU154
 615 0052 77EEA67A 		vadd.f32	s15, s15, s13
  98:Src/SVPWM.c   ****     result.ccrb = U7.b * t3 + u1.b * t1 + u2.b * t2;
 616              		.loc 1 98 17 view .LVU155
 617 0056 CDED087A 		vstr.32	s15, [sp, #32]
  99:Src/SVPWM.c   ****     result.ccrc = U7.c * t3 + u1.c * t1 + u2.c * t2;
 618              		.loc 1 99 5 is_stmt 1 view .LVU156
  99:Src/SVPWM.c   ****     result.ccrc = U7.c * t3 + u1.c * t1 + u2.c * t2;
 619              		.loc 1 99 21 is_stmt 0 view .LVU157
 620 005a 5A78     		ldrb	r2, [r3, #1]	@ zero_extendqisi2
 621 005c 07EE902A 		vmov	s15, r2	@ int
  99:Src/SVPWM.c   ****     result.ccrc = U7.c * t3 + u1.c * t1 + u2.c * t2;
 622              		.loc 1 99 24 view .LVU158
 623 0060 F8EEE77A 		vcvt.f32.s32	s15, s15
 624 0064 67EE877A 		vmul.f32	s15, s15, s14
  99:Src/SVPWM.c   ****     result.ccrc = U7.c * t3 + u1.c * t1 + u2.c * t2;
 625              		.loc 1 99 33 view .LVU159
 626 0068 9DF81120 		ldrb	r2, [sp, #17]	@ zero_extendqisi2
 627 006c 06EE902A 		vmov	s13, r2	@ int
  99:Src/SVPWM.c   ****     result.ccrc = U7.c * t3 + u1.c * t1 + u2.c * t2;
 628              		.loc 1 99 36 view .LVU160
 629 0070 F8EEE66A 		vcvt.f32.s32	s13, s13
 630 0074 66EE806A 		vmul.f32	s13, s13, s0
  99:Src/SVPWM.c   ****     result.ccrc = U7.c * t3 + u1.c * t1 + u2.c * t2;
 631              		.loc 1 99 29 view .LVU161
 632 0078 77EEA67A 		vadd.f32	s15, s15, s13
  99:Src/SVPWM.c   ****     result.ccrc = U7.c * t3 + u1.c * t1 + u2.c * t2;
 633              		.loc 1 99 45 view .LVU162
 634 007c 9DF84120 		ldrb	r2, [sp, #65]	@ zero_extendqisi2
 635 0080 06EE902A 		vmov	s13, r2	@ int
  99:Src/SVPWM.c   ****     result.ccrc = U7.c * t3 + u1.c * t1 + u2.c * t2;
 636              		.loc 1 99 48 view .LVU163
 637 0084 F8EEE66A 		vcvt.f32.s32	s13, s13
 638 0088 66EEA06A 		vmul.f32	s13, s13, s1
  99:Src/SVPWM.c   ****     result.ccrc = U7.c * t3 + u1.c * t1 + u2.c * t2;
 639              		.loc 1 99 41 view .LVU164
 640 008c 77EEA67A 		vadd.f32	s15, s15, s13
  99:Src/SVPWM.c   ****     result.ccrc = U7.c * t3 + u1.c * t1 + u2.c * t2;
 641              		.loc 1 99 17 view .LVU165
 642 0090 CDED097A 		vstr.32	s15, [sp, #36]
ARM GAS  C:\Users\ncer\AppData\Local\Temp\ccP4ymp6.s 			page 16


 100:Src/SVPWM.c   **** 
 643              		.loc 1 100 5 is_stmt 1 view .LVU166
 100:Src/SVPWM.c   **** 
 644              		.loc 1 100 21 is_stmt 0 view .LVU167
 645 0094 9B78     		ldrb	r3, [r3, #2]	@ zero_extendqisi2
 646 0096 07EE903A 		vmov	s15, r3	@ int
 100:Src/SVPWM.c   **** 
 647              		.loc 1 100 24 view .LVU168
 648 009a F8EEE77A 		vcvt.f32.s32	s15, s15
 649 009e 67EE877A 		vmul.f32	s15, s15, s14
 100:Src/SVPWM.c   **** 
 650              		.loc 1 100 33 view .LVU169
 651 00a2 9DF81230 		ldrb	r3, [sp, #18]	@ zero_extendqisi2
 652 00a6 07EE103A 		vmov	s14, r3	@ int
 653              	.LVL42:
 100:Src/SVPWM.c   **** 
 654              		.loc 1 100 36 view .LVU170
 655 00aa B8EEC77A 		vcvt.f32.s32	s14, s14
 656 00ae 27EE000A 		vmul.f32	s0, s14, s0
 657              	.LVL43:
 100:Src/SVPWM.c   **** 
 658              		.loc 1 100 29 view .LVU171
 659 00b2 37EE800A 		vadd.f32	s0, s15, s0
 100:Src/SVPWM.c   **** 
 660              		.loc 1 100 45 view .LVU172
 661 00b6 9DF84230 		ldrb	r3, [sp, #66]	@ zero_extendqisi2
 662 00ba 07EE903A 		vmov	s15, r3	@ int
 100:Src/SVPWM.c   **** 
 663              		.loc 1 100 48 view .LVU173
 664 00be F8EEE77A 		vcvt.f32.s32	s15, s15
 665 00c2 67EEA00A 		vmul.f32	s1, s15, s1
 666              	.LVL44:
 100:Src/SVPWM.c   **** 
 667              		.loc 1 100 41 view .LVU174
 668 00c6 70EE200A 		vadd.f32	s1, s0, s1
 100:Src/SVPWM.c   **** 
 669              		.loc 1 100 17 view .LVU175
 670 00ca CDED0A0A 		vstr.32	s1, [sp, #40]
 102:Src/SVPWM.c   **** }
 671              		.loc 1 102 5 is_stmt 1 view .LVU176
 102:Src/SVPWM.c   **** }
 672              		.loc 1 102 12 is_stmt 0 view .LVU177
 673 00ce 08AB     		add	r3, sp, #32
 674 00d0 93E80700 		ldm	r3, {r0, r1, r2}
 675 00d4 0EAB     		add	r3, sp, #56
 676 00d6 03E90700 		stmdb	r3, {r0, r1, r2}
 103:Src/SVPWM.c   **** 
 677              		.loc 1 103 1 view .LVU178
 678 00da 9DED0B0A 		vldr.32	s0, [sp, #44]
 679 00de DDED0C0A 		vldr.32	s1, [sp, #48]
 680 00e2 9DED0D1A 		vldr.32	s2, [sp, #52]
 681 00e6 0FB0     		add	sp, sp, #60
 682              	.LCFI16:
 683              		.cfi_def_cfa_offset 4
 684              		@ sp needed
 685 00e8 5DF8044B 		ldr	r4, [sp], #4
 686              	.LCFI17:
ARM GAS  C:\Users\ncer\AppData\Local\Temp\ccP4ymp6.s 			page 17


 687              		.cfi_restore 4
 688              		.cfi_def_cfa_offset 0
 689 00ec 7047     		bx	lr
 690              	.L41:
 691 00ee 00BF     		.align	2
 692              	.L40:
 693 00f0 00000000 		.word	.LANCHOR7
 694              		.cfi_endproc
 695              	.LFE168:
 697              		.section	.text.SVPWM,"ax",%progbits
 698              		.align	1
 699              		.global	SVPWM
 700              		.syntax unified
 701              		.thumb
 702              		.thumb_func
 703              		.fpu fpv4-sp-d16
 705              	SVPWM:
 706              	.LVL45:
 707              	.LFB170:
 141:Src/SVPWM.c   **** 
 142:Src/SVPWM.c   **** 
 143:Src/SVPWM.c   **** 
 144:Src/SVPWM.c   **** 
 145:Src/SVPWM.c   **** // Target_U 期望电压矢量的角度 单位° 0-360
 146:Src/SVPWM.c   **** // duty 期望占空比 0-1
 147:Src/SVPWM.c   **** void SVPWM(float Target_U, float duty)
 148:Src/SVPWM.c   **** {
 708              		.loc 1 148 1 is_stmt 1 view -0
 709              		.cfi_startproc
 710              		@ args = 0, pretend = 0, frame = 48
 711              		@ frame_needed = 0, uses_anonymous_args = 0
 712              		.loc 1 148 1 is_stmt 0 view .LVU180
 713 0000 70B5     		push	{r4, r5, r6, lr}
 714              	.LCFI18:
 715              		.cfi_def_cfa_offset 16
 716              		.cfi_offset 4, -16
 717              		.cfi_offset 5, -12
 718              		.cfi_offset 6, -8
 719              		.cfi_offset 14, -4
 720 0002 2DED028B 		vpush.64	{d8}
 721              	.LCFI19:
 722              		.cfi_def_cfa_offset 24
 723              		.cfi_offset 80, -24
 724              		.cfi_offset 81, -20
 725 0006 90B0     		sub	sp, sp, #64
 726              	.LCFI20:
 727              		.cfi_def_cfa_offset 88
 728 0008 F0EE408A 		vmov.f32	s17, s0
 729 000c B0EE608A 		vmov.f32	s16, s1
 149:Src/SVPWM.c   ****     Uvect_Mos u1, u2;
 730              		.loc 1 149 5 is_stmt 1 view .LVU181
 150:Src/SVPWM.c   ****     float x, y;
 731              		.loc 1 150 5 view .LVU182
 151:Src/SVPWM.c   ****     float t1, t2;
 732              		.loc 1 151 5 view .LVU183
 152:Src/SVPWM.c   ****     static CCR_Duty CCR_Dutys = {0};
 733              		.loc 1 152 5 view .LVU184
ARM GAS  C:\Users\ncer\AppData\Local\Temp\ccP4ymp6.s 			page 18


 153:Src/SVPWM.c   **** 
 154:Src/SVPWM.c   ****     if(Target_U>360){
 734              		.loc 1 154 5 view .LVU185
 735              		.loc 1 154 7 is_stmt 0 view .LVU186
 736 0010 DFED307A 		vldr.32	s15, .L47
 737 0014 B4EEE70A 		vcmpe.f32	s0, s15
 738 0018 F1EE10FA 		vmrs	APSR_nzcv, FPSCR
 739 001c 14DD     		ble	.L43
 155:Src/SVPWM.c   ****         Target_U -=360*((int)Target_U/360);
 740              		.loc 1 155 9 is_stmt 1 view .LVU187
 741              		.loc 1 155 25 is_stmt 0 view .LVU188
 742 001e FDEEC07A 		vcvt.s32.f32	s15, s0
 743 0022 17EE903A 		vmov	r3, s15	@ int
 744              		.loc 1 155 38 view .LVU189
 745 0026 2C4A     		ldr	r2, .L47+4
 746 0028 82FB0312 		smull	r1, r2, r2, r3
 747 002c 1A44     		add	r2, r2, r3
 748 002e DB17     		asrs	r3, r3, #31
 749 0030 C3EB2223 		rsb	r3, r3, r2, asr #8
 750              		.loc 1 155 23 view .LVU190
 751 0034 4FF4B472 		mov	r2, #360
 752 0038 02FB03F3 		mul	r3, r2, r3
 753              		.loc 1 155 18 view .LVU191
 754 003c 07EE903A 		vmov	s15, r3	@ int
 755 0040 F8EEE77A 		vcvt.f32.s32	s15, s15
 756 0044 70EE678A 		vsub.f32	s17, s0, s15
 757              	.LVL46:
 758              	.L43:
 156:Src/SVPWM.c   ****     }
 157:Src/SVPWM.c   **** 
 158:Src/SVPWM.c   ****     uint8_t area = get_area(Target_U);
 759              		.loc 1 158 5 is_stmt 1 view .LVU192
 760              		.loc 1 158 20 is_stmt 0 view .LVU193
 761 0048 FCEEE87A 		vcvt.u32.f32	s15, s17
 762 004c 17EE904A 		vmov	r4, s15	@ int
 763              	.LVL47:
 764              	.LBB4:
 765              	.LBI4:
  47:Src/SVPWM.c   **** {
 766              		.loc 1 47 16 is_stmt 1 view .LVU194
 767              	.LBB5:
  49:Src/SVPWM.c   **** }
 768              		.loc 1 49 5 view .LVU195
  49:Src/SVPWM.c   **** }
 769              		.loc 1 49 22 is_stmt 0 view .LVU196
 770 0050 224B     		ldr	r3, .L47+8
 771 0052 A3FB0434 		umull	r3, r4, r3, r4
 772              	.LVL48:
  49:Src/SVPWM.c   **** }
 773              		.loc 1 49 22 view .LVU197
 774 0056 6409     		lsrs	r4, r4, #5
  49:Src/SVPWM.c   **** }
 775              		.loc 1 49 27 view .LVU198
 776 0058 0134     		adds	r4, r4, #1
 777 005a E4B2     		uxtb	r4, r4
 778              	.LVL49:
  49:Src/SVPWM.c   **** }
ARM GAS  C:\Users\ncer\AppData\Local\Temp\ccP4ymp6.s 			page 19


 779              		.loc 1 49 27 view .LVU199
 780              	.LBE5:
 781              	.LBE4:
 159:Src/SVPWM.c   ****     get_area_u(area, &u1, &u2);
 782              		.loc 1 159 5 is_stmt 1 view .LVU200
 783 005c 08AE     		add	r6, sp, #32
 784 005e 0CAD     		add	r5, sp, #48
 785 0060 3246     		mov	r2, r6
 786 0062 2946     		mov	r1, r5
 787 0064 2046     		mov	r0, r4
 788 0066 FFF7FEFF 		bl	get_area_u
 789              	.LVL50:
 160:Src/SVPWM.c   ****     arm_sin_cos_f32(Target_U, &y, &x);
 790              		.loc 1 160 5 view .LVU201
 791 006a 07A9     		add	r1, sp, #28
 792 006c 06A8     		add	r0, sp, #24
 793 006e B0EE680A 		vmov.f32	s0, s17
 794 0072 FFF7FEFF 		bl	arm_sin_cos_f32
 795              	.LVL51:
 161:Src/SVPWM.c   ****     x *= 0.86f * duty;
 796              		.loc 1 161 5 view .LVU202
 797              		.loc 1 161 16 is_stmt 0 view .LVU203
 798 0076 DFED1A0A 		vldr.32	s1, .L47+12
 799 007a 68EE200A 		vmul.f32	s1, s16, s1
 800              		.loc 1 161 7 view .LVU204
 801 007e 9DED070A 		vldr.32	s0, [sp, #28]
 802 0082 20EE800A 		vmul.f32	s0, s1, s0
 803 0086 8DED070A 		vstr.32	s0, [sp, #28]
 162:Src/SVPWM.c   ****     y *= 0.86f * duty; // sqrt(3)/2 没错
 804              		.loc 1 162 5 is_stmt 1 view .LVU205
 805              		.loc 1 162 7 is_stmt 0 view .LVU206
 806 008a DDED067A 		vldr.32	s15, [sp, #24]
 807 008e 60EEA70A 		vmul.f32	s1, s1, s15
 808 0092 CDED060A 		vstr.32	s1, [sp, #24]
 163:Src/SVPWM.c   ****     SVPWM_Normal_CalT1T2(x, y, area, &t1, &t2);
 809              		.loc 1 163 5 is_stmt 1 view .LVU207
 810 0096 04AA     		add	r2, sp, #16
 811 0098 05A9     		add	r1, sp, #20
 812 009a 2046     		mov	r0, r4
 813 009c FFF7FEFF 		bl	SVPWM_Normal_CalT1T2
 814              	.LVL52:
 164:Src/SVPWM.c   ****     CCR_Dutys = Get_CCR_Duty(t1, t2, u1, u2);
 815              		.loc 1 164 5 view .LVU208
 816              		.loc 1 164 17 is_stmt 0 view .LVU209
 817 00a0 96E80F00 		ldm	r6, {r0, r1, r2, r3}
 818 00a4 8DE80F00 		stm	sp, {r0, r1, r2, r3}
 819 00a8 95E80F00 		ldm	r5, {r0, r1, r2, r3}
 820 00ac DDED040A 		vldr.32	s1, [sp, #16]
 821 00b0 9DED050A 		vldr.32	s0, [sp, #20]
 822 00b4 FFF7FEFF 		bl	Get_CCR_Duty
 823              	.LVL53:
 824 00b8 0A4B     		ldr	r3, .L47+16
 825 00ba 83ED000A 		vstr.32	s0, [r3]
 826 00be C3ED010A 		vstr.32	s1, [r3, #4]
 827 00c2 83ED021A 		vstr.32	s2, [r3, #8]
 165:Src/SVPWM.c   ****     SVPWM_Step(CCR_Dutys);
 828              		.loc 1 165 5 is_stmt 1 view .LVU210
ARM GAS  C:\Users\ncer\AppData\Local\Temp\ccP4ymp6.s 			page 20


 829 00c6 FFF7FEFF 		bl	SVPWM_Step
 830              	.LVL54:
 166:Src/SVPWM.c   **** }
 831              		.loc 1 166 1 is_stmt 0 view .LVU211
 832 00ca 10B0     		add	sp, sp, #64
 833              	.LCFI21:
 834              		.cfi_def_cfa_offset 24
 835              		@ sp needed
 836 00cc BDEC028B 		vldm	sp!, {d8}
 837              	.LCFI22:
 838              		.cfi_restore 80
 839              		.cfi_restore 81
 840              		.cfi_def_cfa_offset 16
 841              	.LVL55:
 842              		.loc 1 166 1 view .LVU212
 843 00d0 70BD     		pop	{r4, r5, r6, pc}
 844              	.LVL56:
 845              	.L48:
 846              		.loc 1 166 1 view .LVU213
 847 00d2 00BF     		.align	2
 848              	.L47:
 849 00d4 0000B443 		.word	1135869952
 850 00d8 B7600BB6 		.word	-1240768329
 851 00dc 89888888 		.word	-2004318071
 852 00e0 F6285C3F 		.word	1063004406
 853 00e4 00000000 		.word	.LANCHOR8
 854              		.cfi_endproc
 855              	.LFE170:
 857              		.global	U7
 858              		.global	U5
 859              		.global	U1
 860              		.global	U3
 861              		.global	U2
 862              		.global	U6
 863              		.global	U4
 864              		.global	U0
 865              		.section	.bss.CCR_Dutys.12025,"aw",%nobits
 866              		.align	2
 867              		.set	.LANCHOR8,. + 0
 870              	CCR_Dutys.12025:
 871 0000 00000000 		.space	12
 871      00000000 
 871      00000000 
 872              		.section	.bss.U0,"aw",%nobits
 873              		.align	2
 874              		.set	.LANCHOR6,. + 0
 877              	U0:
 878 0000 00000000 		.space	16
 878      00000000 
 878      00000000 
 878      00000000 
 879              		.section	.data.U1,"aw"
 880              		.align	2
 881              		.set	.LANCHOR4,. + 0
 884              	U1:
 885 0000 00       		.byte	0
 886 0001 00       		.byte	0
ARM GAS  C:\Users\ncer\AppData\Local\Temp\ccP4ymp6.s 			page 21


 887 0002 01       		.byte	1
 888 0003 00       		.space	1
 889 0004 910A8640 		.word	1082526353
 890 0008 00000000 		.space	8
 890      00000000 
 891              		.section	.data.U2,"aw"
 892              		.align	2
 893              		.set	.LANCHOR2,. + 0
 896              	U2:
 897 0000 00       		.byte	0
 898 0001 01       		.byte	1
 899 0002 00       		.byte	0
 900 0003 00       		.space	1
 901 0004 910A0640 		.word	1074137745
 902 0008 00000000 		.space	8
 902      00000000 
 903              		.section	.data.U3,"aw"
 904              		.align	2
 905              		.set	.LANCHOR3,. + 0
 908              	U3:
 909 0000 00       		.byte	0
 910 0001 01       		.byte	1
 911 0002 01       		.byte	1
 912 0003 00       		.space	1
 913 0004 DA0F4940 		.word	1078530010
 914 0008 00000000 		.space	8
 914      00000000 
 915              		.section	.data.U4,"aw"
 916              		.align	2
 917              		.set	.LANCHOR0,. + 0
 920              	U4:
 921 0000 01       		.byte	1
 922 0001 00       		.byte	0
 923 0002 00       		.byte	0
 924 0003 00       		.space	1
 925 0004 00000000 		.word	0
 926 0008 00000000 		.space	8
 926      00000000 
 927              		.section	.data.U5,"aw"
 928              		.align	2
 929              		.set	.LANCHOR5,. + 0
 932              	U5:
 933 0000 01       		.byte	1
 934 0001 00       		.byte	0
 935 0002 01       		.byte	1
 936 0003 00       		.space	1
 937 0004 358DA740 		.word	1084722485
 938 0008 00000000 		.space	8
 938      00000000 
 939              		.section	.data.U6,"aw"
 940              		.align	2
 941              		.set	.LANCHOR1,. + 0
 944              	U6:
 945 0000 01       		.byte	1
 946 0001 01       		.byte	1
 947 0002 00       		.byte	0
 948 0003 00       		.space	1
ARM GAS  C:\Users\ncer\AppData\Local\Temp\ccP4ymp6.s 			page 22


 949 0004 910A863F 		.word	1065749137
 950 0008 00000000 		.space	8
 950      00000000 
 951              		.section	.data.U7,"aw"
 952              		.align	2
 953              		.set	.LANCHOR7,. + 0
 956              	U7:
 957 0000 01       		.byte	1
 958 0001 01       		.byte	1
 959 0002 01       		.byte	1
 960 0003 00       		.space	1
 961 0004 00000000 		.word	0
 962 0008 00000000 		.space	8
 962      00000000 
 963              		.text
 964              	.Letext0:
 965              		.file 2 "c:\\arm_gcc\\arm-none-eabi\\include\\machine\\_default_types.h"
 966              		.file 3 "c:\\arm_gcc\\arm-none-eabi\\include\\sys\\_stdint.h"
 967              		.file 4 "Drivers/CMSIS/Include/core_cm4.h"
 968              		.file 5 "Drivers/CMSIS/Device/ST/STM32F4xx/Include/system_stm32f4xx.h"
 969              		.file 6 "Drivers/CMSIS/Device/ST/STM32F4xx/Include/stm32f405xx.h"
 970              		.file 7 "Drivers/STM32F4xx_HAL_Driver/Inc/stm32f4xx_hal_def.h"
 971              		.file 8 "Drivers/STM32F4xx_HAL_Driver/Inc/stm32f4xx_hal_dma.h"
 972              		.file 9 "Drivers/STM32F4xx_HAL_Driver/Inc/stm32f4xx_hal_tim.h"
 973              		.file 10 "Drivers/STM32F4xx_HAL_Driver/Inc/stm32f4xx_hal.h"
 974              		.file 11 "Inc/tim.h"
 975              		.file 12 "Src/SVPWM.h"
 976              		.file 13 "c:\\arm_gcc\\arm-none-eabi\\include\\sys\\lock.h"
 977              		.file 14 "c:\\arm_gcc\\arm-none-eabi\\include\\sys\\_types.h"
 978              		.file 15 "c:\\arm_gcc\\lib\\gcc\\arm-none-eabi\\9.2.1\\include\\stddef.h"
 979              		.file 16 "c:\\arm_gcc\\arm-none-eabi\\include\\sys\\reent.h"
 980              		.file 17 "c:\\arm_gcc\\arm-none-eabi\\include\\math.h"
 981              		.file 18 "Drivers/CMSIS/DSP/Include/arm_math.h"
ARM GAS  C:\Users\ncer\AppData\Local\Temp\ccP4ymp6.s 			page 23

